
DBW_ECU.elf:     file format elf32-littlearm

Sections:
Idx Name          Size      VMA       LMA       File off  Algn
  0 .text         0000bcc8  00000000  00000000  00010000  2**4
                  CONTENTS, ALLOC, LOAD, READONLY, CODE
  1 .relocate     000000b4  20000000  0000bcc8  00020000  2**2
                  CONTENTS, ALLOC, LOAD, DATA
  2 .bkupram      00000000  47000000  47000000  000200b4  2**0
                  CONTENTS
  3 .qspi         00000000  04000000  04000000  000200b4  2**0
                  CONTENTS
  4 .bss          00016140  200000c0  0000bda0  000200c0  2**5
                  ALLOC
  5 .stack        00010000  20016200  00021ee0  000200c0  2**0
                  ALLOC
  6 .ARM.attributes 0000002e  00000000  00000000  000200b4  2**0
                  CONTENTS, READONLY
  7 .comment      00000059  00000000  00000000  000200e2  2**0
                  CONTENTS, READONLY
  8 .debug_frame  00000990  00000000  00000000  0002013c  2**2
                  CONTENTS, READONLY, DEBUGGING

Disassembly of section .text:

00000000 <exception_table>:
       0:	00 62 02 20 f5 02 00 00 f1 02 00 00 f1 02 00 00     .b. ............
      10:	f1 02 00 00 f1 02 00 00 f1 02 00 00 00 00 00 00     ................
	...
      2c:	e1 84 00 00 f1 02 00 00 00 00 00 00 6d 85 00 00     ............m...
      3c:	cd 85 00 00 f1 02 00 00 f1 02 00 00 f1 02 00 00     ................
      4c:	f1 02 00 00 f1 02 00 00 f1 02 00 00 f1 02 00 00     ................
      5c:	f1 02 00 00 f1 02 00 00 f1 02 00 00 f1 02 00 00     ................
      6c:	f1 02 00 00 35 13 00 00 f1 02 00 00 f1 02 00 00     ....5...........
      7c:	f1 02 00 00 f1 02 00 00 f1 02 00 00 f1 02 00 00     ................
      8c:	3d 13 00 00 f1 02 00 00 f1 02 00 00 f1 02 00 00     =...............
      9c:	f1 02 00 00 f1 02 00 00 f1 02 00 00 f1 02 00 00     ................
      ac:	f1 02 00 00 f1 02 00 00 f1 02 00 00 f1 02 00 00     ................
      bc:	f1 02 00 00 f1 02 00 00 f1 02 00 00 f1 02 00 00     ................
      cc:	f1 02 00 00 f1 02 00 00 f1 02 00 00 f1 02 00 00     ................
      dc:	f1 02 00 00 f1 02 00 00 f1 02 00 00 00 00 00 00     ................
	...
      f4:	79 17 00 00 f1 02 00 00 f1 02 00 00 f1 02 00 00     y...............
     104:	f1 02 00 00 f1 02 00 00 f1 02 00 00 f1 02 00 00     ................
     114:	f1 02 00 00 f1 02 00 00 f1 02 00 00 f1 02 00 00     ................
     124:	f1 02 00 00 f1 02 00 00 f1 02 00 00 f1 02 00 00     ................
     134:	f1 02 00 00 f1 02 00 00 f1 02 00 00 f1 02 00 00     ................
     144:	f1 02 00 00 f1 02 00 00 f1 02 00 00 f1 02 00 00     ................
     154:	f1 02 00 00 f1 02 00 00 f1 02 00 00 f1 02 00 00     ................
     164:	f1 02 00 00 f1 02 00 00 f1 02 00 00 f1 02 00 00     ................
     174:	f1 02 00 00 f1 02 00 00 f1 02 00 00 f1 02 00 00     ................
     184:	f1 02 00 00 f1 02 00 00 f1 02 00 00 65 13 00 00     ............e...
     194:	f1 02 00 00 f1 02 00 00 f1 02 00 00 f1 02 00 00     ................
     1a4:	f1 02 00 00 f1 02 00 00 f1 02 00 00 f1 02 00 00     ................
     1b4:	f1 02 00 00 f1 02 00 00 f1 02 00 00 f1 02 00 00     ................
     1c4:	f1 02 00 00 f1 02 00 00 f1 02 00 00 f1 02 00 00     ................
     1d4:	f1 02 00 00 f1 02 00 00 f1 02 00 00 f1 02 00 00     ................
     1e4:	f1 02 00 00 f1 02 00 00 f5 1a 00 00 f1 02 00 00     ................
     1f4:	f1 02 00 00 f1 02 00 00 05 1b 00 00 15 1b 00 00     ................
     204:	f1 02 00 00 f1 02 00 00 f1 02 00 00 f1 02 00 00     ................
     214:	f1 02 00 00 f1 02 00 00 f1 02 00 00 f1 02 00 00     ................
     224:	f1 02 00 00 f1 02 00 00 f1 02 00 00 f1 02 00 00     ................
     234:	f1 02 00 00 f1 02 00 00 f1 02 00 00 f1 02 00 00     ................
     244:	f1 02 00 00 f1 02 00 00 f1 02 00 00 f1 02 00 00     ................
     254:	f1 02 00 00 f1 02 00 00 f1 02 00 00 f1 02 00 00     ................

00000264 <__do_global_dtors_aux>:
     264:	b510      	push	{r4, lr}
     266:	4c05      	ldr	r4, [pc, #20]	; (27c <__do_global_dtors_aux+0x18>)
     268:	7823      	ldrb	r3, [r4, #0]
     26a:	b933      	cbnz	r3, 27a <__do_global_dtors_aux+0x16>
     26c:	4b04      	ldr	r3, [pc, #16]	; (280 <__do_global_dtors_aux+0x1c>)
     26e:	b113      	cbz	r3, 276 <__do_global_dtors_aux+0x12>
     270:	4804      	ldr	r0, [pc, #16]	; (284 <__do_global_dtors_aux+0x20>)
     272:	f3af 8000 	nop.w
     276:	2301      	movs	r3, #1
     278:	7023      	strb	r3, [r4, #0]
     27a:	bd10      	pop	{r4, pc}
     27c:	200000c0 	.word	0x200000c0
     280:	00000000 	.word	0x00000000
     284:	0000bcc8 	.word	0x0000bcc8

00000288 <frame_dummy>:
     288:	4b0c      	ldr	r3, [pc, #48]	; (2bc <frame_dummy+0x34>)
     28a:	b143      	cbz	r3, 29e <frame_dummy+0x16>
     28c:	480c      	ldr	r0, [pc, #48]	; (2c0 <frame_dummy+0x38>)
     28e:	490d      	ldr	r1, [pc, #52]	; (2c4 <frame_dummy+0x3c>)
     290:	b510      	push	{r4, lr}
     292:	f3af 8000 	nop.w
     296:	480c      	ldr	r0, [pc, #48]	; (2c8 <frame_dummy+0x40>)
     298:	6803      	ldr	r3, [r0, #0]
     29a:	b923      	cbnz	r3, 2a6 <frame_dummy+0x1e>
     29c:	bd10      	pop	{r4, pc}
     29e:	480a      	ldr	r0, [pc, #40]	; (2c8 <frame_dummy+0x40>)
     2a0:	6803      	ldr	r3, [r0, #0]
     2a2:	b933      	cbnz	r3, 2b2 <frame_dummy+0x2a>
     2a4:	4770      	bx	lr
     2a6:	4b09      	ldr	r3, [pc, #36]	; (2cc <frame_dummy+0x44>)
     2a8:	2b00      	cmp	r3, #0
     2aa:	d0f7      	beq.n	29c <frame_dummy+0x14>
     2ac:	e8bd 4010 	ldmia.w	sp!, {r4, lr}
     2b0:	4718      	bx	r3
     2b2:	4b06      	ldr	r3, [pc, #24]	; (2cc <frame_dummy+0x44>)
     2b4:	2b00      	cmp	r3, #0
     2b6:	d0f5      	beq.n	2a4 <frame_dummy+0x1c>
     2b8:	4718      	bx	r3
     2ba:	bf00      	nop
     2bc:	00000000 	.word	0x00000000
     2c0:	0000bcc8 	.word	0x0000bcc8
     2c4:	200000c4 	.word	0x200000c4
     2c8:	0000bcc8 	.word	0x0000bcc8
     2cc:	00000000 	.word	0x00000000

000002d0 <atmel_start_init>:
     2d0:	b510      	push	{r4, lr}
     2d2:	4b04      	ldr	r3, [pc, #16]	; (2e4 <atmel_start_init+0x14>)
     2d4:	4798      	blx	r3
     2d6:	4b04      	ldr	r3, [pc, #16]	; (2e8 <atmel_start_init+0x18>)
     2d8:	4798      	blx	r3
     2da:	4b04      	ldr	r3, [pc, #16]	; (2ec <atmel_start_init+0x1c>)
     2dc:	e8bd 4010 	ldmia.w	sp!, {r4, lr}
     2e0:	4718      	bx	r3
     2e2:	bf00      	nop
     2e4:	0000087d 	.word	0x0000087d
     2e8:	00000d91 	.word	0x00000d91
     2ec:	000083b5 	.word	0x000083b5

000002f0 <Dummy_Handler>:
     2f0:	e7fe      	b.n	2f0 <Dummy_Handler>
	...

000002f4 <Reset_Handler>:
     2f4:	b508      	push	{r3, lr}
     2f6:	4a14      	ldr	r2, [pc, #80]	; (348 <Reset_Handler+0x54>)
     2f8:	4b14      	ldr	r3, [pc, #80]	; (34c <Reset_Handler+0x58>)
     2fa:	429a      	cmp	r2, r3
     2fc:	d118      	bne.n	330 <Reset_Handler+0x3c>
     2fe:	4b14      	ldr	r3, [pc, #80]	; (350 <Reset_Handler+0x5c>)
     300:	4a14      	ldr	r2, [pc, #80]	; (354 <Reset_Handler+0x60>)
     302:	2100      	movs	r1, #0
     304:	4293      	cmp	r3, r2
     306:	d31c      	bcc.n	342 <Reset_Handler+0x4e>
     308:	4a13      	ldr	r2, [pc, #76]	; (358 <Reset_Handler+0x64>)
     30a:	4b14      	ldr	r3, [pc, #80]	; (35c <Reset_Handler+0x68>)
     30c:	f022 027f 	bic.w	r2, r2, #127	; 0x7f
     310:	609a      	str	r2, [r3, #8]
     312:	f8d3 2088 	ldr.w	r2, [r3, #136]	; 0x88
     316:	f442 0270 	orr.w	r2, r2, #15728640	; 0xf00000
     31a:	f8c3 2088 	str.w	r2, [r3, #136]	; 0x88
     31e:	f3bf 8f4f 	dsb	sy
     322:	f3bf 8f6f 	isb	sy
     326:	4b0e      	ldr	r3, [pc, #56]	; (360 <Reset_Handler+0x6c>)
     328:	4798      	blx	r3
     32a:	4b0e      	ldr	r3, [pc, #56]	; (364 <Reset_Handler+0x70>)
     32c:	4798      	blx	r3
     32e:	e7fe      	b.n	32e <Reset_Handler+0x3a>
     330:	490d      	ldr	r1, [pc, #52]	; (368 <Reset_Handler+0x74>)
     332:	3a04      	subs	r2, #4
     334:	428b      	cmp	r3, r1
     336:	d2e2      	bcs.n	2fe <Reset_Handler+0xa>
     338:	f852 0f04 	ldr.w	r0, [r2, #4]!
     33c:	f843 0b04 	str.w	r0, [r3], #4
     340:	e7f8      	b.n	334 <Reset_Handler+0x40>
     342:	f843 1b04 	str.w	r1, [r3], #4
     346:	e7dd      	b.n	304 <Reset_Handler+0x10>
     348:	0000bcc8 	.word	0x0000bcc8
     34c:	20000000 	.word	0x20000000
     350:	200000c0 	.word	0x200000c0
     354:	20016200 	.word	0x20016200
     358:	00000000 	.word	0x00000000
     35c:	e000ed00 	.word	0xe000ed00
     360:	0000a819 	.word	0x0000a819
     364:	00008159 	.word	0x00008159
     368:	200000b4 	.word	0x200000b4

0000036c <SetSafetyLight1On>:
     36c:	4b04      	ldr	r3, [pc, #16]	; (380 <SetSafetyLight1On+0x14>)
     36e:	2201      	movs	r2, #1
     370:	b110      	cbz	r0, 378 <SetSafetyLight1On+0xc>
     372:	f8c3 2098 	str.w	r2, [r3, #152]	; 0x98
     376:	4770      	bx	lr
     378:	f8c3 2094 	str.w	r2, [r3, #148]	; 0x94
     37c:	4770      	bx	lr
     37e:	bf00      	nop
     380:	41008000 	.word	0x41008000

00000384 <SetSafetyLight2On>:
     384:	4b04      	ldr	r3, [pc, #16]	; (398 <SetSafetyLight2On+0x14>)
     386:	2202      	movs	r2, #2
     388:	b110      	cbz	r0, 390 <SetSafetyLight2On+0xc>
     38a:	f8c3 2098 	str.w	r2, [r3, #152]	; 0x98
     38e:	4770      	bx	lr
     390:	f8c3 2094 	str.w	r2, [r3, #148]	; 0x94
     394:	4770      	bx	lr
     396:	bf00      	nop
     398:	41008000 	.word	0x41008000

0000039c <SetSteerDirection>:
     39c:	4b03      	ldr	r3, [pc, #12]	; (3ac <SetSteerDirection+0x10>)
     39e:	2280      	movs	r2, #128	; 0x80
     3a0:	b108      	cbz	r0, 3a6 <SetSteerDirection+0xa>
     3a2:	619a      	str	r2, [r3, #24]
     3a4:	4770      	bx	lr
     3a6:	615a      	str	r2, [r3, #20]
     3a8:	4770      	bx	lr
     3aa:	bf00      	nop
     3ac:	41008000 	.word	0x41008000

000003b0 <SetReverseDrive>:
     3b0:	4b08      	ldr	r3, [pc, #32]	; (3d4 <SetReverseDrive+0x24>)
     3b2:	f04f 4180 	mov.w	r1, #1073741824	; 0x40000000
     3b6:	f44f 6280 	mov.w	r2, #1024	; 0x400
     3ba:	b128      	cbz	r0, 3c8 <SetReverseDrive+0x18>
     3bc:	f8c3 1118 	str.w	r1, [r3, #280]	; 0x118
     3c0:	f8c3 2114 	str.w	r2, [r3, #276]	; 0x114
     3c4:	4b04      	ldr	r3, [pc, #16]	; (3d8 <SetReverseDrive+0x28>)
     3c6:	4718      	bx	r3
     3c8:	f8c3 1114 	str.w	r1, [r3, #276]	; 0x114
     3cc:	f8c3 2118 	str.w	r2, [r3, #280]	; 0x118
     3d0:	e7f8      	b.n	3c4 <SetReverseDrive+0x14>
     3d2:	bf00      	nop
     3d4:	41008000 	.word	0x41008000
     3d8:	00000385 	.word	0x00000385
     3dc:	00000000 	.word	0x00000000

000003e0 <SetSteeringTorque>:
     3e0:	b510      	push	{r4, lr}
     3e2:	ee07 0a90 	vmov	s15, r0
     3e6:	eef5 7ac0 	vcmpe.f32	s15, #0.0
     3ea:	eef1 fa10 	vmrs	APSR_nzcv, fpscr
     3ee:	ed2d 8b02 	vpush	{d8}
     3f2:	eeb7 7a00 	vmov.f32	s14, #112	; 0x3f800000  1.0
     3f6:	d432      	bmi.n	45e <SetSteeringTorque+0x7e>
     3f8:	eef4 7a47 	vcmp.f32	s15, s14
     3fc:	eef1 fa10 	vmrs	APSR_nzcv, fpscr
     400:	bfc8      	it	gt
     402:	eef0 7a47 	vmovgt.f32	s15, s14
     406:	ee77 7a67 	vsub.f32	s15, s14, s15
     40a:	4b19      	ldr	r3, [pc, #100]	; (470 <SetSteeringTorque+0x90>)
     40c:	4c19      	ldr	r4, [pc, #100]	; (474 <SetSteeringTorque+0x94>)
     40e:	ee17 0a90 	vmov	r0, s15
     412:	4798      	blx	r3
     414:	a314      	add	r3, pc, #80	; (adr r3, 468 <SetSteeringTorque+0x88>)
     416:	e9d3 2300 	ldrd	r2, r3, [r3]
     41a:	47a0      	blx	r4
     41c:	4b16      	ldr	r3, [pc, #88]	; (478 <SetSteeringTorque+0x98>)
     41e:	4798      	blx	r3
     420:	eddf 7a16 	vldr	s15, [pc, #88]	; 47c <SetSteeringTorque+0x9c>
     424:	4b16      	ldr	r3, [pc, #88]	; (480 <SetSteeringTorque+0xa0>)
     426:	ee08 0a10 	vmov	s16, r0
     42a:	ee68 7a27 	vmul.f32	s15, s16, s15
     42e:	f44f 71c8 	mov.w	r1, #400	; 0x190
     432:	eefc 7ae7 	vcvt.u32.f32	s15, s15
     436:	4813      	ldr	r0, [pc, #76]	; (484 <SetSteeringTorque+0xa4>)
     438:	ee17 2a90 	vmov	r2, s15
     43c:	4798      	blx	r3
     43e:	4b12      	ldr	r3, [pc, #72]	; (488 <SetSteeringTorque+0xa8>)
     440:	4810      	ldr	r0, [pc, #64]	; (484 <SetSteeringTorque+0xa4>)
     442:	4798      	blx	r3
     444:	eeb5 8ac0 	vcmpe.f32	s16, #0.0
     448:	4b10      	ldr	r3, [pc, #64]	; (48c <SetSteeringTorque+0xac>)
     44a:	eef1 fa10 	vmrs	APSR_nzcv, fpscr
     44e:	f04f 0240 	mov.w	r2, #64	; 0x40
     452:	bfcc      	ite	gt
     454:	619a      	strgt	r2, [r3, #24]
     456:	615a      	strle	r2, [r3, #20]
     458:	ecbd 8b02 	vpop	{d8}
     45c:	bd10      	pop	{r4, pc}
     45e:	eddf 7a0c 	vldr	s15, [pc, #48]	; 490 <SetSteeringTorque+0xb0>
     462:	e7d0      	b.n	406 <SetSteeringTorque+0x26>
     464:	f3af 8000 	nop.w
     468:	33333333 	.word	0x33333333
     46c:	3fe33333 	.word	0x3fe33333
     470:	0000a21d 	.word	0x0000a21d
     474:	0000a2c5 	.word	0x0000a2c5
     478:	0000a779 	.word	0x0000a779
     47c:	43c80000 	.word	0x43c80000
     480:	0000106d 	.word	0x0000106d
     484:	20012928 	.word	0x20012928
     488:	00001049 	.word	0x00001049
     48c:	41008000 	.word	0x41008000
     490:	00000000 	.word	0x00000000

00000494 <SetFrontBrake>:
     494:	ee07 0a10 	vmov	s14, r0
     498:	eddf 7a09 	vldr	s15, [pc, #36]	; 4c0 <SetFrontBrake+0x2c>
     49c:	4b09      	ldr	r3, [pc, #36]	; (4c4 <SetFrontBrake+0x30>)
     49e:	b510      	push	{r4, lr}
     4a0:	ee67 7a27 	vmul.f32	s15, s14, s15
     4a4:	4c08      	ldr	r4, [pc, #32]	; (4c8 <SetFrontBrake+0x34>)
     4a6:	eefc 7ae7 	vcvt.u32.f32	s15, s15
     4aa:	4620      	mov	r0, r4
     4ac:	ee17 2a90 	vmov	r2, s15
     4b0:	f642 61e0 	movw	r1, #12000	; 0x2ee0
     4b4:	4798      	blx	r3
     4b6:	4620      	mov	r0, r4
     4b8:	4b04      	ldr	r3, [pc, #16]	; (4cc <SetFrontBrake+0x38>)
     4ba:	e8bd 4010 	ldmia.w	sp!, {r4, lr}
     4be:	4718      	bx	r3
     4c0:	463b8000 	.word	0x463b8000
     4c4:	0000106d 	.word	0x0000106d
     4c8:	200128c8 	.word	0x200128c8
     4cc:	00001049 	.word	0x00001049

000004d0 <SetAcceleration>:
     4d0:	b508      	push	{r3, lr}
     4d2:	eddf 7a11 	vldr	s15, [pc, #68]	; 518 <SetAcceleration+0x48>
     4d6:	4b11      	ldr	r3, [pc, #68]	; (51c <SetAcceleration+0x4c>)
     4d8:	ed2d 8b02 	vpush	{d8}
     4dc:	ee08 0a10 	vmov	s16, r0
     4e0:	ee68 7a27 	vmul.f32	s15, s16, s15
     4e4:	f642 61e0 	movw	r1, #12000	; 0x2ee0
     4e8:	eefc 7ae7 	vcvt.u32.f32	s15, s15
     4ec:	480c      	ldr	r0, [pc, #48]	; (520 <SetAcceleration+0x50>)
     4ee:	ee17 2a90 	vmov	r2, s15
     4f2:	4798      	blx	r3
     4f4:	4b0b      	ldr	r3, [pc, #44]	; (524 <SetAcceleration+0x54>)
     4f6:	480a      	ldr	r0, [pc, #40]	; (520 <SetAcceleration+0x50>)
     4f8:	4798      	blx	r3
     4fa:	eeb5 8ac0 	vcmpe.f32	s16, #0.0
     4fe:	4b0a      	ldr	r3, [pc, #40]	; (528 <SetAcceleration+0x58>)
     500:	eef1 fa10 	vmrs	APSR_nzcv, fpscr
     504:	f04f 0202 	mov.w	r2, #2
     508:	bfcc      	ite	gt
     50a:	f8c3 2118 	strgt.w	r2, [r3, #280]	; 0x118
     50e:	f8c3 2114 	strle.w	r2, [r3, #276]	; 0x114
     512:	ecbd 8b02 	vpop	{d8}
     516:	bd08      	pop	{r3, pc}
     518:	463b8000 	.word	0x463b8000
     51c:	0000106d 	.word	0x0000106d
     520:	200128f0 	.word	0x200128f0
     524:	00001049 	.word	0x00001049
     528:	41008000 	.word	0x41008000

0000052c <_gpio_set_pin_function>:
     52c:	b530      	push	{r4, r5, lr}
     52e:	1c4a      	adds	r2, r1, #1
     530:	b2c4      	uxtb	r4, r0
     532:	f3c0 1247 	ubfx	r2, r0, #5, #8
     536:	4816      	ldr	r0, [pc, #88]	; (590 <_gpio_set_pin_function+0x64>)
     538:	f004 031f 	and.w	r3, r4, #31
     53c:	eb00 10c2 	add.w	r0, r0, r2, lsl #7
     540:	d107      	bne.n	552 <_gpio_set_pin_function+0x26>
     542:	4418      	add	r0, r3
     544:	f890 3040 	ldrb.w	r3, [r0, #64]	; 0x40
     548:	f003 03fe 	and.w	r3, r3, #254	; 0xfe
     54c:	f880 3040 	strb.w	r3, [r0, #64]	; 0x40
     550:	bd30      	pop	{r4, r5, pc}
     552:	18c5      	adds	r5, r0, r3
     554:	085b      	lsrs	r3, r3, #1
     556:	f895 2040 	ldrb.w	r2, [r5, #64]	; 0x40
     55a:	f002 02fe 	and.w	r2, r2, #254	; 0xfe
     55e:	4418      	add	r0, r3
     560:	f042 0201 	orr.w	r2, r2, #1
     564:	f885 2040 	strb.w	r2, [r5, #64]	; 0x40
     568:	f890 3030 	ldrb.w	r3, [r0, #48]	; 0x30
     56c:	f014 0f01 	tst.w	r4, #1
     570:	bf19      	ittee	ne
     572:	f003 030f 	andne.w	r3, r3, #15
     576:	ea43 1101 	orrne.w	r1, r3, r1, lsl #4
     57a:	f001 010f 	andeq.w	r1, r1, #15
     57e:	f003 03f0 	andeq.w	r3, r3, #240	; 0xf0
     582:	bf14      	ite	ne
     584:	b2c9      	uxtbne	r1, r1
     586:	4319      	orreq	r1, r3
     588:	f880 1030 	strb.w	r1, [r0, #48]	; 0x30
     58c:	bd30      	pop	{r4, r5, pc}
     58e:	bf00      	nop
     590:	41008000 	.word	0x41008000

00000594 <SteeringEncoder_IRQ_init>:
     594:	b570      	push	{r4, r5, r6, lr}
     596:	4b1f      	ldr	r3, [pc, #124]	; (614 <SteeringEncoder_IRQ_init+0x80>)
     598:	4c1f      	ldr	r4, [pc, #124]	; (618 <SteeringEncoder_IRQ_init+0x84>)
     59a:	4e20      	ldr	r6, [pc, #128]	; (61c <SteeringEncoder_IRQ_init+0x88>)
     59c:	4d20      	ldr	r5, [pc, #128]	; (620 <SteeringEncoder_IRQ_init+0x8c>)
     59e:	2240      	movs	r2, #64	; 0x40
     5a0:	f8c3 2090 	str.w	r2, [r3, #144]	; 0x90
     5a4:	4a1f      	ldr	r2, [pc, #124]	; (624 <SteeringEncoder_IRQ_init+0x90>)
     5a6:	6953      	ldr	r3, [r2, #20]
     5a8:	f443 6380 	orr.w	r3, r3, #1024	; 0x400
     5ac:	6153      	str	r3, [r2, #20]
     5ae:	f102 1201 	add.w	r2, r2, #65537	; 0x10001
     5b2:	2301      	movs	r3, #1
     5b4:	f502 4278 	add.w	r2, r2, #63488	; 0xf800
     5b8:	f8c4 3184 	str.w	r3, [r4, #388]	; 0x184
     5bc:	f8c4 21a8 	str.w	r2, [r4, #424]	; 0x1a8
     5c0:	f8c4 61a8 	str.w	r6, [r4, #424]	; 0x1a8
     5c4:	f8c4 3184 	str.w	r3, [r4, #388]	; 0x184
     5c8:	f894 21c0 	ldrb.w	r2, [r4, #448]	; 0x1c0
     5cc:	f042 0204 	orr.w	r2, r2, #4
     5d0:	f884 21c0 	strb.w	r2, [r4, #448]	; 0x1c0
     5d4:	f44f 01c0 	mov.w	r1, #6291456	; 0x600000
     5d8:	f8c4 3198 	str.w	r3, [r4, #408]	; 0x198
     5dc:	2060      	movs	r0, #96	; 0x60
     5de:	47a8      	blx	r5
     5e0:	2380      	movs	r3, #128	; 0x80
     5e2:	4a11      	ldr	r2, [pc, #68]	; (628 <SteeringEncoder_IRQ_init+0x94>)
     5e4:	f8c4 3084 	str.w	r3, [r4, #132]	; 0x84
     5e8:	f8c4 20a8 	str.w	r2, [r4, #168]	; 0xa8
     5ec:	f8c4 60a8 	str.w	r6, [r4, #168]	; 0xa8
     5f0:	f8c4 3084 	str.w	r3, [r4, #132]	; 0x84
     5f4:	f894 20c7 	ldrb.w	r2, [r4, #199]	; 0xc7
     5f8:	f042 0204 	orr.w	r2, r2, #4
     5fc:	f884 20c7 	strb.w	r2, [r4, #199]	; 0xc7
     600:	f44f 111c 	mov.w	r1, #2555904	; 0x270000
     604:	f8c4 3098 	str.w	r3, [r4, #152]	; 0x98
     608:	2027      	movs	r0, #39	; 0x27
     60a:	47a8      	blx	r5
     60c:	4b07      	ldr	r3, [pc, #28]	; (62c <SteeringEncoder_IRQ_init+0x98>)
     60e:	e8bd 4070 	ldmia.w	sp!, {r4, r5, r6, lr}
     612:	4718      	bx	r3
     614:	40001c00 	.word	0x40001c00
     618:	41008000 	.word	0x41008000
     61c:	c0020000 	.word	0xc0020000
     620:	0000052d 	.word	0x0000052d
     624:	40000800 	.word	0x40000800
     628:	40020080 	.word	0x40020080
     62c:	00000ead 	.word	0x00000ead

00000630 <TARGET_IO_PORT_init>:
     630:	b510      	push	{r4, lr}
     632:	4c05      	ldr	r4, [pc, #20]	; (648 <TARGET_IO_PORT_init+0x18>)
     634:	4905      	ldr	r1, [pc, #20]	; (64c <TARGET_IO_PORT_init+0x1c>)
     636:	2039      	movs	r0, #57	; 0x39
     638:	47a0      	blx	r4
     63a:	4623      	mov	r3, r4
     63c:	4904      	ldr	r1, [pc, #16]	; (650 <TARGET_IO_PORT_init+0x20>)
     63e:	2038      	movs	r0, #56	; 0x38
     640:	e8bd 4010 	ldmia.w	sp!, {r4, lr}
     644:	4718      	bx	r3
     646:	bf00      	nop
     648:	0000052d 	.word	0x0000052d
     64c:	00390003 	.word	0x00390003
     650:	00380003 	.word	0x00380003

00000654 <TARGET_IO_CLOCK_init>:
     654:	4b06      	ldr	r3, [pc, #24]	; (670 <TARGET_IO_CLOCK_init+0x1c>)
     656:	2240      	movs	r2, #64	; 0x40
     658:	f8c3 20dc 	str.w	r2, [r3, #220]	; 0xdc
     65c:	2243      	movs	r2, #67	; 0x43
     65e:	f8c3 208c 	str.w	r2, [r3, #140]	; 0x8c
     662:	4a04      	ldr	r2, [pc, #16]	; (674 <TARGET_IO_CLOCK_init+0x20>)
     664:	6993      	ldr	r3, [r2, #24]
     666:	f443 7300 	orr.w	r3, r3, #512	; 0x200
     66a:	6193      	str	r3, [r2, #24]
     66c:	4770      	bx	lr
     66e:	bf00      	nop
     670:	40001c00 	.word	0x40001c00
     674:	40000800 	.word	0x40000800

00000678 <TARGET_IO_init>:
     678:	b510      	push	{r4, lr}
     67a:	4b05      	ldr	r3, [pc, #20]	; (690 <TARGET_IO_init+0x18>)
     67c:	4798      	blx	r3
     67e:	4b05      	ldr	r3, [pc, #20]	; (694 <TARGET_IO_init+0x1c>)
     680:	4905      	ldr	r1, [pc, #20]	; (698 <TARGET_IO_init+0x20>)
     682:	4806      	ldr	r0, [pc, #24]	; (69c <TARGET_IO_init+0x24>)
     684:	2200      	movs	r2, #0
     686:	4798      	blx	r3
     688:	4b05      	ldr	r3, [pc, #20]	; (6a0 <TARGET_IO_init+0x28>)
     68a:	e8bd 4010 	ldmia.w	sp!, {r4, lr}
     68e:	4718      	bx	r3
     690:	00000655 	.word	0x00000655
     694:	00001105 	.word	0x00001105
     698:	41012000 	.word	0x41012000
     69c:	200128e4 	.word	0x200128e4
     6a0:	00000631 	.word	0x00000631

000006a4 <ACCELERATION_PORT_init>:
     6a4:	4901      	ldr	r1, [pc, #4]	; (6ac <ACCELERATION_PORT_init+0x8>)
     6a6:	4b02      	ldr	r3, [pc, #8]	; (6b0 <ACCELERATION_PORT_init+0xc>)
     6a8:	2005      	movs	r0, #5
     6aa:	4718      	bx	r3
     6ac:	00050004 	.word	0x00050004
     6b0:	0000052d 	.word	0x0000052d

000006b4 <ACCELERATION_CLOCK_init>:
     6b4:	4a04      	ldr	r2, [pc, #16]	; (6c8 <ACCELERATION_CLOCK_init+0x14>)
     6b6:	6953      	ldr	r3, [r2, #20]
     6b8:	f443 4380 	orr.w	r3, r3, #16384	; 0x4000
     6bc:	6153      	str	r3, [r2, #20]
     6be:	4b03      	ldr	r3, [pc, #12]	; (6cc <ACCELERATION_CLOCK_init+0x18>)
     6c0:	2240      	movs	r2, #64	; 0x40
     6c2:	f8c3 20a4 	str.w	r2, [r3, #164]	; 0xa4
     6c6:	4770      	bx	lr
     6c8:	40000800 	.word	0x40000800
     6cc:	40001c00 	.word	0x40001c00

000006d0 <ACCELERATION_init>:
     6d0:	b510      	push	{r4, lr}
     6d2:	4b06      	ldr	r3, [pc, #24]	; (6ec <ACCELERATION_init+0x1c>)
     6d4:	4798      	blx	r3
     6d6:	4b06      	ldr	r3, [pc, #24]	; (6f0 <ACCELERATION_init+0x20>)
     6d8:	4798      	blx	r3
     6da:	4b06      	ldr	r3, [pc, #24]	; (6f4 <ACCELERATION_init+0x24>)
     6dc:	4798      	blx	r3
     6de:	4906      	ldr	r1, [pc, #24]	; (6f8 <ACCELERATION_init+0x28>)
     6e0:	4b06      	ldr	r3, [pc, #24]	; (6fc <ACCELERATION_init+0x2c>)
     6e2:	4602      	mov	r2, r0
     6e4:	e8bd 4010 	ldmia.w	sp!, {r4, lr}
     6e8:	4805      	ldr	r0, [pc, #20]	; (700 <ACCELERATION_init+0x30>)
     6ea:	4718      	bx	r3
     6ec:	000006b5 	.word	0x000006b5
     6f0:	000006a5 	.word	0x000006a5
     6f4:	00001af1 	.word	0x00001af1
     6f8:	40003800 	.word	0x40003800
     6fc:	00001029 	.word	0x00001029
     700:	200128f0 	.word	0x200128f0

00000704 <STEERINGPOWER_PORT_init>:
     704:	4901      	ldr	r1, [pc, #4]	; (70c <STEERINGPOWER_PORT_init+0x8>)
     706:	4b02      	ldr	r3, [pc, #8]	; (710 <STEERINGPOWER_PORT_init+0xc>)
     708:	2029      	movs	r0, #41	; 0x29
     70a:	4718      	bx	r3
     70c:	00290004 	.word	0x00290004
     710:	0000052d 	.word	0x0000052d

00000714 <STEERINGPOWER_CLOCK_init>:
     714:	4a04      	ldr	r2, [pc, #16]	; (728 <STEERINGPOWER_CLOCK_init+0x14>)
     716:	69d3      	ldr	r3, [r2, #28]
     718:	f043 0320 	orr.w	r3, r3, #32
     71c:	61d3      	str	r3, [r2, #28]
     71e:	4b03      	ldr	r3, [pc, #12]	; (72c <STEERINGPOWER_CLOCK_init+0x18>)
     720:	2240      	movs	r2, #64	; 0x40
     722:	f8c3 20f8 	str.w	r2, [r3, #248]	; 0xf8
     726:	4770      	bx	lr
     728:	40000800 	.word	0x40000800
     72c:	40001c00 	.word	0x40001c00

00000730 <STEERINGPOWER_init>:
     730:	b510      	push	{r4, lr}
     732:	4b06      	ldr	r3, [pc, #24]	; (74c <STEERINGPOWER_init+0x1c>)
     734:	4798      	blx	r3
     736:	4b06      	ldr	r3, [pc, #24]	; (750 <STEERINGPOWER_init+0x20>)
     738:	4798      	blx	r3
     73a:	4b06      	ldr	r3, [pc, #24]	; (754 <STEERINGPOWER_init+0x24>)
     73c:	4798      	blx	r3
     73e:	4906      	ldr	r1, [pc, #24]	; (758 <STEERINGPOWER_init+0x28>)
     740:	4b06      	ldr	r3, [pc, #24]	; (75c <STEERINGPOWER_init+0x2c>)
     742:	4602      	mov	r2, r0
     744:	e8bd 4010 	ldmia.w	sp!, {r4, lr}
     748:	4805      	ldr	r0, [pc, #20]	; (760 <STEERINGPOWER_init+0x30>)
     74a:	4718      	bx	r3
     74c:	00000715 	.word	0x00000715
     750:	00000705 	.word	0x00000705
     754:	00001af1 	.word	0x00001af1
     758:	42001400 	.word	0x42001400
     75c:	00001029 	.word	0x00001029
     760:	20012928 	.word	0x20012928

00000764 <BRAKE_PORT_init>:
     764:	4901      	ldr	r1, [pc, #4]	; (76c <BRAKE_PORT_init+0x8>)
     766:	4b02      	ldr	r3, [pc, #8]	; (770 <BRAKE_PORT_init+0xc>)
     768:	202f      	movs	r0, #47	; 0x2f
     76a:	4718      	bx	r3
     76c:	002f0004 	.word	0x002f0004
     770:	0000052d 	.word	0x0000052d

00000774 <BRAKE_CLOCK_init>:
     774:	4a04      	ldr	r2, [pc, #16]	; (788 <BRAKE_CLOCK_init+0x14>)
     776:	69d3      	ldr	r3, [r2, #28]
     778:	f043 0340 	orr.w	r3, r3, #64	; 0x40
     77c:	61d3      	str	r3, [r2, #28]
     77e:	4b03      	ldr	r3, [pc, #12]	; (78c <BRAKE_CLOCK_init+0x18>)
     780:	2240      	movs	r2, #64	; 0x40
     782:	f8c3 20f8 	str.w	r2, [r3, #248]	; 0xf8
     786:	4770      	bx	lr
     788:	40000800 	.word	0x40000800
     78c:	40001c00 	.word	0x40001c00

00000790 <BRAKE_init>:
     790:	b510      	push	{r4, lr}
     792:	4b06      	ldr	r3, [pc, #24]	; (7ac <BRAKE_init+0x1c>)
     794:	4798      	blx	r3
     796:	4b06      	ldr	r3, [pc, #24]	; (7b0 <BRAKE_init+0x20>)
     798:	4798      	blx	r3
     79a:	4b06      	ldr	r3, [pc, #24]	; (7b4 <BRAKE_init+0x24>)
     79c:	4798      	blx	r3
     79e:	4906      	ldr	r1, [pc, #24]	; (7b8 <BRAKE_init+0x28>)
     7a0:	4b06      	ldr	r3, [pc, #24]	; (7bc <BRAKE_init+0x2c>)
     7a2:	4602      	mov	r2, r0
     7a4:	e8bd 4010 	ldmia.w	sp!, {r4, lr}
     7a8:	4805      	ldr	r0, [pc, #20]	; (7c0 <BRAKE_init+0x30>)
     7aa:	4718      	bx	r3
     7ac:	00000775 	.word	0x00000775
     7b0:	00000765 	.word	0x00000765
     7b4:	00001af1 	.word	0x00001af1
     7b8:	42001800 	.word	0x42001800
     7bc:	00001029 	.word	0x00001029
     7c0:	200128c8 	.word	0x200128c8

000007c4 <COMMUNICATION_IO_PORT_init>:
     7c4:	b510      	push	{r4, lr}
     7c6:	4911      	ldr	r1, [pc, #68]	; (80c <COMMUNICATION_IO_PORT_init+0x48>)
     7c8:	4c11      	ldr	r4, [pc, #68]	; (810 <COMMUNICATION_IO_PORT_init+0x4c>)
     7ca:	204b      	movs	r0, #75	; 0x4b
     7cc:	47a0      	blx	r4
     7ce:	4911      	ldr	r1, [pc, #68]	; (814 <COMMUNICATION_IO_PORT_init+0x50>)
     7d0:	204c      	movs	r0, #76	; 0x4c
     7d2:	47a0      	blx	r4
     7d4:	4910      	ldr	r1, [pc, #64]	; (818 <COMMUNICATION_IO_PORT_init+0x54>)
     7d6:	200d      	movs	r0, #13
     7d8:	47a0      	blx	r4
     7da:	4910      	ldr	r1, [pc, #64]	; (81c <COMMUNICATION_IO_PORT_init+0x58>)
     7dc:	200c      	movs	r0, #12
     7de:	47a0      	blx	r4
     7e0:	490f      	ldr	r1, [pc, #60]	; (820 <COMMUNICATION_IO_PORT_init+0x5c>)
     7e2:	2054      	movs	r0, #84	; 0x54
     7e4:	47a0      	blx	r4
     7e6:	490f      	ldr	r1, [pc, #60]	; (824 <COMMUNICATION_IO_PORT_init+0x60>)
     7e8:	200f      	movs	r0, #15
     7ea:	47a0      	blx	r4
     7ec:	490e      	ldr	r1, [pc, #56]	; (828 <COMMUNICATION_IO_PORT_init+0x64>)
     7ee:	2012      	movs	r0, #18
     7f0:	47a0      	blx	r4
     7f2:	490e      	ldr	r1, [pc, #56]	; (82c <COMMUNICATION_IO_PORT_init+0x68>)
     7f4:	2013      	movs	r0, #19
     7f6:	47a0      	blx	r4
     7f8:	490d      	ldr	r1, [pc, #52]	; (830 <COMMUNICATION_IO_PORT_init+0x6c>)
     7fa:	200e      	movs	r0, #14
     7fc:	47a0      	blx	r4
     7fe:	4623      	mov	r3, r4
     800:	490c      	ldr	r1, [pc, #48]	; (834 <COMMUNICATION_IO_PORT_init+0x70>)
     802:	2011      	movs	r0, #17
     804:	e8bd 4010 	ldmia.w	sp!, {r4, lr}
     808:	4718      	bx	r3
     80a:	bf00      	nop
     80c:	004b000b 	.word	0x004b000b
     810:	0000052d 	.word	0x0000052d
     814:	004c000b 	.word	0x004c000b
     818:	000d000b 	.word	0x000d000b
     81c:	000c000b 	.word	0x000c000b
     820:	0054000b 	.word	0x0054000b
     824:	000f000b 	.word	0x000f000b
     828:	0012000b 	.word	0x0012000b
     82c:	0013000b 	.word	0x0013000b
     830:	000e000b 	.word	0x000e000b
     834:	0011000b 	.word	0x0011000b

00000838 <COMMUNICATION_IO_CLOCK_init>:
     838:	4b04      	ldr	r3, [pc, #16]	; (84c <COMMUNICATION_IO_CLOCK_init+0x14>)
     83a:	691a      	ldr	r2, [r3, #16]
     83c:	f442 4280 	orr.w	r2, r2, #16384	; 0x4000
     840:	611a      	str	r2, [r3, #16]
     842:	69da      	ldr	r2, [r3, #28]
     844:	f042 0204 	orr.w	r2, r2, #4
     848:	61da      	str	r2, [r3, #28]
     84a:	4770      	bx	lr
     84c:	40000800 	.word	0x40000800

00000850 <COMMUNICATION_IO_init>:
     850:	b510      	push	{r4, lr}
     852:	4b05      	ldr	r3, [pc, #20]	; (868 <COMMUNICATION_IO_init+0x18>)
     854:	4798      	blx	r3
     856:	4b05      	ldr	r3, [pc, #20]	; (86c <COMMUNICATION_IO_init+0x1c>)
     858:	4905      	ldr	r1, [pc, #20]	; (870 <COMMUNICATION_IO_init+0x20>)
     85a:	4806      	ldr	r0, [pc, #24]	; (874 <COMMUNICATION_IO_init+0x24>)
     85c:	4798      	blx	r3
     85e:	4b06      	ldr	r3, [pc, #24]	; (878 <COMMUNICATION_IO_init+0x28>)
     860:	e8bd 4010 	ldmia.w	sp!, {r4, lr}
     864:	4718      	bx	r3
     866:	bf00      	nop
     868:	00000839 	.word	0x00000839
     86c:	00000fa1 	.word	0x00000fa1
     870:	42000800 	.word	0x42000800
     874:	2001290c 	.word	0x2001290c
     878:	000007c5 	.word	0x000007c5

0000087c <system_init>:
     87c:	b510      	push	{r4, lr}
     87e:	4b4c      	ldr	r3, [pc, #304]	; (9b0 <system_init+0x134>)
     880:	4c4c      	ldr	r4, [pc, #304]	; (9b4 <system_init+0x138>)
     882:	4798      	blx	r3
     884:	4b4c      	ldr	r3, [pc, #304]	; (9b8 <system_init+0x13c>)
     886:	2240      	movs	r2, #64	; 0x40
     888:	615a      	str	r2, [r3, #20]
     88a:	609a      	str	r2, [r3, #8]
     88c:	f102 4280 	add.w	r2, r2, #1073741824	; 0x40000000
     890:	629a      	str	r2, [r3, #40]	; 0x28
     892:	f04f 4240 	mov.w	r2, #3221225472	; 0xc0000000
     896:	629a      	str	r2, [r3, #40]	; 0x28
     898:	f893 1046 	ldrb.w	r1, [r3, #70]	; 0x46
     89c:	f001 01fe 	and.w	r1, r1, #254	; 0xfe
     8a0:	f883 1046 	strb.w	r1, [r3, #70]	; 0x46
     8a4:	2180      	movs	r1, #128	; 0x80
     8a6:	6159      	str	r1, [r3, #20]
     8a8:	6099      	str	r1, [r3, #8]
     8aa:	f101 4180 	add.w	r1, r1, #1073741824	; 0x40000000
     8ae:	6299      	str	r1, [r3, #40]	; 0x28
     8b0:	629a      	str	r2, [r3, #40]	; 0x28
     8b2:	f893 1047 	ldrb.w	r1, [r3, #71]	; 0x47
     8b6:	f001 01fe 	and.w	r1, r1, #254	; 0xfe
     8ba:	f883 1047 	strb.w	r1, [r3, #71]	; 0x47
     8be:	2102      	movs	r1, #2
     8c0:	f8c3 1094 	str.w	r1, [r3, #148]	; 0x94
     8c4:	f8c3 1088 	str.w	r1, [r3, #136]	; 0x88
     8c8:	f8c3 40a8 	str.w	r4, [r3, #168]	; 0xa8
     8cc:	f8c3 20a8 	str.w	r2, [r3, #168]	; 0xa8
     8d0:	f893 00c1 	ldrb.w	r0, [r3, #193]	; 0xc1
     8d4:	f000 00fe 	and.w	r0, r0, #254	; 0xfe
     8d8:	f883 00c1 	strb.w	r0, [r3, #193]	; 0xc1
     8dc:	2001      	movs	r0, #1
     8de:	f8c3 0094 	str.w	r0, [r3, #148]	; 0x94
     8e2:	f8c3 0088 	str.w	r0, [r3, #136]	; 0x88
     8e6:	f100 4080 	add.w	r0, r0, #1073741824	; 0x40000000
     8ea:	f8c3 00a8 	str.w	r0, [r3, #168]	; 0xa8
     8ee:	f8c3 20a8 	str.w	r2, [r3, #168]	; 0xa8
     8f2:	f893 00c0 	ldrb.w	r0, [r3, #192]	; 0xc0
     8f6:	f000 00fe 	and.w	r0, r0, #254	; 0xfe
     8fa:	f883 00c0 	strb.w	r0, [r3, #192]	; 0xc0
     8fe:	f8c3 1114 	str.w	r1, [r3, #276]	; 0x114
     902:	f8c3 1108 	str.w	r1, [r3, #264]	; 0x108
     906:	f8c3 4128 	str.w	r4, [r3, #296]	; 0x128
     90a:	f8c3 2128 	str.w	r2, [r3, #296]	; 0x128
     90e:	f893 1141 	ldrb.w	r1, [r3, #321]	; 0x141
     912:	482a      	ldr	r0, [pc, #168]	; (9bc <system_init+0x140>)
     914:	f001 01fe 	and.w	r1, r1, #254	; 0xfe
     918:	f883 1141 	strb.w	r1, [r3, #321]	; 0x141
     91c:	2108      	movs	r1, #8
     91e:	f8c3 1104 	str.w	r1, [r3, #260]	; 0x104
     922:	f8c3 0128 	str.w	r0, [r3, #296]	; 0x128
     926:	4826      	ldr	r0, [pc, #152]	; (9c0 <system_init+0x144>)
     928:	f8c3 0128 	str.w	r0, [r3, #296]	; 0x128
     92c:	f8c3 1104 	str.w	r1, [r3, #260]	; 0x104
     930:	f893 0143 	ldrb.w	r0, [r3, #323]	; 0x143
     934:	f040 0004 	orr.w	r0, r0, #4
     938:	f883 0143 	strb.w	r0, [r3, #323]	; 0x143
     93c:	f8c3 1114 	str.w	r1, [r3, #276]	; 0x114
     940:	f893 1143 	ldrb.w	r1, [r3, #323]	; 0x143
     944:	f001 01fe 	and.w	r1, r1, #254	; 0xfe
     948:	f883 1143 	strb.w	r1, [r3, #323]	; 0x143
     94c:	f44f 6180 	mov.w	r1, #1024	; 0x400
     950:	f8c3 1114 	str.w	r1, [r3, #276]	; 0x114
     954:	f8c3 1108 	str.w	r1, [r3, #264]	; 0x108
     958:	f101 4180 	add.w	r1, r1, #1073741824	; 0x40000000
     95c:	f8c3 1128 	str.w	r1, [r3, #296]	; 0x128
     960:	f8c3 2128 	str.w	r2, [r3, #296]	; 0x128
     964:	f893 214a 	ldrb.w	r2, [r3, #330]	; 0x14a
     968:	f002 02fe 	and.w	r2, r2, #254	; 0xfe
     96c:	f883 214a 	strb.w	r2, [r3, #330]	; 0x14a
     970:	f04f 4280 	mov.w	r2, #1073741824	; 0x40000000
     974:	f8c3 2114 	str.w	r2, [r3, #276]	; 0x114
     978:	f8c3 2108 	str.w	r2, [r3, #264]	; 0x108
     97c:	f8c3 2128 	str.w	r2, [r3, #296]	; 0x128
     980:	4a10      	ldr	r2, [pc, #64]	; (9c4 <system_init+0x148>)
     982:	f8c3 2128 	str.w	r2, [r3, #296]	; 0x128
     986:	f893 215e 	ldrb.w	r2, [r3, #350]	; 0x15e
     98a:	f002 02fe 	and.w	r2, r2, #254	; 0xfe
     98e:	f883 215e 	strb.w	r2, [r3, #350]	; 0x15e
     992:	4b0d      	ldr	r3, [pc, #52]	; (9c8 <system_init+0x14c>)
     994:	4798      	blx	r3
     996:	4b0d      	ldr	r3, [pc, #52]	; (9cc <system_init+0x150>)
     998:	4798      	blx	r3
     99a:	4b0d      	ldr	r3, [pc, #52]	; (9d0 <system_init+0x154>)
     99c:	4798      	blx	r3
     99e:	4b0d      	ldr	r3, [pc, #52]	; (9d4 <system_init+0x158>)
     9a0:	4798      	blx	r3
     9a2:	4b0d      	ldr	r3, [pc, #52]	; (9d8 <system_init+0x15c>)
     9a4:	4798      	blx	r3
     9a6:	4b0d      	ldr	r3, [pc, #52]	; (9dc <system_init+0x160>)
     9a8:	e8bd 4010 	ldmia.w	sp!, {r4, lr}
     9ac:	4718      	bx	r3
     9ae:	bf00      	nop
     9b0:	0000116d 	.word	0x0000116d
     9b4:	40000002 	.word	0x40000002
     9b8:	41008000 	.word	0x41008000
     9bc:	40020008 	.word	0x40020008
     9c0:	c0020000 	.word	0xc0020000
     9c4:	c0004000 	.word	0xc0004000
     9c8:	00000595 	.word	0x00000595
     9cc:	00000679 	.word	0x00000679
     9d0:	000006d1 	.word	0x000006d1
     9d4:	00000731 	.word	0x00000731
     9d8:	00000791 	.word	0x00000791
     9dc:	00000851 	.word	0x00000851

000009e0 <InitializeLWIP>:
     9e0:	b537      	push	{r0, r1, r2, r4, r5, lr}
     9e2:	4d0c      	ldr	r5, [pc, #48]	; (a14 <InitializeLWIP+0x34>)
     9e4:	682c      	ldr	r4, [r5, #0]
     9e6:	b994      	cbnz	r4, a0e <InitializeLWIP+0x2e>
     9e8:	4621      	mov	r1, r4
     9ea:	4b0b      	ldr	r3, [pc, #44]	; (a18 <InitializeLWIP+0x38>)
     9ec:	a801      	add	r0, sp, #4
     9ee:	4798      	blx	r3
     9f0:	a901      	add	r1, sp, #4
     9f2:	480a      	ldr	r0, [pc, #40]	; (a1c <InitializeLWIP+0x3c>)
     9f4:	4b0a      	ldr	r3, [pc, #40]	; (a20 <InitializeLWIP+0x40>)
     9f6:	4798      	blx	r3
     9f8:	4621      	mov	r1, r4
     9fa:	4b0a      	ldr	r3, [pc, #40]	; (a24 <InitializeLWIP+0x44>)
     9fc:	a801      	add	r0, sp, #4
     9fe:	4798      	blx	r3
     a00:	a801      	add	r0, sp, #4
     a02:	4b09      	ldr	r3, [pc, #36]	; (a28 <InitializeLWIP+0x48>)
     a04:	4798      	blx	r3
     a06:	4b09      	ldr	r3, [pc, #36]	; (a2c <InitializeLWIP+0x4c>)
     a08:	4798      	blx	r3
     a0a:	2301      	movs	r3, #1
     a0c:	602b      	str	r3, [r5, #0]
     a0e:	2000      	movs	r0, #0
     a10:	b003      	add	sp, #12
     a12:	bd30      	pop	{r4, r5, pc}
     a14:	200000dc 	.word	0x200000dc
     a18:	00001c79 	.word	0x00001c79
     a1c:	00009e59 	.word	0x00009e59
     a20:	000033dd 	.word	0x000033dd
     a24:	00001cf9 	.word	0x00001cf9
     a28:	00001d91 	.word	0x00001d91
     a2c:	00007fa9 	.word	0x00007fa9

00000a30 <decode_ethernet_inputs>:
     a30:	8883      	ldrh	r3, [r0, #4]
     a32:	ed9f 7a47 	vldr	s14, [pc, #284]	; b50 <decode_ethernet_inputs+0x120>
     a36:	ee07 3a90 	vmov	s15, r3
     a3a:	eef8 7a67 	vcvt.f32.u32	s15, s15
     a3e:	8843      	ldrh	r3, [r0, #2]
     a40:	ee77 7ac7 	vsub.f32	s15, s15, s14
     a44:	e92d 41f0 	stmdb	sp!, {r4, r5, r6, r7, r8, lr}
     a48:	eec7 6a87 	vdiv.f32	s13, s15, s14
     a4c:	4605      	mov	r5, r0
     a4e:	f8df 8110 	ldr.w	r8, [pc, #272]	; b60 <decode_ethernet_inputs+0x130>
     a52:	4f40      	ldr	r7, [pc, #256]	; (b54 <decode_ethernet_inputs+0x124>)
     a54:	4e40      	ldr	r6, [pc, #256]	; (b58 <decode_ethernet_inputs+0x128>)
     a56:	460c      	mov	r4, r1
     a58:	ee07 3a90 	vmov	s15, r3
     a5c:	edc1 6a04 	vstr	s13, [r1, #16]
     a60:	eef8 7a67 	vcvt.f32.u32	s15, s15
     a64:	eddf 6a3d 	vldr	s13, [pc, #244]	; b5c <decode_ethernet_inputs+0x12c>
     a68:	8803      	ldrh	r3, [r0, #0]
     a6a:	ee87 7aa6 	vdiv.f32	s14, s15, s13
     a6e:	f003 0201 	and.w	r2, r3, #1
     a72:	750a      	strb	r2, [r1, #20]
     a74:	f3c3 0240 	ubfx	r2, r3, #1, #1
     a78:	754a      	strb	r2, [r1, #21]
     a7a:	f3c3 0280 	ubfx	r2, r3, #2, #1
     a7e:	758a      	strb	r2, [r1, #22]
     a80:	f3c3 02c0 	ubfx	r2, r3, #3, #1
     a84:	f3c3 1300 	ubfx	r3, r3, #4, #1
     a88:	f881 2168 	strb.w	r2, [r1, #360]	; 0x168
     a8c:	f881 3028 	strb.w	r3, [r1, #40]	; 0x28
     a90:	edd0 7a02 	vldr	s15, [r0, #8]
     a94:	ed81 7a03 	vstr	s14, [r1, #12]
     a98:	eef8 7a67 	vcvt.f32.u32	s15, s15
     a9c:	ee17 0a90 	vmov	r0, s15
     aa0:	47c0      	blx	r8
     aa2:	a329      	add	r3, pc, #164	; (adr r3, b48 <decode_ethernet_inputs+0x118>)
     aa4:	e9d3 2300 	ldrd	r2, r3, [r3]
     aa8:	47b8      	blx	r7
     aaa:	47b0      	blx	r6
     aac:	edd5 7a03 	vldr	s15, [r5, #12]
     ab0:	f8c4 0178 	str.w	r0, [r4, #376]	; 0x178
     ab4:	eef8 7a67 	vcvt.f32.u32	s15, s15
     ab8:	ee17 0a90 	vmov	r0, s15
     abc:	47c0      	blx	r8
     abe:	a322      	add	r3, pc, #136	; (adr r3, b48 <decode_ethernet_inputs+0x118>)
     ac0:	e9d3 2300 	ldrd	r2, r3, [r3]
     ac4:	47b8      	blx	r7
     ac6:	47b0      	blx	r6
     ac8:	edd5 7a04 	vldr	s15, [r5, #16]
     acc:	f8c4 017c 	str.w	r0, [r4, #380]	; 0x17c
     ad0:	eef8 7a67 	vcvt.f32.u32	s15, s15
     ad4:	ee17 0a90 	vmov	r0, s15
     ad8:	47c0      	blx	r8
     ada:	a31b      	add	r3, pc, #108	; (adr r3, b48 <decode_ethernet_inputs+0x118>)
     adc:	e9d3 2300 	ldrd	r2, r3, [r3]
     ae0:	47b8      	blx	r7
     ae2:	47b0      	blx	r6
     ae4:	edd5 7a05 	vldr	s15, [r5, #20]
     ae8:	f8c4 0180 	str.w	r0, [r4, #384]	; 0x180
     aec:	eef8 7a67 	vcvt.f32.u32	s15, s15
     af0:	ee17 0a90 	vmov	r0, s15
     af4:	47c0      	blx	r8
     af6:	a314      	add	r3, pc, #80	; (adr r3, b48 <decode_ethernet_inputs+0x118>)
     af8:	e9d3 2300 	ldrd	r2, r3, [r3]
     afc:	47b8      	blx	r7
     afe:	47b0      	blx	r6
     b00:	edd5 7a06 	vldr	s15, [r5, #24]
     b04:	f8c4 016c 	str.w	r0, [r4, #364]	; 0x16c
     b08:	eef8 7a67 	vcvt.f32.u32	s15, s15
     b0c:	ee17 0a90 	vmov	r0, s15
     b10:	47c0      	blx	r8
     b12:	a30d      	add	r3, pc, #52	; (adr r3, b48 <decode_ethernet_inputs+0x118>)
     b14:	e9d3 2300 	ldrd	r2, r3, [r3]
     b18:	47b8      	blx	r7
     b1a:	47b0      	blx	r6
     b1c:	f8c4 0170 	str.w	r0, [r4, #368]	; 0x170
     b20:	69e8      	ldr	r0, [r5, #28]
     b22:	ee07 0a90 	vmov	s15, r0
     b26:	eef8 7a67 	vcvt.f32.u32	s15, s15
     b2a:	ee17 0a90 	vmov	r0, s15
     b2e:	47c0      	blx	r8
     b30:	a305      	add	r3, pc, #20	; (adr r3, b48 <decode_ethernet_inputs+0x118>)
     b32:	e9d3 2300 	ldrd	r2, r3, [r3]
     b36:	47b8      	blx	r7
     b38:	47b0      	blx	r6
     b3a:	f8c4 0174 	str.w	r0, [r4, #372]	; 0x174
     b3e:	e8bd 81f0 	ldmia.w	sp!, {r4, r5, r6, r7, r8, pc}
     b42:	bf00      	nop
     b44:	f3af 8000 	nop.w
     b48:	a0b5ed8d 	.word	0xa0b5ed8d
     b4c:	3eb0c6f7 	.word	0x3eb0c6f7
     b50:	46fffe00 	.word	0x46fffe00
     b54:	0000a2c5 	.word	0x0000a2c5
     b58:	0000a779 	.word	0x0000a779
     b5c:	477fff00 	.word	0x477fff00
     b60:	0000a21d 	.word	0x0000a21d

00000b64 <encode_ethernet_outputs>:
     b64:	edd1 7a07 	vldr	s15, [r1, #28]
     b68:	ed9f 7a19 	vldr	s14, [pc, #100]	; bd0 <encode_ethernet_outputs+0x6c>
     b6c:	eefc 7ae7 	vcvt.u32.f32	s15, s15
     b70:	b570      	push	{r4, r5, r6, lr}
     b72:	ee17 3a90 	vmov	r3, s15
     b76:	edd1 7a06 	vldr	s15, [r1, #24]
     b7a:	8043      	strh	r3, [r0, #2]
     b7c:	ee67 7a87 	vmul.f32	s15, s15, s14
     b80:	4604      	mov	r4, r0
     b82:	eefc 7ae7 	vcvt.u32.f32	s15, s15
     b86:	460d      	mov	r5, r1
     b88:	ee17 3a90 	vmov	r3, s15
     b8c:	8003      	strh	r3, [r0, #0]
     b8e:	f891 3023 	ldrb.w	r3, [r1, #35]	; 0x23
     b92:	4e10      	ldr	r6, [pc, #64]	; (bd4 <encode_ethernet_outputs+0x70>)
     b94:	3300      	adds	r3, #0
     b96:	bf18      	it	ne
     b98:	2301      	movne	r3, #1
     b9a:	7103      	strb	r3, [r0, #4]
     b9c:	e9d1 0144 	ldrd	r0, r1, [r1, #272]	; 0x110
     ba0:	47b0      	blx	r6
     ba2:	60a0      	str	r0, [r4, #8]
     ba4:	e9d5 0146 	ldrd	r0, r1, [r5, #280]	; 0x118
     ba8:	47b0      	blx	r6
     baa:	60e0      	str	r0, [r4, #12]
     bac:	e9d5 0148 	ldrd	r0, r1, [r5, #288]	; 0x120
     bb0:	47b0      	blx	r6
     bb2:	6120      	str	r0, [r4, #16]
     bb4:	e9d5 011e 	ldrd	r0, r1, [r5, #120]	; 0x78
     bb8:	47b0      	blx	r6
     bba:	6160      	str	r0, [r4, #20]
     bbc:	e9d5 0120 	ldrd	r0, r1, [r5, #128]	; 0x80
     bc0:	47b0      	blx	r6
     bc2:	61a0      	str	r0, [r4, #24]
     bc4:	e9d5 0122 	ldrd	r0, r1, [r5, #136]	; 0x88
     bc8:	47b0      	blx	r6
     bca:	61e0      	str	r0, [r4, #28]
     bcc:	bd70      	pop	{r4, r5, r6, pc}
     bce:	bf00      	nop
     bd0:	42c80000 	.word	0x42c80000
     bd4:	0000a739 	.word	0x0000a739

00000bd8 <ethernet_thread>:
     bd8:	e92d 4ff0 	stmdb	sp!, {r4, r5, r6, r7, r8, r9, sl, fp, lr}
     bdc:	b0ad      	sub	sp, #180	; 0xb4
     bde:	4e46      	ldr	r6, [pc, #280]	; (cf8 <ethernet_thread+0x120>)
     be0:	f8df a144 	ldr.w	sl, [pc, #324]	; d28 <ethernet_thread+0x150>
     be4:	f8df 9144 	ldr.w	r9, [pc, #324]	; d2c <ethernet_thread+0x154>
     be8:	2220      	movs	r2, #32
     bea:	2100      	movs	r1, #0
     bec:	4604      	mov	r4, r0
     bee:	a80c      	add	r0, sp, #48	; 0x30
     bf0:	47b0      	blx	r6
     bf2:	2220      	movs	r2, #32
     bf4:	2100      	movs	r1, #0
     bf6:	a814      	add	r0, sp, #80	; 0x50
     bf8:	47b0      	blx	r6
     bfa:	ad2c      	add	r5, sp, #176	; 0xb0
     bfc:	4b3f      	ldr	r3, [pc, #252]	; (cfc <ethernet_thread+0x124>)
     bfe:	4798      	blx	r3
     c00:	2102      	movs	r1, #2
     c02:	2301      	movs	r3, #1
     c04:	f845 3da4 	str.w	r3, [r5, #-164]!
     c08:	2200      	movs	r2, #0
     c0a:	4608      	mov	r0, r1
     c0c:	4b3c      	ldr	r3, [pc, #240]	; (d00 <ethernet_thread+0x128>)
     c0e:	4798      	blx	r3
     c10:	2304      	movs	r3, #4
     c12:	9300      	str	r3, [sp, #0]
     c14:	f44f 7201 	mov.w	r2, #516	; 0x204
     c18:	462b      	mov	r3, r5
     c1a:	f640 71ff 	movw	r1, #4095	; 0xfff
     c1e:	4d39      	ldr	r5, [pc, #228]	; (d04 <ethernet_thread+0x12c>)
     c20:	4607      	mov	r7, r0
     c22:	f10d 0820 	add.w	r8, sp, #32
     c26:	47a8      	blx	r5
     c28:	2510      	movs	r5, #16
     c2a:	462a      	mov	r2, r5
     c2c:	2100      	movs	r1, #0
     c2e:	4640      	mov	r0, r8
     c30:	47b0      	blx	r6
     c32:	f04f 0b02 	mov.w	fp, #2
     c36:	f04f 30ff 	mov.w	r0, #4294967295
     c3a:	f88d b021 	strb.w	fp, [sp, #33]	; 0x21
     c3e:	47d0      	blx	sl
     c40:	9009      	str	r0, [sp, #36]	; 0x24
     c42:	f642 7039 	movw	r0, #12089	; 0x2f39
     c46:	47c8      	blx	r9
     c48:	462a      	mov	r2, r5
     c4a:	2100      	movs	r1, #0
     c4c:	f8ad 0022 	strh.w	r0, [sp, #34]	; 0x22
     c50:	eb0d 0005 	add.w	r0, sp, r5
     c54:	f88d 5020 	strb.w	r5, [sp, #32]
     c58:	47b0      	blx	r6
     c5a:	2000      	movs	r0, #0
     c5c:	f88d b011 	strb.w	fp, [sp, #17]
     c60:	47d0      	blx	sl
     c62:	9005      	str	r0, [sp, #20]
     c64:	f642 703a 	movw	r0, #12090	; 0x2f3a
     c68:	47c8      	blx	r9
     c6a:	462a      	mov	r2, r5
     c6c:	f8ad 0012 	strh.w	r0, [sp, #18]
     c70:	eb0d 0105 	add.w	r1, sp, r5
     c74:	4638      	mov	r0, r7
     c76:	4b24      	ldr	r3, [pc, #144]	; (d08 <ethernet_thread+0x130>)
     c78:	f88d 5010 	strb.w	r5, [sp, #16]
     c7c:	4798      	blx	r3
     c7e:	2800      	cmp	r0, #0
     c80:	db36      	blt.n	cf0 <ethernet_thread+0x118>
     c82:	f8df 90ac 	ldr.w	r9, [pc, #172]	; d30 <ethernet_thread+0x158>
     c86:	4d21      	ldr	r5, [pc, #132]	; (d0c <ethernet_thread+0x134>)
     c88:	f8df a0a8 	ldr.w	sl, [pc, #168]	; d34 <ethernet_thread+0x15c>
     c8c:	6820      	ldr	r0, [r4, #0]
     c8e:	2300      	movs	r3, #0
     c90:	2264      	movs	r2, #100	; 0x64
     c92:	4619      	mov	r1, r3
     c94:	47c8      	blx	r9
     c96:	2801      	cmp	r0, #1
     c98:	d002      	beq.n	ca0 <ethernet_thread+0xc8>
     c9a:	2001      	movs	r0, #1
     c9c:	47a8      	blx	r5
     c9e:	e7f5      	b.n	c8c <ethernet_thread+0xb4>
     ca0:	4621      	mov	r1, r4
     ca2:	a814      	add	r0, sp, #80	; 0x50
     ca4:	47d0      	blx	sl
     ca6:	2310      	movs	r3, #16
     ca8:	9301      	str	r3, [sp, #4]
     caa:	2220      	movs	r2, #32
     cac:	2300      	movs	r3, #0
     cae:	a914      	add	r1, sp, #80	; 0x50
     cb0:	4e17      	ldr	r6, [pc, #92]	; (d10 <ethernet_thread+0x138>)
     cb2:	f8cd 8000 	str.w	r8, [sp]
     cb6:	4638      	mov	r0, r7
     cb8:	47b0      	blx	r6
     cba:	2240      	movs	r2, #64	; 0x40
     cbc:	2308      	movs	r3, #8
     cbe:	a91c      	add	r1, sp, #112	; 0x70
     cc0:	4638      	mov	r0, r7
     cc2:	4e14      	ldr	r6, [pc, #80]	; (d14 <ethernet_thread+0x13c>)
     cc4:	47b0      	blx	r6
     cc6:	1e02      	subs	r2, r0, #0
     cc8:	dd0a      	ble.n	ce0 <ethernet_thread+0x108>
     cca:	a91c      	add	r1, sp, #112	; 0x70
     ccc:	4b12      	ldr	r3, [pc, #72]	; (d18 <ethernet_thread+0x140>)
     cce:	a80c      	add	r0, sp, #48	; 0x30
     cd0:	4798      	blx	r3
     cd2:	4b12      	ldr	r3, [pc, #72]	; (d1c <ethernet_thread+0x144>)
     cd4:	4798      	blx	r3
     cd6:	4621      	mov	r1, r4
     cd8:	6060      	str	r0, [r4, #4]
     cda:	4b11      	ldr	r3, [pc, #68]	; (d20 <ethernet_thread+0x148>)
     cdc:	a80c      	add	r0, sp, #48	; 0x30
     cde:	4798      	blx	r3
     ce0:	2300      	movs	r3, #0
     ce2:	461a      	mov	r2, r3
     ce4:	4619      	mov	r1, r3
     ce6:	6820      	ldr	r0, [r4, #0]
     ce8:	4e0e      	ldr	r6, [pc, #56]	; (d24 <ethernet_thread+0x14c>)
     cea:	47b0      	blx	r6
     cec:	200a      	movs	r0, #10
     cee:	e7d5      	b.n	c9c <ethernet_thread+0xc4>
     cf0:	b02d      	add	sp, #180	; 0xb4
     cf2:	e8bd 8ff0 	ldmia.w	sp!, {r4, r5, r6, r7, r8, r9, sl, fp, pc}
     cf6:	bf00      	nop
     cf8:	0000a8a5 	.word	0x0000a8a5
     cfc:	000009e1 	.word	0x000009e1
     d00:	000030ed 	.word	0x000030ed
     d04:	00003169 	.word	0x00003169
     d08:	00002d5d 	.word	0x00002d5d
     d0c:	000095bd 	.word	0x000095bd
     d10:	00002fa9 	.word	0x00002fa9
     d14:	00002f95 	.word	0x00002f95
     d18:	0000a88f 	.word	0x0000a88f
     d1c:	000093cd 	.word	0x000093cd
     d20:	00000a31 	.word	0x00000a31
     d24:	00008b61 	.word	0x00008b61
     d28:	00003431 	.word	0x00003431
     d2c:	00003425 	.word	0x00003425
     d30:	00008ead 	.word	0x00008ead
     d34:	00000b65 	.word	0x00000b65

00000d38 <ethernet_phy_init>:
     d38:	6001      	str	r1, [r0, #0]
     d3a:	8082      	strh	r2, [r0, #4]
     d3c:	2000      	movs	r0, #0
     d3e:	4770      	bx	lr

00000d40 <ethernet_phy_get_link_status>:
     d40:	b537      	push	{r0, r1, r2, r4, r5, lr}
     d42:	460c      	mov	r4, r1
     d44:	f10d 0306 	add.w	r3, sp, #6
     d48:	8881      	ldrh	r1, [r0, #4]
     d4a:	4d06      	ldr	r5, [pc, #24]	; (d64 <ethernet_phy_get_link_status+0x24>)
     d4c:	6800      	ldr	r0, [r0, #0]
     d4e:	2201      	movs	r2, #1
     d50:	47a8      	blx	r5
     d52:	b920      	cbnz	r0, d5e <ethernet_phy_get_link_status+0x1e>
     d54:	f8bd 3006 	ldrh.w	r3, [sp, #6]
     d58:	f3c3 0380 	ubfx	r3, r3, #2, #1
     d5c:	7023      	strb	r3, [r4, #0]
     d5e:	b003      	add	sp, #12
     d60:	bd30      	pop	{r4, r5, pc}
     d62:	bf00      	nop
     d64:	00001009 	.word	0x00001009

00000d68 <ETHERNET_PHY_0_init>:
     d68:	b510      	push	{r4, lr}
     d6a:	4c05      	ldr	r4, [pc, #20]	; (d80 <ETHERNET_PHY_0_init+0x18>)
     d6c:	4b05      	ldr	r3, [pc, #20]	; (d84 <ETHERNET_PHY_0_init+0x1c>)
     d6e:	4620      	mov	r0, r4
     d70:	4798      	blx	r3
     d72:	4621      	mov	r1, r4
     d74:	2200      	movs	r2, #0
     d76:	4804      	ldr	r0, [pc, #16]	; (d88 <ETHERNET_PHY_0_init+0x20>)
     d78:	4b04      	ldr	r3, [pc, #16]	; (d8c <ETHERNET_PHY_0_init+0x24>)
     d7a:	e8bd 4010 	ldmia.w	sp!, {r4, lr}
     d7e:	4718      	bx	r3
     d80:	2001290c 	.word	0x2001290c
     d84:	00000fa9 	.word	0x00000fa9
     d88:	20012944 	.word	0x20012944
     d8c:	00000d39 	.word	0x00000d39

00000d90 <ethernet_phys_init>:
     d90:	4b00      	ldr	r3, [pc, #0]	; (d94 <ethernet_phys_init+0x4>)
     d92:	4718      	bx	r3
     d94:	00000d69 	.word	0x00000d69

00000d98 <TCPIP_STACK_INTERFACE_0_stack_init>:
     d98:	4a0e      	ldr	r2, [pc, #56]	; (dd4 <TCPIP_STACK_INTERFACE_0_stack_init+0x3c>)
     d9a:	b508      	push	{r3, lr}
     d9c:	6142      	str	r2, [r0, #20]
     d9e:	4b0e      	ldr	r3, [pc, #56]	; (dd8 <TCPIP_STACK_INTERFACE_0_stack_init+0x40>)
     da0:	4a0e      	ldr	r2, [pc, #56]	; (ddc <TCPIP_STACK_INTERFACE_0_stack_init+0x44>)
     da2:	6182      	str	r2, [r0, #24]
     da4:	2262      	movs	r2, #98	; 0x62
     da6:	f883 202d 	strb.w	r2, [r3, #45]	; 0x2d
     daa:	f44f 62c0 	mov.w	r2, #1536	; 0x600
     dae:	849a      	strh	r2, [r3, #36]	; 0x24
     db0:	4a0b      	ldr	r2, [pc, #44]	; (de0 <TCPIP_STACK_INTERFACE_0_stack_init+0x48>)
     db2:	6811      	ldr	r1, [r2, #0]
     db4:	8892      	ldrh	r2, [r2, #4]
     db6:	f8a3 202b 	strh.w	r2, [r3, #43]	; 0x2b
     dba:	2206      	movs	r2, #6
     dbc:	f883 2026 	strb.w	r2, [r3, #38]	; 0x26
     dc0:	f646 6265 	movw	r2, #28261	; 0x6e65
     dc4:	f8c3 1027 	str.w	r1, [r3, #39]	; 0x27
     dc8:	85da      	strh	r2, [r3, #46]	; 0x2e
     dca:	4b06      	ldr	r3, [pc, #24]	; (de4 <TCPIP_STACK_INTERFACE_0_stack_init+0x4c>)
     dcc:	4798      	blx	r3
     dce:	2000      	movs	r0, #0
     dd0:	bd08      	pop	{r3, pc}
     dd2:	bf00      	nop
     dd4:	00007acd 	.word	0x00007acd
     dd8:	2001294c 	.word	0x2001294c
     ddc:	00001b4d 	.word	0x00001b4d
     de0:	200000e0 	.word	0x200000e0
     de4:	00001b25 	.word	0x00001b25

00000de8 <TCPIP_STACK_INTERFACE_0_init>:
     de8:	b530      	push	{r4, r5, lr}
     dea:	b089      	sub	sp, #36	; 0x24
     dec:	4605      	mov	r5, r0
     dee:	4c0e      	ldr	r4, [pc, #56]	; (e28 <TCPIP_STACK_INTERFACE_0_init+0x40>)
     df0:	480e      	ldr	r0, [pc, #56]	; (e2c <TCPIP_STACK_INTERFACE_0_init+0x44>)
     df2:	a905      	add	r1, sp, #20
     df4:	47a0      	blx	r4
     df6:	a906      	add	r1, sp, #24
     df8:	480d      	ldr	r0, [pc, #52]	; (e30 <TCPIP_STACK_INTERFACE_0_init+0x48>)
     dfa:	47a0      	blx	r4
     dfc:	a907      	add	r1, sp, #28
     dfe:	480d      	ldr	r0, [pc, #52]	; (e34 <TCPIP_STACK_INTERFACE_0_init+0x4c>)
     e00:	47a0      	blx	r4
     e02:	4b0d      	ldr	r3, [pc, #52]	; (e38 <TCPIP_STACK_INTERFACE_0_init+0x50>)
     e04:	682a      	ldr	r2, [r5, #0]
     e06:	601a      	str	r2, [r3, #0]
     e08:	88aa      	ldrh	r2, [r5, #4]
     e0a:	809a      	strh	r2, [r3, #4]
     e0c:	4b0b      	ldr	r3, [pc, #44]	; (e3c <TCPIP_STACK_INTERFACE_0_init+0x54>)
     e0e:	9302      	str	r3, [sp, #8]
     e10:	4b0b      	ldr	r3, [pc, #44]	; (e40 <TCPIP_STACK_INTERFACE_0_init+0x58>)
     e12:	9301      	str	r3, [sp, #4]
     e14:	4b0b      	ldr	r3, [pc, #44]	; (e44 <TCPIP_STACK_INTERFACE_0_init+0x5c>)
     e16:	9300      	str	r3, [sp, #0]
     e18:	aa06      	add	r2, sp, #24
     e1a:	ab07      	add	r3, sp, #28
     e1c:	a905      	add	r1, sp, #20
     e1e:	4c0a      	ldr	r4, [pc, #40]	; (e48 <TCPIP_STACK_INTERFACE_0_init+0x60>)
     e20:	480a      	ldr	r0, [pc, #40]	; (e4c <TCPIP_STACK_INTERFACE_0_init+0x64>)
     e22:	47a0      	blx	r4
     e24:	b009      	add	sp, #36	; 0x24
     e26:	bd30      	pop	{r4, r5, pc}
     e28:	00003af5 	.word	0x00003af5
     e2c:	0000b974 	.word	0x0000b974
     e30:	0000b982 	.word	0x0000b982
     e34:	0000b990 	.word	0x0000b990
     e38:	200000e0 	.word	0x200000e0
     e3c:	00007bcd 	.word	0x00007bcd
     e40:	00000d99 	.word	0x00000d99
     e44:	2001290c 	.word	0x2001290c
     e48:	000045e9 	.word	0x000045e9
     e4c:	2001294c 	.word	0x2001294c

00000e50 <atomic_enter_critical>:
     e50:	f3ef 8310 	mrs	r3, PRIMASK
     e54:	6003      	str	r3, [r0, #0]
     e56:	b672      	cpsid	i
     e58:	f3bf 8f5f 	dmb	sy
     e5c:	4770      	bx	lr

00000e5e <atomic_leave_critical>:
     e5e:	f3bf 8f5f 	dmb	sy
     e62:	6803      	ldr	r3, [r0, #0]
     e64:	f383 8810 	msr	PRIMASK, r3
     e68:	4770      	bx	lr
	...

00000e6c <process_ext_irq>:
     e6c:	b470      	push	{r4, r5, r6}
     e6e:	4d0e      	ldr	r5, [pc, #56]	; (ea8 <process_ext_irq+0x3c>)
     e70:	2102      	movs	r1, #2
     e72:	2400      	movs	r4, #0
     e74:	190a      	adds	r2, r1, r4
     e76:	1052      	asrs	r2, r2, #1
     e78:	2a01      	cmp	r2, #1
     e7a:	b2d3      	uxtb	r3, r2
     e7c:	dc11      	bgt.n	ea2 <process_ext_irq+0x36>
     e7e:	eb05 06c2 	add.w	r6, r5, r2, lsl #3
     e82:	6876      	ldr	r6, [r6, #4]
     e84:	4286      	cmp	r6, r0
     e86:	d104      	bne.n	e92 <process_ext_irq+0x26>
     e88:	f855 3032 	ldr.w	r3, [r5, r2, lsl #3]
     e8c:	b14b      	cbz	r3, ea2 <process_ext_irq+0x36>
     e8e:	bc70      	pop	{r4, r5, r6}
     e90:	4718      	bx	r3
     e92:	bf35      	itete	cc
     e94:	3301      	addcc	r3, #1
     e96:	f103 33ff 	addcs.w	r3, r3, #4294967295
     e9a:	b2dc      	uxtbcc	r4, r3
     e9c:	b2d9      	uxtbcs	r1, r3
     e9e:	428c      	cmp	r4, r1
     ea0:	d9e8      	bls.n	e74 <process_ext_irq+0x8>
     ea2:	bc70      	pop	{r4, r5, r6}
     ea4:	4770      	bx	lr
     ea6:	bf00      	nop
     ea8:	200000e8 	.word	0x200000e8

00000eac <ext_irq_init>:
     eac:	4b05      	ldr	r3, [pc, #20]	; (ec4 <ext_irq_init+0x18>)
     eae:	4806      	ldr	r0, [pc, #24]	; (ec8 <ext_irq_init+0x1c>)
     eb0:	f04f 31ff 	mov.w	r1, #4294967295
     eb4:	2200      	movs	r2, #0
     eb6:	6059      	str	r1, [r3, #4]
     eb8:	601a      	str	r2, [r3, #0]
     eba:	60d9      	str	r1, [r3, #12]
     ebc:	609a      	str	r2, [r3, #8]
     ebe:	4b03      	ldr	r3, [pc, #12]	; (ecc <ext_irq_init+0x20>)
     ec0:	4718      	bx	r3
     ec2:	bf00      	nop
     ec4:	200000e8 	.word	0x200000e8
     ec8:	00000e6d 	.word	0x00000e6d
     ecc:	00001249 	.word	0x00001249

00000ed0 <ext_irq_register>:
     ed0:	4b24      	ldr	r3, [pc, #144]	; (f64 <ext_irq_register+0x94>)
     ed2:	685a      	ldr	r2, [r3, #4]
     ed4:	4290      	cmp	r0, r2
     ed6:	b5f0      	push	{r4, r5, r6, r7, lr}
     ed8:	4604      	mov	r4, r0
     eda:	d00c      	beq.n	ef6 <ext_irq_register+0x26>
     edc:	68da      	ldr	r2, [r3, #12]
     ede:	4290      	cmp	r0, r2
     ee0:	d10b      	bne.n	efa <ext_irq_register+0x2a>
     ee2:	2201      	movs	r2, #1
     ee4:	f843 1032 	str.w	r1, [r3, r2, lsl #3]
     ee8:	b101      	cbz	r1, eec <ext_irq_register+0x1c>
     eea:	2101      	movs	r1, #1
     eec:	4620      	mov	r0, r4
     eee:	4b1e      	ldr	r3, [pc, #120]	; (f68 <ext_irq_register+0x98>)
     ef0:	e8bd 40f0 	ldmia.w	sp!, {r4, r5, r6, r7, lr}
     ef4:	4718      	bx	r3
     ef6:	2200      	movs	r2, #0
     ef8:	e7f4      	b.n	ee4 <ext_irq_register+0x14>
     efa:	b381      	cbz	r1, f5e <ext_irq_register+0x8e>
     efc:	6818      	ldr	r0, [r3, #0]
     efe:	b110      	cbz	r0, f06 <ext_irq_register+0x36>
     f00:	689a      	ldr	r2, [r3, #8]
     f02:	bb62      	cbnz	r2, f5e <ext_irq_register+0x8e>
     f04:	2001      	movs	r0, #1
     f06:	4602      	mov	r2, r0
     f08:	f843 1030 	str.w	r1, [r3, r0, lsl #3]
     f0c:	b216      	sxth	r6, r2
     f0e:	eb03 00c0 	add.w	r0, r3, r0, lsl #3
     f12:	00d2      	lsls	r2, r2, #3
     f14:	1899      	adds	r1, r3, r2
     f16:	6044      	str	r4, [r0, #4]
     f18:	685d      	ldr	r5, [r3, #4]
     f1a:	6848      	ldr	r0, [r1, #4]
     f1c:	42a8      	cmp	r0, r5
     f1e:	eb03 07c6 	add.w	r7, r3, r6, lsl #3
     f22:	d209      	bcs.n	f38 <ext_irq_register+0x68>
     f24:	1c68      	adds	r0, r5, #1
     f26:	d007      	beq.n	f38 <ext_irq_register+0x68>
     f28:	c903      	ldmia	r1, {r0, r1}
     f2a:	f8d3 e000 	ldr.w	lr, [r3]
     f2e:	e883 0003 	stmia.w	r3, {r0, r1}
     f32:	f843 e036 	str.w	lr, [r3, r6, lsl #3]
     f36:	607d      	str	r5, [r7, #4]
     f38:	441a      	add	r2, r3
     f3a:	68dd      	ldr	r5, [r3, #12]
     f3c:	6851      	ldr	r1, [r2, #4]
     f3e:	42a9      	cmp	r1, r5
     f40:	d2d3      	bcs.n	eea <ext_irq_register+0x1a>
     f42:	1c69      	adds	r1, r5, #1
     f44:	d0d1      	beq.n	eea <ext_irq_register+0x1a>
     f46:	e892 0003 	ldmia.w	r2, {r0, r1}
     f4a:	f8df e020 	ldr.w	lr, [pc, #32]	; f6c <ext_irq_register+0x9c>
     f4e:	f8d3 c008 	ldr.w	ip, [r3, #8]
     f52:	e88e 0003 	stmia.w	lr, {r0, r1}
     f56:	f843 c036 	str.w	ip, [r3, r6, lsl #3]
     f5a:	607d      	str	r5, [r7, #4]
     f5c:	e7c5      	b.n	eea <ext_irq_register+0x1a>
     f5e:	f06f 000c 	mvn.w	r0, #12
     f62:	bdf0      	pop	{r4, r5, r6, r7, pc}
     f64:	200000e8 	.word	0x200000e8
     f68:	000012f9 	.word	0x000012f9
     f6c:	200000f0 	.word	0x200000f0

00000f70 <ext_irq_enable>:
     f70:	2101      	movs	r1, #1
     f72:	4b01      	ldr	r3, [pc, #4]	; (f78 <ext_irq_enable+0x8>)
     f74:	4718      	bx	r3
     f76:	bf00      	nop
     f78:	000012f9 	.word	0x000012f9

00000f7c <ext_irq_disable>:
     f7c:	2100      	movs	r1, #0
     f7e:	4b01      	ldr	r3, [pc, #4]	; (f84 <ext_irq_disable+0x8>)
     f80:	4718      	bx	r3
     f82:	bf00      	nop
     f84:	000012f9 	.word	0x000012f9

00000f88 <io_write>:
     f88:	6803      	ldr	r3, [r0, #0]
     f8a:	4718      	bx	r3

00000f8c <io_read>:
     f8c:	6843      	ldr	r3, [r0, #4]
     f8e:	4718      	bx	r3

00000f90 <mac_read_cb>:
     f90:	6943      	ldr	r3, [r0, #20]
     f92:	b103      	cbz	r3, f96 <mac_read_cb+0x6>
     f94:	4718      	bx	r3
     f96:	4770      	bx	lr

00000f98 <mac_write_cb>:
     f98:	6983      	ldr	r3, [r0, #24]
     f9a:	b103      	cbz	r3, f9e <mac_write_cb+0x6>
     f9c:	4718      	bx	r3
     f9e:	4770      	bx	lr

00000fa0 <mac_async_init>:
     fa0:	4b00      	ldr	r3, [pc, #0]	; (fa4 <mac_async_init+0x4>)
     fa2:	4718      	bx	r3
     fa4:	000013b1 	.word	0x000013b1

00000fa8 <mac_async_enable>:
     fa8:	4b00      	ldr	r3, [pc, #0]	; (fac <mac_async_enable+0x4>)
     faa:	4718      	bx	r3
     fac:	00001459 	.word	0x00001459

00000fb0 <mac_async_write>:
     fb0:	4b00      	ldr	r3, [pc, #0]	; (fb4 <mac_async_write+0x4>)
     fb2:	4718      	bx	r3
     fb4:	00001469 	.word	0x00001469

00000fb8 <mac_async_read>:
     fb8:	4b00      	ldr	r3, [pc, #0]	; (fbc <mac_async_read+0x4>)
     fba:	4718      	bx	r3
     fbc:	00001569 	.word	0x00001569

00000fc0 <mac_async_read_len>:
     fc0:	4b00      	ldr	r3, [pc, #0]	; (fc4 <mac_async_read_len+0x4>)
     fc2:	4718      	bx	r3
     fc4:	0000165d 	.word	0x0000165d

00000fc8 <mac_async_register_callback>:
     fc8:	b410      	push	{r4}
     fca:	b131      	cbz	r1, fda <mac_async_register_callback+0x12>
     fcc:	2901      	cmp	r1, #1
     fce:	d00d      	beq.n	fec <mac_async_register_callback+0x24>
     fd0:	f06f 000c 	mvn.w	r0, #12
     fd4:	f85d 4b04 	ldr.w	r4, [sp], #4
     fd8:	4770      	bx	lr
     fda:	6142      	str	r2, [r0, #20]
     fdc:	2a00      	cmp	r2, #0
     fde:	4a05      	ldr	r2, [pc, #20]	; (ff4 <mac_async_register_callback+0x2c>)
     fe0:	4b05      	ldr	r3, [pc, #20]	; (ff8 <mac_async_register_callback+0x30>)
     fe2:	f85d 4b04 	ldr.w	r4, [sp], #4
     fe6:	bf08      	it	eq
     fe8:	2200      	moveq	r2, #0
     fea:	4718      	bx	r3
     fec:	6182      	str	r2, [r0, #24]
     fee:	2a00      	cmp	r2, #0
     ff0:	4a02      	ldr	r2, [pc, #8]	; (ffc <mac_async_register_callback+0x34>)
     ff2:	e7f5      	b.n	fe0 <mac_async_register_callback+0x18>
     ff4:	00000f91 	.word	0x00000f91
     ff8:	000016b9 	.word	0x000016b9
     ffc:	00000f99 	.word	0x00000f99

00001000 <mac_async_set_filter>:
    1000:	4b00      	ldr	r3, [pc, #0]	; (1004 <mac_async_set_filter+0x4>)
    1002:	4718      	bx	r3
    1004:	000016e1 	.word	0x000016e1

00001008 <mac_async_read_phy_reg>:
    1008:	b410      	push	{r4}
    100a:	4c02      	ldr	r4, [pc, #8]	; (1014 <mac_async_read_phy_reg+0xc>)
    100c:	46a4      	mov	ip, r4
    100e:	f85d 4b04 	ldr.w	r4, [sp], #4
    1012:	4760      	bx	ip
    1014:	00001701 	.word	0x00001701

00001018 <pwm_period_expired>:
    1018:	6943      	ldr	r3, [r0, #20]
    101a:	b103      	cbz	r3, 101e <pwm_period_expired+0x6>
    101c:	4718      	bx	r3
    101e:	4770      	bx	lr

00001020 <pwm_detect_fault>:
    1020:	6983      	ldr	r3, [r0, #24]
    1022:	b103      	cbz	r3, 1026 <pwm_detect_fault+0x6>
    1024:	4718      	bx	r3
    1026:	4770      	bx	lr

00001028 <pwm_init>:
    1028:	b510      	push	{r4, lr}
    102a:	4b04      	ldr	r3, [pc, #16]	; (103c <pwm_init+0x14>)
    102c:	4604      	mov	r4, r0
    102e:	4798      	blx	r3
    1030:	4b03      	ldr	r3, [pc, #12]	; (1040 <pwm_init+0x18>)
    1032:	6023      	str	r3, [r4, #0]
    1034:	4b03      	ldr	r3, [pc, #12]	; (1044 <pwm_init+0x1c>)
    1036:	6063      	str	r3, [r4, #4]
    1038:	2000      	movs	r0, #0
    103a:	bd10      	pop	{r4, pc}
    103c:	00001949 	.word	0x00001949
    1040:	00001019 	.word	0x00001019
    1044:	00001021 	.word	0x00001021

00001048 <pwm_enable>:
    1048:	b538      	push	{r3, r4, r5, lr}
    104a:	4b06      	ldr	r3, [pc, #24]	; (1064 <pwm_enable+0x1c>)
    104c:	4605      	mov	r5, r0
    104e:	4798      	blx	r3
    1050:	4604      	mov	r4, r0
    1052:	b920      	cbnz	r0, 105e <pwm_enable+0x16>
    1054:	4628      	mov	r0, r5
    1056:	4b04      	ldr	r3, [pc, #16]	; (1068 <pwm_enable+0x20>)
    1058:	4798      	blx	r3
    105a:	4620      	mov	r0, r4
    105c:	bd38      	pop	{r3, r4, r5, pc}
    105e:	f06f 0010 	mvn.w	r0, #16
    1062:	bd38      	pop	{r3, r4, r5, pc}
    1064:	00001ad9 	.word	0x00001ad9
    1068:	00001a6d 	.word	0x00001a6d

0000106c <pwm_set_parameters>:
    106c:	b508      	push	{r3, lr}
    106e:	4b02      	ldr	r3, [pc, #8]	; (1078 <pwm_set_parameters+0xc>)
    1070:	4798      	blx	r3
    1072:	2000      	movs	r0, #0
    1074:	bd08      	pop	{r3, pc}
    1076:	bf00      	nop
    1078:	00001a81 	.word	0x00001a81

0000107c <usart_sync_write>:
    107c:	e92d 43f8 	stmdb	sp!, {r3, r4, r5, r6, r7, r8, r9, lr}
    1080:	4c0f      	ldr	r4, [pc, #60]	; (10c0 <usart_sync_write+0x44>)
    1082:	460f      	mov	r7, r1
    1084:	4616      	mov	r6, r2
    1086:	f100 0508 	add.w	r5, r0, #8
    108a:	46a1      	mov	r9, r4
    108c:	4628      	mov	r0, r5
    108e:	47a0      	blx	r4
    1090:	2800      	cmp	r0, #0
    1092:	d0fb      	beq.n	108c <usart_sync_write+0x10>
    1094:	f8df 8030 	ldr.w	r8, [pc, #48]	; 10c8 <usart_sync_write+0x4c>
    1098:	2400      	movs	r4, #0
    109a:	5d39      	ldrb	r1, [r7, r4]
    109c:	4628      	mov	r0, r5
    109e:	47c0      	blx	r8
    10a0:	4628      	mov	r0, r5
    10a2:	47c8      	blx	r9
    10a4:	2800      	cmp	r0, #0
    10a6:	d0fb      	beq.n	10a0 <usart_sync_write+0x24>
    10a8:	3401      	adds	r4, #1
    10aa:	42b4      	cmp	r4, r6
    10ac:	d3f5      	bcc.n	109a <usart_sync_write+0x1e>
    10ae:	4e05      	ldr	r6, [pc, #20]	; (10c4 <usart_sync_write+0x48>)
    10b0:	4628      	mov	r0, r5
    10b2:	47b0      	blx	r6
    10b4:	2800      	cmp	r0, #0
    10b6:	d0fb      	beq.n	10b0 <usart_sync_write+0x34>
    10b8:	4620      	mov	r0, r4
    10ba:	e8bd 83f8 	ldmia.w	sp!, {r3, r4, r5, r6, r7, r8, r9, pc}
    10be:	bf00      	nop
    10c0:	0000186b 	.word	0x0000186b
    10c4:	00001875 	.word	0x00001875
    10c8:	0000185d 	.word	0x0000185d

000010cc <usart_sync_read>:
    10cc:	e92d 43f8 	stmdb	sp!, {r3, r4, r5, r6, r7, r8, r9, lr}
    10d0:	f8df 9028 	ldr.w	r9, [pc, #40]	; 10fc <usart_sync_read+0x30>
    10d4:	f8df 8028 	ldr.w	r8, [pc, #40]	; 1100 <usart_sync_read+0x34>
    10d8:	460f      	mov	r7, r1
    10da:	4616      	mov	r6, r2
    10dc:	2400      	movs	r4, #0
    10de:	f100 0508 	add.w	r5, r0, #8
    10e2:	4628      	mov	r0, r5
    10e4:	47c8      	blx	r9
    10e6:	2800      	cmp	r0, #0
    10e8:	d0fb      	beq.n	10e2 <usart_sync_read+0x16>
    10ea:	4628      	mov	r0, r5
    10ec:	47c0      	blx	r8
    10ee:	5538      	strb	r0, [r7, r4]
    10f0:	3401      	adds	r4, #1
    10f2:	42b4      	cmp	r4, r6
    10f4:	d3f5      	bcc.n	10e2 <usart_sync_read+0x16>
    10f6:	4620      	mov	r0, r4
    10f8:	e8bd 83f8 	ldmia.w	sp!, {r3, r4, r5, r6, r7, r8, r9, pc}
    10fc:	0000187f 	.word	0x0000187f
    1100:	00001863 	.word	0x00001863

00001104 <usart_sync_init>:
    1104:	b510      	push	{r4, lr}
    1106:	4b05      	ldr	r3, [pc, #20]	; (111c <usart_sync_init+0x18>)
    1108:	4604      	mov	r4, r0
    110a:	3008      	adds	r0, #8
    110c:	4798      	blx	r3
    110e:	b918      	cbnz	r0, 1118 <usart_sync_init+0x14>
    1110:	4b03      	ldr	r3, [pc, #12]	; (1120 <usart_sync_init+0x1c>)
    1112:	6063      	str	r3, [r4, #4]
    1114:	4b03      	ldr	r3, [pc, #12]	; (1124 <usart_sync_init+0x20>)
    1116:	6023      	str	r3, [r4, #0]
    1118:	bd10      	pop	{r4, pc}
    111a:	bf00      	nop
    111c:	0000183d 	.word	0x0000183d
    1120:	000010cd 	.word	0x000010cd
    1124:	0000107d 	.word	0x0000107d

00001128 <usart_sync_enable>:
    1128:	b508      	push	{r3, lr}
    112a:	3008      	adds	r0, #8
    112c:	4b01      	ldr	r3, [pc, #4]	; (1134 <usart_sync_enable+0xc>)
    112e:	4798      	blx	r3
    1130:	2000      	movs	r0, #0
    1132:	bd08      	pop	{r3, pc}
    1134:	00001849 	.word	0x00001849

00001138 <_sbrk>:
    1138:	4b04      	ldr	r3, [pc, #16]	; (114c <_sbrk+0x14>)
    113a:	6819      	ldr	r1, [r3, #0]
    113c:	4602      	mov	r2, r0
    113e:	b909      	cbnz	r1, 1144 <_sbrk+0xc>
    1140:	4903      	ldr	r1, [pc, #12]	; (1150 <_sbrk+0x18>)
    1142:	6019      	str	r1, [r3, #0]
    1144:	6818      	ldr	r0, [r3, #0]
    1146:	4402      	add	r2, r0
    1148:	601a      	str	r2, [r3, #0]
    114a:	4770      	bx	lr
    114c:	200000f8 	.word	0x200000f8
    1150:	20026200 	.word	0x20026200

00001154 <_close>:
    1154:	f04f 30ff 	mov.w	r0, #4294967295
    1158:	4770      	bx	lr

0000115a <_fstat>:
    115a:	f44f 5300 	mov.w	r3, #8192	; 0x2000
    115e:	604b      	str	r3, [r1, #4]
    1160:	2000      	movs	r0, #0
    1162:	4770      	bx	lr

00001164 <_isatty>:
    1164:	2001      	movs	r0, #1
    1166:	4770      	bx	lr

00001168 <_lseek>:
    1168:	2000      	movs	r0, #0
    116a:	4770      	bx	lr

0000116c <_init_chip>:
    116c:	b510      	push	{r4, lr}
    116e:	4a09      	ldr	r2, [pc, #36]	; (1194 <_init_chip+0x28>)
    1170:	8813      	ldrh	r3, [r2, #0]
    1172:	b29b      	uxth	r3, r3
    1174:	8013      	strh	r3, [r2, #0]
    1176:	4b08      	ldr	r3, [pc, #32]	; (1198 <_init_chip+0x2c>)
    1178:	4798      	blx	r3
    117a:	4b08      	ldr	r3, [pc, #32]	; (119c <_init_chip+0x30>)
    117c:	4798      	blx	r3
    117e:	4b08      	ldr	r3, [pc, #32]	; (11a0 <_init_chip+0x34>)
    1180:	4798      	blx	r3
    1182:	4b08      	ldr	r3, [pc, #32]	; (11a4 <_init_chip+0x38>)
    1184:	4798      	blx	r3
    1186:	f640 70ff 	movw	r0, #4095	; 0xfff
    118a:	4b07      	ldr	r3, [pc, #28]	; (11a8 <_init_chip+0x3c>)
    118c:	e8bd 4010 	ldmia.w	sp!, {r4, lr}
    1190:	4718      	bx	r3
    1192:	bf00      	nop
    1194:	41004000 	.word	0x41004000
    1198:	00001749 	.word	0x00001749
    119c:	0000175d 	.word	0x0000175d
    11a0:	0000173d 	.word	0x0000173d
    11a4:	00001775 	.word	0x00001775
    11a8:	00001345 	.word	0x00001345

000011ac <_ext_irq_handler>:
    11ac:	b5f7      	push	{r0, r1, r2, r4, r5, r6, r7, lr}
    11ae:	4b1f      	ldr	r3, [pc, #124]	; (122c <_ext_irq_handler+0x80>)
    11b0:	4d1f      	ldr	r5, [pc, #124]	; (1230 <_ext_irq_handler+0x84>)
    11b2:	695a      	ldr	r2, [r3, #20]
    11b4:	9201      	str	r2, [sp, #4]
    11b6:	9a01      	ldr	r2, [sp, #4]
    11b8:	4e1e      	ldr	r6, [pc, #120]	; (1234 <_ext_irq_handler+0x88>)
    11ba:	615a      	str	r2, [r3, #20]
    11bc:	f04f 37ff 	mov.w	r7, #4294967295
    11c0:	9b01      	ldr	r3, [sp, #4]
    11c2:	b9cb      	cbnz	r3, 11f8 <_ext_irq_handler+0x4c>
    11c4:	b003      	add	sp, #12
    11c6:	bdf0      	pop	{r4, r5, r6, r7, pc}
    11c8:	2002      	movs	r0, #2
    11ca:	2100      	movs	r1, #0
    11cc:	1843      	adds	r3, r0, r1
    11ce:	105b      	asrs	r3, r3, #1
    11d0:	b2da      	uxtb	r2, r3
    11d2:	f815 e033 	ldrb.w	lr, [r5, r3, lsl #3]
    11d6:	45a6      	cmp	lr, r4
    11d8:	d11f      	bne.n	121a <_ext_irq_handler+0x6e>
    11da:	eb05 03c3 	add.w	r3, r5, r3, lsl #3
    11de:	685f      	ldr	r7, [r3, #4]
    11e0:	1c7a      	adds	r2, r7, #1
    11e2:	d002      	beq.n	11ea <_ext_irq_handler+0x3e>
    11e4:	4638      	mov	r0, r7
    11e6:	6833      	ldr	r3, [r6, #0]
    11e8:	4798      	blx	r3
    11ea:	9b01      	ldr	r3, [sp, #4]
    11ec:	2201      	movs	r2, #1
    11ee:	fa02 f404 	lsl.w	r4, r2, r4
    11f2:	ea23 0404 	bic.w	r4, r3, r4
    11f6:	9401      	str	r4, [sp, #4]
    11f8:	9b01      	ldr	r3, [sp, #4]
    11fa:	fa93 f4a3 	rbit	r4, r3
    11fe:	2b00      	cmp	r3, #0
    1200:	fab4 f484 	clz	r4, r4
    1204:	bf08      	it	eq
    1206:	f04f 34ff 	moveq.w	r4, #4294967295
    120a:	1c63      	adds	r3, r4, #1
    120c:	d1dc      	bne.n	11c8 <_ext_irq_handler+0x1c>
    120e:	4b07      	ldr	r3, [pc, #28]	; (122c <_ext_irq_handler+0x80>)
    1210:	695a      	ldr	r2, [r3, #20]
    1212:	9201      	str	r2, [sp, #4]
    1214:	9a01      	ldr	r2, [sp, #4]
    1216:	615a      	str	r2, [r3, #20]
    1218:	e7d2      	b.n	11c0 <_ext_irq_handler+0x14>
    121a:	bfb5      	itete	lt
    121c:	3201      	addlt	r2, #1
    121e:	f102 32ff 	addge.w	r2, r2, #4294967295
    1222:	b2d1      	uxtblt	r1, r2
    1224:	b2d0      	uxtbge	r0, r2
    1226:	4288      	cmp	r0, r1
    1228:	d2d0      	bcs.n	11cc <_ext_irq_handler+0x20>
    122a:	e7d9      	b.n	11e0 <_ext_irq_handler+0x34>
    122c:	40002800 	.word	0x40002800
    1230:	0000b99c 	.word	0x0000b99c
    1234:	200000fc 	.word	0x200000fc

00001238 <hri_eic_wait_for_sync.constprop.6>:
    1238:	4a02      	ldr	r2, [pc, #8]	; (1244 <hri_eic_wait_for_sync.constprop.6+0xc>)
    123a:	6853      	ldr	r3, [r2, #4]
    123c:	4203      	tst	r3, r0
    123e:	d1fc      	bne.n	123a <hri_eic_wait_for_sync.constprop.6+0x2>
    1240:	4770      	bx	lr
    1242:	bf00      	nop
    1244:	40002800 	.word	0x40002800

00001248 <_ext_irq_init>:
    1248:	b570      	push	{r4, r5, r6, lr}
    124a:	4926      	ldr	r1, [pc, #152]	; (12e4 <_ext_irq_init+0x9c>)
    124c:	4d26      	ldr	r5, [pc, #152]	; (12e8 <_ext_irq_init+0xa0>)
    124e:	684b      	ldr	r3, [r1, #4]
    1250:	f013 0f01 	tst.w	r3, #1
    1254:	4606      	mov	r6, r0
    1256:	d111      	bne.n	127c <_ext_irq_init+0x34>
    1258:	2003      	movs	r0, #3
    125a:	47a8      	blx	r5
    125c:	780b      	ldrb	r3, [r1, #0]
    125e:	079b      	lsls	r3, r3, #30
    1260:	d507      	bpl.n	1272 <_ext_irq_init+0x2a>
    1262:	780b      	ldrb	r3, [r1, #0]
    1264:	f003 03fd 	and.w	r3, r3, #253	; 0xfd
    1268:	2003      	movs	r0, #3
    126a:	700b      	strb	r3, [r1, #0]
    126c:	47a8      	blx	r5
    126e:	2002      	movs	r0, #2
    1270:	47a8      	blx	r5
    1272:	4b1c      	ldr	r3, [pc, #112]	; (12e4 <_ext_irq_init+0x9c>)
    1274:	2201      	movs	r2, #1
    1276:	701a      	strb	r2, [r3, #0]
    1278:	2003      	movs	r0, #3
    127a:	47a8      	blx	r5
    127c:	2001      	movs	r0, #1
    127e:	47a8      	blx	r5
    1280:	4918      	ldr	r1, [pc, #96]	; (12e4 <_ext_irq_init+0x9c>)
    1282:	780b      	ldrb	r3, [r1, #0]
    1284:	f003 03ef 	and.w	r3, r3, #239	; 0xef
    1288:	700b      	strb	r3, [r1, #0]
    128a:	2003      	movs	r0, #3
    128c:	47a8      	blx	r5
    128e:	2400      	movs	r4, #0
    1290:	4b16      	ldr	r3, [pc, #88]	; (12ec <_ext_irq_init+0xa4>)
    1292:	704c      	strb	r4, [r1, #1]
    1294:	608c      	str	r4, [r1, #8]
    1296:	618c      	str	r4, [r1, #24]
    1298:	630c      	str	r4, [r1, #48]	; 0x30
    129a:	634c      	str	r4, [r1, #52]	; 0x34
    129c:	61cb      	str	r3, [r1, #28]
    129e:	620c      	str	r4, [r1, #32]
    12a0:	780b      	ldrb	r3, [r1, #0]
    12a2:	f043 0302 	orr.w	r3, r3, #2
    12a6:	700b      	strb	r3, [r1, #0]
    12a8:	2003      	movs	r0, #3
    12aa:	47a8      	blx	r5
    12ac:	4b10      	ldr	r3, [pc, #64]	; (12f0 <_ext_irq_init+0xa8>)
    12ae:	f44f 5280 	mov.w	r2, #4096	; 0x1000
    12b2:	f8c3 2080 	str.w	r2, [r3, #128]	; 0x80
    12b6:	f3bf 8f4f 	dsb	sy
    12ba:	f3bf 8f6f 	isb	sy
    12be:	f8c3 2180 	str.w	r2, [r3, #384]	; 0x180
    12c2:	601a      	str	r2, [r3, #0]
    12c4:	f44f 2200 	mov.w	r2, #524288	; 0x80000
    12c8:	f8c3 2080 	str.w	r2, [r3, #128]	; 0x80
    12cc:	f3bf 8f4f 	dsb	sy
    12d0:	f3bf 8f6f 	isb	sy
    12d4:	f8c3 2180 	str.w	r2, [r3, #384]	; 0x180
    12d8:	601a      	str	r2, [r3, #0]
    12da:	4b06      	ldr	r3, [pc, #24]	; (12f4 <_ext_irq_init+0xac>)
    12dc:	4620      	mov	r0, r4
    12de:	601e      	str	r6, [r3, #0]
    12e0:	bd70      	pop	{r4, r5, r6, pc}
    12e2:	bf00      	nop
    12e4:	40002800 	.word	0x40002800
    12e8:	00001239 	.word	0x00001239
    12ec:	10000001 	.word	0x10000001
    12f0:	e000e100 	.word	0xe000e100
    12f4:	200000fc 	.word	0x200000fc

000012f8 <_ext_irq_enable>:
    12f8:	2860      	cmp	r0, #96	; 0x60
    12fa:	d00e      	beq.n	131a <_ext_irq_enable+0x22>
    12fc:	2827      	cmp	r0, #39	; 0x27
    12fe:	d111      	bne.n	1324 <_ext_irq_enable+0x2c>
    1300:	2301      	movs	r3, #1
    1302:	4a0a      	ldr	r2, [pc, #40]	; (132c <_ext_irq_enable+0x34>)
    1304:	f812 0033 	ldrb.w	r0, [r2, r3, lsl #3]
    1308:	28ff      	cmp	r0, #255	; 0xff
    130a:	d00b      	beq.n	1324 <_ext_irq_enable+0x2c>
    130c:	2301      	movs	r3, #1
    130e:	4a08      	ldr	r2, [pc, #32]	; (1330 <_ext_irq_enable+0x38>)
    1310:	4083      	lsls	r3, r0
    1312:	b121      	cbz	r1, 131e <_ext_irq_enable+0x26>
    1314:	6113      	str	r3, [r2, #16]
    1316:	2000      	movs	r0, #0
    1318:	4770      	bx	lr
    131a:	2300      	movs	r3, #0
    131c:	e7f1      	b.n	1302 <_ext_irq_enable+0xa>
    131e:	60d3      	str	r3, [r2, #12]
    1320:	6153      	str	r3, [r2, #20]
    1322:	e7f8      	b.n	1316 <_ext_irq_enable+0x1e>
    1324:	f04f 30ff 	mov.w	r0, #4294967295
    1328:	4770      	bx	lr
    132a:	bf00      	nop
    132c:	0000b99c 	.word	0x0000b99c
    1330:	40002800 	.word	0x40002800

00001334 <EIC_0_Handler>:
    1334:	4b00      	ldr	r3, [pc, #0]	; (1338 <EIC_0_Handler+0x4>)
    1336:	4718      	bx	r3
    1338:	000011ad 	.word	0x000011ad

0000133c <EIC_7_Handler>:
    133c:	4b00      	ldr	r3, [pc, #0]	; (1340 <EIC_7_Handler+0x4>)
    133e:	4718      	bx	r3
    1340:	000011ad 	.word	0x000011ad

00001344 <_gclk_init_generators_by_fref>:
    1344:	07c3      	lsls	r3, r0, #31
    1346:	d507      	bpl.n	1358 <_gclk_init_generators_by_fref+0x14>
    1348:	4b04      	ldr	r3, [pc, #16]	; (135c <_gclk_init_generators_by_fref+0x18>)
    134a:	4a05      	ldr	r2, [pc, #20]	; (1360 <_gclk_init_generators_by_fref+0x1c>)
    134c:	621a      	str	r2, [r3, #32]
    134e:	f643 72fd 	movw	r2, #16381	; 0x3ffd
    1352:	6859      	ldr	r1, [r3, #4]
    1354:	4211      	tst	r1, r2
    1356:	d1fc      	bne.n	1352 <_gclk_init_generators_by_fref+0xe>
    1358:	4770      	bx	lr
    135a:	bf00      	nop
    135c:	40001c00 	.word	0x40001c00
    1360:	00010101 	.word	0x00010101

00001364 <GMAC_Handler>:
    1364:	b513      	push	{r0, r1, r4, lr}
    1366:	4c11      	ldr	r4, [pc, #68]	; (13ac <GMAC_Handler+0x48>)
    1368:	6820      	ldr	r0, [r4, #0]
    136a:	6803      	ldr	r3, [r0, #0]
    136c:	695a      	ldr	r2, [r3, #20]
    136e:	9200      	str	r2, [sp, #0]
    1370:	6a1a      	ldr	r2, [r3, #32]
    1372:	9201      	str	r2, [sp, #4]
    1374:	6a5a      	ldr	r2, [r3, #36]	; 0x24
    1376:	9a00      	ldr	r2, [sp, #0]
    1378:	0692      	lsls	r2, r2, #26
    137a:	d50a      	bpl.n	1392 <GMAC_Handler+0x2e>
    137c:	9a00      	ldr	r2, [sp, #0]
    137e:	615a      	str	r2, [r3, #20]
    1380:	6863      	ldr	r3, [r4, #4]
    1382:	eb04 03c3 	add.w	r3, r4, r3, lsl #3
    1386:	7bdb      	ldrb	r3, [r3, #15]
    1388:	09db      	lsrs	r3, r3, #7
    138a:	d002      	beq.n	1392 <GMAC_Handler+0x2e>
    138c:	6843      	ldr	r3, [r0, #4]
    138e:	b103      	cbz	r3, 1392 <GMAC_Handler+0x2e>
    1390:	4798      	blx	r3
    1392:	9b01      	ldr	r3, [sp, #4]
    1394:	079b      	lsls	r3, r3, #30
    1396:	d503      	bpl.n	13a0 <GMAC_Handler+0x3c>
    1398:	6820      	ldr	r0, [r4, #0]
    139a:	6883      	ldr	r3, [r0, #8]
    139c:	b103      	cbz	r3, 13a0 <GMAC_Handler+0x3c>
    139e:	4798      	blx	r3
    13a0:	6823      	ldr	r3, [r4, #0]
    13a2:	9a01      	ldr	r2, [sp, #4]
    13a4:	681b      	ldr	r3, [r3, #0]
    13a6:	621a      	str	r2, [r3, #32]
    13a8:	b002      	add	sp, #8
    13aa:	bd10      	pop	{r4, pc}
    13ac:	20000100 	.word	0x20000100

000013b0 <_mac_async_init>:
    13b0:	2310      	movs	r3, #16
    13b2:	b5f0      	push	{r4, r5, r6, r7, lr}
    13b4:	6001      	str	r1, [r0, #0]
    13b6:	600b      	str	r3, [r1, #0]
    13b8:	4b21      	ldr	r3, [pc, #132]	; (1440 <_mac_async_init+0x90>)
    13ba:	604b      	str	r3, [r1, #4]
    13bc:	2200      	movs	r2, #0
    13be:	4b21      	ldr	r3, [pc, #132]	; (1444 <_mac_async_init+0x94>)
    13c0:	60ca      	str	r2, [r1, #12]
    13c2:	610b      	str	r3, [r1, #16]
    13c4:	f240 1301 	movw	r3, #257	; 0x101
    13c8:	f8c1 20b8 	str.w	r2, [r1, #184]	; 0xb8
    13cc:	f8c1 30bc 	str.w	r3, [r1, #188]	; 0xbc
    13d0:	4b1d      	ldr	r3, [pc, #116]	; (1448 <_mac_async_init+0x98>)
    13d2:	f103 0420 	add.w	r4, r3, #32
    13d6:	609c      	str	r4, [r3, #8]
    13d8:	2480      	movs	r4, #128	; 0x80
    13da:	60da      	str	r2, [r3, #12]
    13dc:	73dc      	strb	r4, [r3, #15]
    13de:	f203 54fc 	addw	r4, r3, #1532	; 0x5fc
    13e2:	611c      	str	r4, [r3, #16]
    13e4:	24c0      	movs	r4, #192	; 0xc0
    13e6:	615a      	str	r2, [r3, #20]
    13e8:	605a      	str	r2, [r3, #4]
    13ea:	75dc      	strb	r4, [r3, #23]
    13ec:	f8c3 2bd8 	str.w	r2, [r3, #3032]	; 0xbd8
    13f0:	f503 643e 	add.w	r4, r3, #3040	; 0xbe0
    13f4:	f503 6746 	add.w	r7, r3, #3168	; 0xc60
    13f8:	4615      	mov	r5, r2
    13fa:	eb07 1602 	add.w	r6, r7, r2, lsl #4
    13fe:	5116      	str	r6, [r2, r4]
    1400:	18a6      	adds	r6, r4, r2
    1402:	3208      	adds	r2, #8
    1404:	2a80      	cmp	r2, #128	; 0x80
    1406:	6075      	str	r5, [r6, #4]
    1408:	d1f7      	bne.n	13fa <_mac_async_init+0x4a>
    140a:	f893 2c58 	ldrb.w	r2, [r3, #3160]	; 0xc58
    140e:	6018      	str	r0, [r3, #0]
    1410:	f042 0202 	orr.w	r2, r2, #2
    1414:	f883 2c58 	strb.w	r2, [r3, #3160]	; 0xc58
    1418:	4a0c      	ldr	r2, [pc, #48]	; (144c <_mac_async_init+0x9c>)
    141a:	4b0d      	ldr	r3, [pc, #52]	; (1450 <_mac_async_init+0xa0>)
    141c:	f8c2 5368 	str.w	r5, [r2, #872]	; 0x368
    1420:	4a0c      	ldr	r2, [pc, #48]	; (1454 <_mac_async_init+0xa4>)
    1422:	61ca      	str	r2, [r1, #28]
    1424:	f44f 1280 	mov.w	r2, #1048576	; 0x100000
    1428:	618c      	str	r4, [r1, #24]
    142a:	f8c3 2088 	str.w	r2, [r3, #136]	; 0x88
    142e:	f3bf 8f4f 	dsb	sy
    1432:	f3bf 8f6f 	isb	sy
    1436:	2000      	movs	r0, #0
    1438:	f8c3 2188 	str.w	r2, [r3, #392]	; 0x188
    143c:	609a      	str	r2, [r3, #8]
    143e:	bdf0      	pop	{r4, r5, r6, r7, pc}
    1440:	00100103 	.word	0x00100103
    1444:	00020704 	.word	0x00020704
    1448:	20000100 	.word	0x20000100
    144c:	200011f8 	.word	0x200011f8
    1450:	e000e100 	.word	0xe000e100
    1454:	20000108 	.word	0x20000108

00001458 <_mac_async_enable>:
    1458:	6802      	ldr	r2, [r0, #0]
    145a:	6813      	ldr	r3, [r2, #0]
    145c:	f043 030c 	orr.w	r3, r3, #12
    1460:	6013      	str	r3, [r2, #0]
    1462:	2000      	movs	r0, #0
    1464:	4770      	bx	lr
	...

00001468 <_mac_async_write>:
    1468:	e92d 4ff7 	stmdb	sp!, {r0, r1, r2, r4, r5, r6, r7, r8, r9, sl, fp, lr}
    146c:	4c3b      	ldr	r4, [pc, #236]	; (155c <_mac_async_write+0xf4>)
    146e:	f8d4 3bd8 	ldr.w	r3, [r4, #3032]	; 0xbd8
    1472:	eb04 03c3 	add.w	r3, r4, r3, lsl #3
    1476:	4680      	mov	r8, r0
    1478:	7bdb      	ldrb	r3, [r3, #15]
    147a:	09db      	lsrs	r3, r3, #7
    147c:	4616      	mov	r6, r2
    147e:	d013      	beq.n	14a8 <_mac_async_write+0x40>
    1480:	f8d4 3bd8 	ldr.w	r3, [r4, #3032]	; 0xbd8
    1484:	eb04 03c3 	add.w	r3, r4, r3, lsl #3
    1488:	7b5b      	ldrb	r3, [r3, #13]
    148a:	09db      	lsrs	r3, r3, #7
    148c:	d10c      	bne.n	14a8 <_mac_async_write+0x40>
    148e:	f8d4 2bd8 	ldr.w	r2, [r4, #3032]	; 0xbd8
    1492:	1c53      	adds	r3, r2, #1
    1494:	2b01      	cmp	r3, #1
    1496:	bf88      	it	hi
    1498:	f102 33ff 	addhi.w	r3, r2, #4294967295
    149c:	eb04 03c3 	add.w	r3, r4, r3, lsl #3
    14a0:	7bda      	ldrb	r2, [r3, #15]
    14a2:	f042 0280 	orr.w	r2, r2, #128	; 0x80
    14a6:	73da      	strb	r2, [r3, #15]
    14a8:	6863      	ldr	r3, [r4, #4]
    14aa:	eb04 03c3 	add.w	r3, r4, r3, lsl #3
    14ae:	7bdb      	ldrb	r3, [r3, #15]
    14b0:	09db      	lsrs	r3, r3, #7
    14b2:	d050      	beq.n	1556 <_mac_async_write+0xee>
    14b4:	f240 53dc 	movw	r3, #1500	; 0x5dc
    14b8:	429e      	cmp	r6, r3
    14ba:	d90a      	bls.n	14d2 <_mac_async_write+0x6a>
    14bc:	6862      	ldr	r2, [r4, #4]
    14be:	1c53      	adds	r3, r2, #1
    14c0:	2b01      	cmp	r3, #1
    14c2:	bf88      	it	hi
    14c4:	f102 33ff 	addhi.w	r3, r2, #4294967295
    14c8:	eb04 03c3 	add.w	r3, r4, r3, lsl #3
    14cc:	7bdb      	ldrb	r3, [r3, #15]
    14ce:	09db      	lsrs	r3, r3, #7
    14d0:	d041      	beq.n	1556 <_mac_async_write+0xee>
    14d2:	6863      	ldr	r3, [r4, #4]
    14d4:	f8c4 3bd8 	str.w	r3, [r4, #3032]	; 0xbd8
    14d8:	f8df b088 	ldr.w	fp, [pc, #136]	; 1564 <_mac_async_write+0xfc>
    14dc:	4b20      	ldr	r3, [pc, #128]	; (1560 <_mac_async_write+0xf8>)
    14de:	460d      	mov	r5, r1
    14e0:	f601 3ab8 	addw	sl, r1, #3000	; 0xbb8
    14e4:	f240 59dc 	movw	r9, #1500	; 0x5dc
    14e8:	454e      	cmp	r6, r9
    14ea:	6860      	ldr	r0, [r4, #4]
    14ec:	9301      	str	r3, [sp, #4]
    14ee:	4637      	mov	r7, r6
    14f0:	bf28      	it	cs
    14f2:	464f      	movcs	r7, r9
    14f4:	4629      	mov	r1, r5
    14f6:	463a      	mov	r2, r7
    14f8:	fb09 b000 	mla	r0, r9, r0, fp
    14fc:	4798      	blx	r3
    14fe:	6862      	ldr	r2, [r4, #4]
    1500:	9b01      	ldr	r3, [sp, #4]
    1502:	eb04 02c2 	add.w	r2, r4, r2, lsl #3
    1506:	1bf6      	subs	r6, r6, r7
    1508:	60d7      	str	r7, [r2, #12]
    150a:	bf01      	itttt	eq
    150c:	6862      	ldreq	r2, [r4, #4]
    150e:	eb04 02c2 	addeq.w	r2, r4, r2, lsl #3
    1512:	7b51      	ldrbeq	r1, [r2, #13]
    1514:	f041 0180 	orreq.w	r1, r1, #128	; 0x80
    1518:	bf08      	it	eq
    151a:	7351      	strbeq	r1, [r2, #13]
    151c:	6862      	ldr	r2, [r4, #4]
    151e:	3201      	adds	r2, #1
    1520:	6062      	str	r2, [r4, #4]
    1522:	6862      	ldr	r2, [r4, #4]
    1524:	2a02      	cmp	r2, #2
    1526:	d105      	bne.n	1534 <_mac_async_write+0xcc>
    1528:	2200      	movs	r2, #0
    152a:	6062      	str	r2, [r4, #4]
    152c:	7de2      	ldrb	r2, [r4, #23]
    152e:	f042 0240 	orr.w	r2, r2, #64	; 0x40
    1532:	75e2      	strb	r2, [r4, #23]
    1534:	b11e      	cbz	r6, 153e <_mac_async_write+0xd6>
    1536:	f205 55dc 	addw	r5, r5, #1500	; 0x5dc
    153a:	4555      	cmp	r5, sl
    153c:	d1d4      	bne.n	14e8 <_mac_async_write+0x80>
    153e:	f3bf 8f4f 	dsb	sy
    1542:	f8d8 2000 	ldr.w	r2, [r8]
    1546:	6813      	ldr	r3, [r2, #0]
    1548:	f443 7300 	orr.w	r3, r3, #512	; 0x200
    154c:	6013      	str	r3, [r2, #0]
    154e:	2000      	movs	r0, #0
    1550:	b003      	add	sp, #12
    1552:	e8bd 8ff0 	ldmia.w	sp!, {r4, r5, r6, r7, r8, r9, sl, fp, pc}
    1556:	f06f 001b 	mvn.w	r0, #27
    155a:	e7f9      	b.n	1550 <_mac_async_write+0xe8>
    155c:	20000100 	.word	0x20000100
    1560:	0000a88f 	.word	0x0000a88f
    1564:	20000120 	.word	0x20000120

00001568 <_mac_async_read>:
    1568:	e92d 4ff8 	stmdb	sp!, {r3, r4, r5, r6, r7, r8, r9, sl, fp, lr}
    156c:	460b      	mov	r3, r1
    156e:	4937      	ldr	r1, [pc, #220]	; (164c <_mac_async_read+0xe4>)
    1570:	4837      	ldr	r0, [pc, #220]	; (1650 <_mac_async_read+0xe8>)
    1572:	4617      	mov	r7, r2
    1574:	f04f 35ff 	mov.w	r5, #4294967295
    1578:	2400      	movs	r4, #0
    157a:	4688      	mov	r8, r1
    157c:	f8d1 2368 	ldr.w	r2, [r1, #872]	; 0x368
    1580:	4422      	add	r2, r4
    1582:	2a0f      	cmp	r2, #15
    1584:	bf88      	it	hi
    1586:	3a10      	subhi	r2, #16
    1588:	eb00 02c2 	add.w	r2, r0, r2, lsl #3
    158c:	f892 6be0 	ldrb.w	r6, [r2, #3040]	; 0xbe0
    1590:	07f6      	lsls	r6, r6, #31
    1592:	d51e      	bpl.n	15d2 <_mac_async_read+0x6a>
    1594:	f892 6be5 	ldrb.w	r6, [r2, #3045]	; 0xbe5
    1598:	f016 0f40 	tst.w	r6, #64	; 0x40
    159c:	bf18      	it	ne
    159e:	4625      	movne	r5, r4
    15a0:	09f6      	lsrs	r6, r6, #7
    15a2:	f104 0601 	add.w	r6, r4, #1
    15a6:	d011      	beq.n	15cc <_mac_async_read+0x64>
    15a8:	f1b5 3fff 	cmp.w	r5, #4294967295
    15ac:	d00e      	beq.n	15cc <_mac_async_read+0x64>
    15ae:	f8b2 2be4 	ldrh.w	r2, [r2, #3044]	; 0xbe4
    15b2:	f3c2 020c 	ubfx	r2, r2, #0, #13
    15b6:	4297      	cmp	r7, r2
    15b8:	bf28      	it	cs
    15ba:	4617      	movcs	r7, r2
    15bc:	f04f 0900 	mov.w	r9, #0
    15c0:	46ca      	mov	sl, r9
    15c2:	45b2      	cmp	sl, r6
    15c4:	d10d      	bne.n	15e2 <_mac_async_read+0x7a>
    15c6:	4648      	mov	r0, r9
    15c8:	e8bd 8ff8 	ldmia.w	sp!, {r3, r4, r5, r6, r7, r8, r9, sl, fp, pc}
    15cc:	2e10      	cmp	r6, #16
    15ce:	4634      	mov	r4, r6
    15d0:	d1d4      	bne.n	157c <_mac_async_read+0x14>
    15d2:	1c6a      	adds	r2, r5, #1
    15d4:	d101      	bne.n	15da <_mac_async_read+0x72>
    15d6:	4626      	mov	r6, r4
    15d8:	e000      	b.n	15dc <_mac_async_read+0x74>
    15da:	462e      	mov	r6, r5
    15dc:	f04f 34ff 	mov.w	r4, #4294967295
    15e0:	e7ec      	b.n	15bc <_mac_async_read+0x54>
    15e2:	1c61      	adds	r1, r4, #1
    15e4:	d017      	beq.n	1616 <_mac_async_read+0xae>
    15e6:	45aa      	cmp	sl, r5
    15e8:	d315      	bcc.n	1616 <_mac_async_read+0xae>
    15ea:	45a2      	cmp	sl, r4
    15ec:	d813      	bhi.n	1616 <_mac_async_read+0xae>
    15ee:	b197      	cbz	r7, 1616 <_mac_async_read+0xae>
    15f0:	2f80      	cmp	r7, #128	; 0x80
    15f2:	f8d8 1368 	ldr.w	r1, [r8, #872]	; 0x368
    15f6:	4817      	ldr	r0, [pc, #92]	; (1654 <_mac_async_read+0xec>)
    15f8:	46bb      	mov	fp, r7
    15fa:	bf28      	it	cs
    15fc:	f04f 0b80 	movcs.w	fp, #128	; 0x80
    1600:	eb00 11c1 	add.w	r1, r0, r1, lsl #7
    1604:	465a      	mov	r2, fp
    1606:	4618      	mov	r0, r3
    1608:	4b13      	ldr	r3, [pc, #76]	; (1658 <_mac_async_read+0xf0>)
    160a:	4798      	blx	r3
    160c:	4603      	mov	r3, r0
    160e:	445b      	add	r3, fp
    1610:	44d9      	add	r9, fp
    1612:	eba7 070b 	sub.w	r7, r7, fp
    1616:	f8d8 2368 	ldr.w	r2, [r8, #872]	; 0x368
    161a:	490d      	ldr	r1, [pc, #52]	; (1650 <_mac_async_read+0xe8>)
    161c:	eb01 02c2 	add.w	r2, r1, r2, lsl #3
    1620:	f10a 0a01 	add.w	sl, sl, #1
    1624:	f892 1be0 	ldrb.w	r1, [r2, #3040]	; 0xbe0
    1628:	f36f 0100 	bfc	r1, #0, #1
    162c:	f882 1be0 	strb.w	r1, [r2, #3040]	; 0xbe0
    1630:	f8d8 2368 	ldr.w	r2, [r8, #872]	; 0x368
    1634:	3201      	adds	r2, #1
    1636:	f8c8 2368 	str.w	r2, [r8, #872]	; 0x368
    163a:	f8d8 2368 	ldr.w	r2, [r8, #872]	; 0x368
    163e:	2a10      	cmp	r2, #16
    1640:	bf04      	itt	eq
    1642:	2200      	moveq	r2, #0
    1644:	f8c8 2368 	streq.w	r2, [r8, #872]	; 0x368
    1648:	e7bb      	b.n	15c2 <_mac_async_read+0x5a>
    164a:	bf00      	nop
    164c:	200011f8 	.word	0x200011f8
    1650:	20000100 	.word	0x20000100
    1654:	20000d60 	.word	0x20000d60
    1658:	0000a88f 	.word	0x0000a88f

0000165c <_mac_async_read_len>:
    165c:	b5f0      	push	{r4, r5, r6, r7, lr}
    165e:	4c14      	ldr	r4, [pc, #80]	; (16b0 <_mac_async_read_len+0x54>)
    1660:	4f14      	ldr	r7, [pc, #80]	; (16b4 <_mac_async_read_len+0x58>)
    1662:	2000      	movs	r0, #0
    1664:	4601      	mov	r1, r0
    1666:	4602      	mov	r2, r0
    1668:	4625      	mov	r5, r4
    166a:	f8d7 3368 	ldr.w	r3, [r7, #872]	; 0x368
    166e:	4413      	add	r3, r2
    1670:	2b0f      	cmp	r3, #15
    1672:	bf88      	it	hi
    1674:	3b10      	subhi	r3, #16
    1676:	00db      	lsls	r3, r3, #3
    1678:	18e6      	adds	r6, r4, r3
    167a:	f896 ebe0 	ldrb.w	lr, [r6, #3040]	; 0xbe0
    167e:	f01e 0f01 	tst.w	lr, #1
    1682:	d013      	beq.n	16ac <_mac_async_read_len+0x50>
    1684:	f896 6be5 	ldrb.w	r6, [r6, #3045]	; 0xbe5
    1688:	0676      	lsls	r6, r6, #25
    168a:	d400      	bmi.n	168e <_mac_async_read_len+0x32>
    168c:	b131      	cbz	r1, 169c <_mac_async_read_len+0x40>
    168e:	18e9      	adds	r1, r5, r3
    1690:	f8b1 1be4 	ldrh.w	r1, [r1, #3044]	; 0xbe4
    1694:	f3c1 010c 	ubfx	r1, r1, #0, #13
    1698:	4408      	add	r0, r1
    169a:	2101      	movs	r1, #1
    169c:	442b      	add	r3, r5
    169e:	f893 3be5 	ldrb.w	r3, [r3, #3045]	; 0xbe5
    16a2:	09db      	lsrs	r3, r3, #7
    16a4:	d102      	bne.n	16ac <_mac_async_read_len+0x50>
    16a6:	3201      	adds	r2, #1
    16a8:	2a10      	cmp	r2, #16
    16aa:	d1de      	bne.n	166a <_mac_async_read_len+0xe>
    16ac:	bdf0      	pop	{r4, r5, r6, r7, pc}
    16ae:	bf00      	nop
    16b0:	20000100 	.word	0x20000100
    16b4:	200011f8 	.word	0x200011f8

000016b8 <_mac_async_register_callback>:
    16b8:	b151      	cbz	r1, 16d0 <_mac_async_register_callback+0x18>
    16ba:	2901      	cmp	r1, #1
    16bc:	d10d      	bne.n	16da <_mac_async_register_callback+0x22>
    16be:	6042      	str	r2, [r0, #4]
    16c0:	6803      	ldr	r3, [r0, #0]
    16c2:	2180      	movs	r1, #128	; 0x80
    16c4:	b112      	cbz	r2, 16cc <_mac_async_register_callback+0x14>
    16c6:	6299      	str	r1, [r3, #40]	; 0x28
    16c8:	2000      	movs	r0, #0
    16ca:	4770      	bx	lr
    16cc:	62d9      	str	r1, [r3, #44]	; 0x2c
    16ce:	e7fb      	b.n	16c8 <_mac_async_register_callback+0x10>
    16d0:	6803      	ldr	r3, [r0, #0]
    16d2:	6082      	str	r2, [r0, #8]
    16d4:	2002      	movs	r0, #2
    16d6:	6298      	str	r0, [r3, #40]	; 0x28
    16d8:	e7f6      	b.n	16c8 <_mac_async_register_callback+0x10>
    16da:	f06f 000c 	mvn.w	r0, #12
    16de:	4770      	bx	lr

000016e0 <_mac_async_set_filter>:
    16e0:	6803      	ldr	r3, [r0, #0]
    16e2:	b510      	push	{r4, lr}
    16e4:	eb03 00c1 	add.w	r0, r3, r1, lsl #3
    16e8:	6814      	ldr	r4, [r2, #0]
    16ea:	f8c0 4088 	str.w	r4, [r0, #136]	; 0x88
    16ee:	312a      	adds	r1, #42	; 0x2a
    16f0:	8894      	ldrh	r4, [r2, #4]
    16f2:	88d2      	ldrh	r2, [r2, #6]
    16f4:	f8c0 408c 	str.w	r4, [r0, #140]	; 0x8c
    16f8:	f843 2021 	str.w	r2, [r3, r1, lsl #2]
    16fc:	2000      	movs	r0, #0
    16fe:	bd10      	pop	{r4, pc}

00001700 <_mac_async_read_phy_reg>:
    1700:	b510      	push	{r4, lr}
    1702:	6800      	ldr	r0, [r0, #0]
    1704:	0492      	lsls	r2, r2, #18
    1706:	f402 02f8 	and.w	r2, r2, #8126464	; 0x7c0000
    170a:	6804      	ldr	r4, [r0, #0]
    170c:	f042 42c0 	orr.w	r2, r2, #1610612736	; 0x60000000
    1710:	05c9      	lsls	r1, r1, #23
    1712:	f442 3200 	orr.w	r2, r2, #131072	; 0x20000
    1716:	f001 6178 	and.w	r1, r1, #260046848	; 0xf800000
    171a:	f044 0410 	orr.w	r4, r4, #16
    171e:	430a      	orrs	r2, r1
    1720:	6004      	str	r4, [r0, #0]
    1722:	6342      	str	r2, [r0, #52]	; 0x34
    1724:	6882      	ldr	r2, [r0, #8]
    1726:	0752      	lsls	r2, r2, #29
    1728:	d5fc      	bpl.n	1724 <_mac_async_read_phy_reg+0x24>
    172a:	6b42      	ldr	r2, [r0, #52]	; 0x34
    172c:	801a      	strh	r2, [r3, #0]
    172e:	6803      	ldr	r3, [r0, #0]
    1730:	f023 0310 	bic.w	r3, r3, #16
    1734:	6003      	str	r3, [r0, #0]
    1736:	2000      	movs	r0, #0
    1738:	bd10      	pop	{r4, pc}
	...

0000173c <_mclk_init>:
    173c:	4b01      	ldr	r3, [pc, #4]	; (1744 <_mclk_init+0x8>)
    173e:	2201      	movs	r2, #1
    1740:	715a      	strb	r2, [r3, #5]
    1742:	4770      	bx	lr
    1744:	40000800 	.word	0x40000800

00001748 <_osc32kctrl_init_sources>:
    1748:	4b03      	ldr	r3, [pc, #12]	; (1758 <_osc32kctrl_init_sources+0x10>)
    174a:	69da      	ldr	r2, [r3, #28]
    174c:	f402 527c 	and.w	r2, r2, #16128	; 0x3f00
    1750:	61da      	str	r2, [r3, #28]
    1752:	2201      	movs	r2, #1
    1754:	741a      	strb	r2, [r3, #16]
    1756:	4770      	bx	lr
    1758:	40001400 	.word	0x40001400

0000175c <_oscctrl_init_sources>:
    175c:	4b03      	ldr	r3, [pc, #12]	; (176c <_oscctrl_init_sources+0x10>)
    175e:	4a04      	ldr	r2, [pc, #16]	; (1770 <_oscctrl_init_sources+0x14>)
    1760:	619a      	str	r2, [r3, #24]
    1762:	691a      	ldr	r2, [r3, #16]
    1764:	0792      	lsls	r2, r2, #30
    1766:	d5fc      	bpl.n	1762 <_oscctrl_init_sources+0x6>
    1768:	4770      	bx	lr
    176a:	bf00      	nop
    176c:	40001000 	.word	0x40001000
    1770:	03002606 	.word	0x03002606

00001774 <_oscctrl_init_referenced_generators>:
    1774:	4770      	bx	lr
	...

00001778 <RAMECC_Handler>:
    1778:	b507      	push	{r0, r1, r2, lr}
    177a:	4a0c      	ldr	r2, [pc, #48]	; (17ac <RAMECC_Handler+0x34>)
    177c:	7893      	ldrb	r3, [r2, #2]
    177e:	b2db      	uxtb	r3, r3
    1780:	9301      	str	r3, [sp, #4]
    1782:	9b01      	ldr	r3, [sp, #4]
    1784:	0799      	lsls	r1, r3, #30
    1786:	d507      	bpl.n	1798 <RAMECC_Handler+0x20>
    1788:	4b09      	ldr	r3, [pc, #36]	; (17b0 <RAMECC_Handler+0x38>)
    178a:	681b      	ldr	r3, [r3, #0]
    178c:	b123      	cbz	r3, 1798 <RAMECC_Handler+0x20>
    178e:	6850      	ldr	r0, [r2, #4]
    1790:	4798      	blx	r3
    1792:	b003      	add	sp, #12
    1794:	f85d fb04 	ldr.w	pc, [sp], #4
    1798:	9b01      	ldr	r3, [sp, #4]
    179a:	07db      	lsls	r3, r3, #31
    179c:	d5f9      	bpl.n	1792 <RAMECC_Handler+0x1a>
    179e:	4b04      	ldr	r3, [pc, #16]	; (17b0 <RAMECC_Handler+0x38>)
    17a0:	685b      	ldr	r3, [r3, #4]
    17a2:	2b00      	cmp	r3, #0
    17a4:	d0f5      	beq.n	1792 <RAMECC_Handler+0x1a>
    17a6:	4a01      	ldr	r2, [pc, #4]	; (17ac <RAMECC_Handler+0x34>)
    17a8:	e7f1      	b.n	178e <RAMECC_Handler+0x16>
    17aa:	bf00      	nop
    17ac:	41020000 	.word	0x41020000
    17b0:	20012980 	.word	0x20012980

000017b4 <hri_sercomusart_wait_for_sync>:
    17b4:	69c3      	ldr	r3, [r0, #28]
    17b6:	420b      	tst	r3, r1
    17b8:	d1fc      	bne.n	17b4 <hri_sercomusart_wait_for_sync>
    17ba:	4770      	bx	lr

000017bc <hri_sercomusart_clear_CTRLA_ENABLE_bit>:
    17bc:	6803      	ldr	r3, [r0, #0]
    17be:	f023 0302 	bic.w	r3, r3, #2
    17c2:	6003      	str	r3, [r0, #0]
    17c4:	2103      	movs	r1, #3
    17c6:	4b01      	ldr	r3, [pc, #4]	; (17cc <hri_sercomusart_clear_CTRLA_ENABLE_bit+0x10>)
    17c8:	4718      	bx	r3
    17ca:	bf00      	nop
    17cc:	000017b5 	.word	0x000017b5

000017d0 <_usart_init>:
    17d0:	b510      	push	{r4, lr}
    17d2:	69c3      	ldr	r3, [r0, #28]
    17d4:	4c15      	ldr	r4, [pc, #84]	; (182c <_usart_init+0x5c>)
    17d6:	f013 0f01 	tst.w	r3, #1
    17da:	4602      	mov	r2, r0
    17dc:	d10d      	bne.n	17fa <_usart_init+0x2a>
    17de:	2103      	movs	r1, #3
    17e0:	47a0      	blx	r4
    17e2:	6803      	ldr	r3, [r0, #0]
    17e4:	079b      	lsls	r3, r3, #30
    17e6:	d503      	bpl.n	17f0 <_usart_init+0x20>
    17e8:	4b11      	ldr	r3, [pc, #68]	; (1830 <_usart_init+0x60>)
    17ea:	4798      	blx	r3
    17ec:	2102      	movs	r1, #2
    17ee:	47a0      	blx	r4
    17f0:	2305      	movs	r3, #5
    17f2:	6013      	str	r3, [r2, #0]
    17f4:	2103      	movs	r1, #3
    17f6:	4610      	mov	r0, r2
    17f8:	47a0      	blx	r4
    17fa:	4610      	mov	r0, r2
    17fc:	2101      	movs	r1, #1
    17fe:	47a0      	blx	r4
    1800:	4b0c      	ldr	r3, [pc, #48]	; (1834 <_usart_init+0x64>)
    1802:	6013      	str	r3, [r2, #0]
    1804:	4610      	mov	r0, r2
    1806:	2103      	movs	r1, #3
    1808:	47a0      	blx	r4
    180a:	f44f 3340 	mov.w	r3, #196608	; 0x30000
    180e:	6053      	str	r3, [r2, #4]
    1810:	4610      	mov	r0, r2
    1812:	211f      	movs	r1, #31
    1814:	47a0      	blx	r4
    1816:	4b08      	ldr	r3, [pc, #32]	; (1838 <_usart_init+0x68>)
    1818:	6093      	str	r3, [r2, #8]
    181a:	2000      	movs	r0, #0
    181c:	f64f 43b9 	movw	r3, #64697	; 0xfcb9
    1820:	8193      	strh	r3, [r2, #12]
    1822:	7390      	strb	r0, [r2, #14]
    1824:	f882 0030 	strb.w	r0, [r2, #48]	; 0x30
    1828:	bd10      	pop	{r4, pc}
    182a:	bf00      	nop
    182c:	000017b5 	.word	0x000017b5
    1830:	000017bd 	.word	0x000017bd
    1834:	40100004 	.word	0x40100004
    1838:	00700002 	.word	0x00700002

0000183c <_usart_sync_init>:
    183c:	6001      	str	r1, [r0, #0]
    183e:	4b01      	ldr	r3, [pc, #4]	; (1844 <_usart_sync_init+0x8>)
    1840:	4608      	mov	r0, r1
    1842:	4718      	bx	r3
    1844:	000017d1 	.word	0x000017d1

00001848 <_usart_sync_enable>:
    1848:	6800      	ldr	r0, [r0, #0]
    184a:	6803      	ldr	r3, [r0, #0]
    184c:	f043 0302 	orr.w	r3, r3, #2
    1850:	6003      	str	r3, [r0, #0]
    1852:	2103      	movs	r1, #3
    1854:	4b00      	ldr	r3, [pc, #0]	; (1858 <_usart_sync_enable+0x10>)
    1856:	4718      	bx	r3
    1858:	000017b5 	.word	0x000017b5

0000185c <_usart_sync_write_byte>:
    185c:	6803      	ldr	r3, [r0, #0]
    185e:	6299      	str	r1, [r3, #40]	; 0x28
    1860:	4770      	bx	lr

00001862 <_usart_sync_read_byte>:
    1862:	6803      	ldr	r3, [r0, #0]
    1864:	6a98      	ldr	r0, [r3, #40]	; 0x28
    1866:	b2c0      	uxtb	r0, r0
    1868:	4770      	bx	lr

0000186a <_usart_sync_is_ready_to_send>:
    186a:	6803      	ldr	r3, [r0, #0]
    186c:	7e18      	ldrb	r0, [r3, #24]
    186e:	f000 0001 	and.w	r0, r0, #1
    1872:	4770      	bx	lr

00001874 <_usart_sync_is_transmit_done>:
    1874:	6803      	ldr	r3, [r0, #0]
    1876:	7e18      	ldrb	r0, [r3, #24]
    1878:	f3c0 0040 	ubfx	r0, r0, #1, #1
    187c:	4770      	bx	lr

0000187e <_usart_sync_is_byte_received>:
    187e:	6803      	ldr	r3, [r0, #0]
    1880:	7e18      	ldrb	r0, [r3, #24]
    1882:	f3c0 0080 	ubfx	r0, r0, #2, #1
    1886:	4770      	bx	lr

00001888 <__NVIC_DisableIRQ>:
    1888:	2800      	cmp	r0, #0
    188a:	db0d      	blt.n	18a8 <__NVIC_DisableIRQ+0x20>
    188c:	0943      	lsrs	r3, r0, #5
    188e:	2201      	movs	r2, #1
    1890:	f000 001f 	and.w	r0, r0, #31
    1894:	fa02 f000 	lsl.w	r0, r2, r0
    1898:	3320      	adds	r3, #32
    189a:	4a04      	ldr	r2, [pc, #16]	; (18ac <__NVIC_DisableIRQ+0x24>)
    189c:	f842 0023 	str.w	r0, [r2, r3, lsl #2]
    18a0:	f3bf 8f4f 	dsb	sy
    18a4:	f3bf 8f6f 	isb	sy
    18a8:	4770      	bx	lr
    18aa:	bf00      	nop
    18ac:	e000e100 	.word	0xe000e100

000018b0 <hri_tc_wait_for_sync>:
    18b0:	6903      	ldr	r3, [r0, #16]
    18b2:	420b      	tst	r3, r1
    18b4:	d1fc      	bne.n	18b0 <hri_tc_wait_for_sync>
    18b6:	4770      	bx	lr

000018b8 <tc_pwm_interrupt_handler>:
    18b8:	b570      	push	{r4, r5, r6, lr}
    18ba:	6905      	ldr	r5, [r0, #16]
    18bc:	7aab      	ldrb	r3, [r5, #10]
    18be:	07da      	lsls	r2, r3, #31
    18c0:	4604      	mov	r4, r0
    18c2:	d504      	bpl.n	18ce <tc_pwm_interrupt_handler+0x16>
    18c4:	2301      	movs	r3, #1
    18c6:	72ab      	strb	r3, [r5, #10]
    18c8:	6803      	ldr	r3, [r0, #0]
    18ca:	b103      	cbz	r3, 18ce <tc_pwm_interrupt_handler+0x16>
    18cc:	4798      	blx	r3
    18ce:	7a6b      	ldrb	r3, [r5, #9]
    18d0:	079b      	lsls	r3, r3, #30
    18d2:	d507      	bpl.n	18e4 <tc_pwm_interrupt_handler+0x2c>
    18d4:	2302      	movs	r3, #2
    18d6:	72ab      	strb	r3, [r5, #10]
    18d8:	6863      	ldr	r3, [r4, #4]
    18da:	b11b      	cbz	r3, 18e4 <tc_pwm_interrupt_handler+0x2c>
    18dc:	4620      	mov	r0, r4
    18de:	e8bd 4070 	ldmia.w	sp!, {r4, r5, r6, lr}
    18e2:	4718      	bx	r3
    18e4:	bd70      	pop	{r4, r5, r6, pc}
	...

000018e8 <get_tc_index>:
    18e8:	b570      	push	{r4, r5, r6, lr}
    18ea:	4d15      	ldr	r5, [pc, #84]	; (1940 <get_tc_index+0x58>)
    18ec:	4606      	mov	r6, r0
    18ee:	cd0f      	ldmia	r5!, {r0, r1, r2, r3}
    18f0:	b088      	sub	sp, #32
    18f2:	466c      	mov	r4, sp
    18f4:	c40f      	stmia	r4!, {r0, r1, r2, r3}
    18f6:	e895 000f 	ldmia.w	r5, {r0, r1, r2, r3}
    18fa:	e884 000f 	stmia.w	r4, {r0, r1, r2, r3}
    18fe:	2300      	movs	r3, #0
    1900:	f85d 2023 	ldr.w	r2, [sp, r3, lsl #2]
    1904:	42b2      	cmp	r2, r6
    1906:	d10f      	bne.n	1928 <get_tc_index+0x40>
    1908:	b2db      	uxtb	r3, r3
    190a:	4a0e      	ldr	r2, [pc, #56]	; (1944 <get_tc_index+0x5c>)
    190c:	7811      	ldrb	r1, [r2, #0]
    190e:	4299      	cmp	r1, r3
    1910:	d00f      	beq.n	1932 <get_tc_index+0x4a>
    1912:	7d11      	ldrb	r1, [r2, #20]
    1914:	4299      	cmp	r1, r3
    1916:	d00e      	beq.n	1936 <get_tc_index+0x4e>
    1918:	f892 2028 	ldrb.w	r2, [r2, #40]	; 0x28
    191c:	429a      	cmp	r2, r3
    191e:	d10c      	bne.n	193a <get_tc_index+0x52>
    1920:	2002      	movs	r0, #2
    1922:	b240      	sxtb	r0, r0
    1924:	b008      	add	sp, #32
    1926:	bd70      	pop	{r4, r5, r6, pc}
    1928:	3301      	adds	r3, #1
    192a:	2b08      	cmp	r3, #8
    192c:	d1e8      	bne.n	1900 <get_tc_index+0x18>
    192e:	2300      	movs	r3, #0
    1930:	e7eb      	b.n	190a <get_tc_index+0x22>
    1932:	2000      	movs	r0, #0
    1934:	e7f5      	b.n	1922 <get_tc_index+0x3a>
    1936:	2001      	movs	r0, #1
    1938:	e7f3      	b.n	1922 <get_tc_index+0x3a>
    193a:	f04f 30ff 	mov.w	r0, #4294967295
    193e:	e7f1      	b.n	1924 <get_tc_index+0x3c>
    1940:	0000b9ac 	.word	0x0000b9ac
    1944:	20000000 	.word	0x20000000

00001948 <_pwm_init>:
    1948:	e92d 43f8 	stmdb	sp!, {r3, r4, r5, r6, r7, r8, r9, lr}
    194c:	4680      	mov	r8, r0
    194e:	460c      	mov	r4, r1
    1950:	4b3e      	ldr	r3, [pc, #248]	; (1a4c <_pwm_init+0x104>)
    1952:	4608      	mov	r0, r1
    1954:	4798      	blx	r3
    1956:	f8c8 4010 	str.w	r4, [r8, #16]
    195a:	6923      	ldr	r3, [r4, #16]
    195c:	4a3c      	ldr	r2, [pc, #240]	; (1a50 <_pwm_init+0x108>)
    195e:	f013 0f01 	tst.w	r3, #1
    1962:	4607      	mov	r7, r0
    1964:	d114      	bne.n	1990 <_pwm_init+0x48>
    1966:	2103      	movs	r1, #3
    1968:	4620      	mov	r0, r4
    196a:	4790      	blx	r2
    196c:	6823      	ldr	r3, [r4, #0]
    196e:	079b      	lsls	r3, r3, #30
    1970:	d509      	bpl.n	1986 <_pwm_init+0x3e>
    1972:	6823      	ldr	r3, [r4, #0]
    1974:	f023 0302 	bic.w	r3, r3, #2
    1978:	2103      	movs	r1, #3
    197a:	4620      	mov	r0, r4
    197c:	6023      	str	r3, [r4, #0]
    197e:	4790      	blx	r2
    1980:	2102      	movs	r1, #2
    1982:	4620      	mov	r0, r4
    1984:	4790      	blx	r2
    1986:	2301      	movs	r3, #1
    1988:	6023      	str	r3, [r4, #0]
    198a:	2103      	movs	r1, #3
    198c:	4620      	mov	r0, r4
    198e:	4790      	blx	r2
    1990:	f8df 90d4 	ldr.w	r9, [pc, #212]	; 1a68 <_pwm_init+0x120>
    1994:	2514      	movs	r5, #20
    1996:	fb05 9507 	mla	r5, r5, r7, r9
    199a:	2101      	movs	r1, #1
    199c:	4620      	mov	r0, r4
    199e:	4790      	blx	r2
    19a0:	686e      	ldr	r6, [r5, #4]
    19a2:	6026      	str	r6, [r4, #0]
    19a4:	2103      	movs	r1, #3
    19a6:	4620      	mov	r0, r4
    19a8:	4790      	blx	r2
    19aa:	7aab      	ldrb	r3, [r5, #10]
    19ac:	73e3      	strb	r3, [r4, #15]
    19ae:	f006 060c 	and.w	r6, r6, #12
    19b2:	892b      	ldrh	r3, [r5, #8]
    19b4:	80e3      	strh	r3, [r4, #6]
    19b6:	2e08      	cmp	r6, #8
    19b8:	f04f 0303 	mov.w	r3, #3
    19bc:	7323      	strb	r3, [r4, #12]
    19be:	d129      	bne.n	1a14 <_pwm_init+0xcc>
    19c0:	68eb      	ldr	r3, [r5, #12]
    19c2:	61e3      	str	r3, [r4, #28]
    19c4:	21c0      	movs	r1, #192	; 0xc0
    19c6:	4620      	mov	r0, r4
    19c8:	4790      	blx	r2
    19ca:	692b      	ldr	r3, [r5, #16]
    19cc:	6223      	str	r3, [r4, #32]
    19ce:	21c0      	movs	r1, #192	; 0xc0
    19d0:	4620      	mov	r0, r4
    19d2:	4790      	blx	r2
    19d4:	4b1f      	ldr	r3, [pc, #124]	; (1a54 <_pwm_init+0x10c>)
    19d6:	429c      	cmp	r4, r3
    19d8:	d125      	bne.n	1a26 <_pwm_init+0xde>
    19da:	4b1f      	ldr	r3, [pc, #124]	; (1a58 <_pwm_init+0x110>)
    19dc:	f8c3 8000 	str.w	r8, [r3]
    19e0:	2314      	movs	r3, #20
    19e2:	fb03 9707 	mla	r7, r3, r7, r9
    19e6:	4b1d      	ldr	r3, [pc, #116]	; (1a5c <_pwm_init+0x114>)
    19e8:	f9b7 1002 	ldrsh.w	r1, [r7, #2]
    19ec:	4608      	mov	r0, r1
    19ee:	4798      	blx	r3
    19f0:	2900      	cmp	r1, #0
    19f2:	db0c      	blt.n	1a0e <_pwm_init+0xc6>
    19f4:	f001 021f 	and.w	r2, r1, #31
    19f8:	0949      	lsrs	r1, r1, #5
    19fa:	0089      	lsls	r1, r1, #2
    19fc:	f101 4160 	add.w	r1, r1, #3758096384	; 0xe0000000
    1a00:	f501 4161 	add.w	r1, r1, #57600	; 0xe100
    1a04:	2301      	movs	r3, #1
    1a06:	4093      	lsls	r3, r2
    1a08:	f8c1 3180 	str.w	r3, [r1, #384]	; 0x180
    1a0c:	600b      	str	r3, [r1, #0]
    1a0e:	2000      	movs	r0, #0
    1a10:	e8bd 83f8 	ldmia.w	sp!, {r3, r4, r5, r6, r7, r8, r9, pc}
    1a14:	b9ae      	cbnz	r6, 1a42 <_pwm_init+0xfa>
    1a16:	89ab      	ldrh	r3, [r5, #12]
    1a18:	83a3      	strh	r3, [r4, #28]
    1a1a:	21c0      	movs	r1, #192	; 0xc0
    1a1c:	4620      	mov	r0, r4
    1a1e:	4790      	blx	r2
    1a20:	8a2b      	ldrh	r3, [r5, #16]
    1a22:	83e3      	strh	r3, [r4, #30]
    1a24:	e7d3      	b.n	19ce <_pwm_init+0x86>
    1a26:	4b0e      	ldr	r3, [pc, #56]	; (1a60 <_pwm_init+0x118>)
    1a28:	429c      	cmp	r4, r3
    1a2a:	d103      	bne.n	1a34 <_pwm_init+0xec>
    1a2c:	4b0a      	ldr	r3, [pc, #40]	; (1a58 <_pwm_init+0x110>)
    1a2e:	f8c3 8004 	str.w	r8, [r3, #4]
    1a32:	e7d5      	b.n	19e0 <_pwm_init+0x98>
    1a34:	4b0b      	ldr	r3, [pc, #44]	; (1a64 <_pwm_init+0x11c>)
    1a36:	429c      	cmp	r4, r3
    1a38:	bf04      	itt	eq
    1a3a:	4b07      	ldreq	r3, [pc, #28]	; (1a58 <_pwm_init+0x110>)
    1a3c:	f8c3 8008 	streq.w	r8, [r3, #8]
    1a40:	e7ce      	b.n	19e0 <_pwm_init+0x98>
    1a42:	f04f 30ff 	mov.w	r0, #4294967295
    1a46:	e8bd 83f8 	ldmia.w	sp!, {r3, r4, r5, r6, r7, r8, r9, pc}
    1a4a:	bf00      	nop
    1a4c:	000018e9 	.word	0x000018e9
    1a50:	000018b1 	.word	0x000018b1
    1a54:	40003800 	.word	0x40003800
    1a58:	20001564 	.word	0x20001564
    1a5c:	00001889 	.word	0x00001889
    1a60:	42001400 	.word	0x42001400
    1a64:	42001800 	.word	0x42001800
    1a68:	20000000 	.word	0x20000000

00001a6c <_pwm_enable>:
    1a6c:	6900      	ldr	r0, [r0, #16]
    1a6e:	6803      	ldr	r3, [r0, #0]
    1a70:	f043 0302 	orr.w	r3, r3, #2
    1a74:	6003      	str	r3, [r0, #0]
    1a76:	2103      	movs	r1, #3
    1a78:	4b00      	ldr	r3, [pc, #0]	; (1a7c <_pwm_enable+0x10>)
    1a7a:	4718      	bx	r3
    1a7c:	000018b1 	.word	0x000018b1

00001a80 <_pwm_set_param>:
    1a80:	b570      	push	{r4, r5, r6, lr}
    1a82:	6904      	ldr	r4, [r0, #16]
    1a84:	4b11      	ldr	r3, [pc, #68]	; (1acc <_pwm_set_param+0x4c>)
    1a86:	4620      	mov	r0, r4
    1a88:	4615      	mov	r5, r2
    1a8a:	460e      	mov	r6, r1
    1a8c:	4798      	blx	r3
    1a8e:	4a10      	ldr	r2, [pc, #64]	; (1ad0 <_pwm_set_param+0x50>)
    1a90:	2314      	movs	r3, #20
    1a92:	fb03 2000 	mla	r0, r3, r0, r2
    1a96:	4a0f      	ldr	r2, [pc, #60]	; (1ad4 <_pwm_set_param+0x54>)
    1a98:	6843      	ldr	r3, [r0, #4]
    1a9a:	60c6      	str	r6, [r0, #12]
    1a9c:	f003 030c 	and.w	r3, r3, #12
    1aa0:	2b08      	cmp	r3, #8
    1aa2:	6105      	str	r5, [r0, #16]
    1aa4:	d109      	bne.n	1aba <_pwm_set_param+0x3a>
    1aa6:	61e6      	str	r6, [r4, #28]
    1aa8:	21c0      	movs	r1, #192	; 0xc0
    1aaa:	4620      	mov	r0, r4
    1aac:	4790      	blx	r2
    1aae:	6225      	str	r5, [r4, #32]
    1ab0:	4620      	mov	r0, r4
    1ab2:	21c0      	movs	r1, #192	; 0xc0
    1ab4:	e8bd 4070 	ldmia.w	sp!, {r4, r5, r6, lr}
    1ab8:	4710      	bx	r2
    1aba:	b2b6      	uxth	r6, r6
    1abc:	83a6      	strh	r6, [r4, #28]
    1abe:	21c0      	movs	r1, #192	; 0xc0
    1ac0:	4620      	mov	r0, r4
    1ac2:	b2ad      	uxth	r5, r5
    1ac4:	4790      	blx	r2
    1ac6:	83e5      	strh	r5, [r4, #30]
    1ac8:	e7f2      	b.n	1ab0 <_pwm_set_param+0x30>
    1aca:	bf00      	nop
    1acc:	000018e9 	.word	0x000018e9
    1ad0:	20000000 	.word	0x20000000
    1ad4:	000018b1 	.word	0x000018b1

00001ad8 <_pwm_is_enabled>:
    1ad8:	6902      	ldr	r2, [r0, #16]
    1ada:	b508      	push	{r3, lr}
    1adc:	4610      	mov	r0, r2
    1ade:	2103      	movs	r1, #3
    1ae0:	4b02      	ldr	r3, [pc, #8]	; (1aec <_pwm_is_enabled+0x14>)
    1ae2:	4798      	blx	r3
    1ae4:	6810      	ldr	r0, [r2, #0]
    1ae6:	f3c0 0040 	ubfx	r0, r0, #1, #1
    1aea:	bd08      	pop	{r3, pc}
    1aec:	000018b1 	.word	0x000018b1

00001af0 <_tc_get_pwm>:
    1af0:	2000      	movs	r0, #0
    1af2:	4770      	bx	lr

00001af4 <TC0_Handler>:
    1af4:	4b01      	ldr	r3, [pc, #4]	; (1afc <TC0_Handler+0x8>)
    1af6:	6818      	ldr	r0, [r3, #0]
    1af8:	4b01      	ldr	r3, [pc, #4]	; (1b00 <TC0_Handler+0xc>)
    1afa:	4718      	bx	r3
    1afc:	20001564 	.word	0x20001564
    1b00:	000018b9 	.word	0x000018b9

00001b04 <TC4_Handler>:
    1b04:	4b01      	ldr	r3, [pc, #4]	; (1b0c <TC4_Handler+0x8>)
    1b06:	6858      	ldr	r0, [r3, #4]
    1b08:	4b01      	ldr	r3, [pc, #4]	; (1b10 <TC4_Handler+0xc>)
    1b0a:	4718      	bx	r3
    1b0c:	20001564 	.word	0x20001564
    1b10:	000018b9 	.word	0x000018b9

00001b14 <TC5_Handler>:
    1b14:	4b01      	ldr	r3, [pc, #4]	; (1b1c <TC5_Handler+0x8>)
    1b16:	6898      	ldr	r0, [r3, #8]
    1b18:	4b01      	ldr	r3, [pc, #4]	; (1b20 <TC5_Handler+0xc>)
    1b1a:	4718      	bx	r3
    1b1c:	20001564 	.word	0x20001564
    1b20:	000018b9 	.word	0x000018b9

00001b24 <mac_low_level_init>:
    1b24:	b51f      	push	{r0, r1, r2, r3, r4, lr}
    1b26:	4603      	mov	r3, r0
    1b28:	6a04      	ldr	r4, [r0, #32]
    1b2a:	f853 0f27 	ldr.w	r0, [r3, #39]!
    1b2e:	9001      	str	r0, [sp, #4]
    1b30:	889b      	ldrh	r3, [r3, #4]
    1b32:	f8ad 3008 	strh.w	r3, [sp, #8]
    1b36:	2100      	movs	r1, #0
    1b38:	aa01      	add	r2, sp, #4
    1b3a:	4620      	mov	r0, r4
    1b3c:	4b02      	ldr	r3, [pc, #8]	; (1b48 <mac_low_level_init+0x24>)
    1b3e:	f88d 100c 	strb.w	r1, [sp, #12]
    1b42:	4798      	blx	r3
    1b44:	b004      	add	sp, #16
    1b46:	bd10      	pop	{r4, pc}
    1b48:	00001001 	.word	0x00001001

00001b4c <mac_low_level_output>:
    1b4c:	e92d 43f8 	stmdb	sp!, {r3, r4, r5, r6, r7, r8, r9, lr}
    1b50:	460c      	mov	r4, r1
    1b52:	f8d0 8020 	ldr.w	r8, [r0, #32]
    1b56:	4e1b      	ldr	r6, [pc, #108]	; (1bc4 <mac_low_level_output+0x78>)
    1b58:	f06f 0101 	mvn.w	r1, #1
    1b5c:	4620      	mov	r0, r4
    1b5e:	47b0      	blx	r6
    1b60:	8920      	ldrh	r0, [r4, #8]
    1b62:	8962      	ldrh	r2, [r4, #10]
    1b64:	4282      	cmp	r2, r0
    1b66:	d109      	bne.n	1b7c <mac_low_level_output+0x30>
    1b68:	6861      	ldr	r1, [r4, #4]
    1b6a:	4b17      	ldr	r3, [pc, #92]	; (1bc8 <mac_low_level_output+0x7c>)
    1b6c:	4640      	mov	r0, r8
    1b6e:	4798      	blx	r3
    1b70:	2102      	movs	r1, #2
    1b72:	4620      	mov	r0, r4
    1b74:	47b0      	blx	r6
    1b76:	2000      	movs	r0, #0
    1b78:	e8bd 83f8 	ldmia.w	sp!, {r3, r4, r5, r6, r7, r8, r9, pc}
    1b7c:	1cc3      	adds	r3, r0, #3
    1b7e:	f64f 70fc 	movw	r0, #65532	; 0xfffc
    1b82:	4018      	ands	r0, r3
    1b84:	4b11      	ldr	r3, [pc, #68]	; (1bcc <mac_low_level_output+0x80>)
    1b86:	4798      	blx	r3
    1b88:	4607      	mov	r7, r0
    1b8a:	b1b0      	cbz	r0, 1bba <mac_low_level_output+0x6e>
    1b8c:	f8df 9044 	ldr.w	r9, [pc, #68]	; 1bd4 <mac_low_level_output+0x88>
    1b90:	4603      	mov	r3, r0
    1b92:	4625      	mov	r5, r4
    1b94:	896a      	ldrh	r2, [r5, #10]
    1b96:	6869      	ldr	r1, [r5, #4]
    1b98:	4618      	mov	r0, r3
    1b9a:	47c8      	blx	r9
    1b9c:	896a      	ldrh	r2, [r5, #10]
    1b9e:	682d      	ldr	r5, [r5, #0]
    1ba0:	4603      	mov	r3, r0
    1ba2:	4413      	add	r3, r2
    1ba4:	2d00      	cmp	r5, #0
    1ba6:	d1f5      	bne.n	1b94 <mac_low_level_output+0x48>
    1ba8:	8922      	ldrh	r2, [r4, #8]
    1baa:	4b07      	ldr	r3, [pc, #28]	; (1bc8 <mac_low_level_output+0x7c>)
    1bac:	4639      	mov	r1, r7
    1bae:	4640      	mov	r0, r8
    1bb0:	4798      	blx	r3
    1bb2:	4638      	mov	r0, r7
    1bb4:	4b06      	ldr	r3, [pc, #24]	; (1bd0 <mac_low_level_output+0x84>)
    1bb6:	4798      	blx	r3
    1bb8:	e7da      	b.n	1b70 <mac_low_level_output+0x24>
    1bba:	f04f 30ff 	mov.w	r0, #4294967295
    1bbe:	e8bd 83f8 	ldmia.w	sp!, {r3, r4, r5, r6, r7, r8, r9, pc}
    1bc2:	bf00      	nop
    1bc4:	0000472b 	.word	0x0000472b
    1bc8:	00000fb1 	.word	0x00000fb1
    1bcc:	00004415 	.word	0x00004415
    1bd0:	000042b1 	.word	0x000042b1
    1bd4:	0000a88f 	.word	0x0000a88f

00001bd8 <ethernetif_mac_input>:
    1bd8:	e92d 47f0 	stmdb	sp!, {r4, r5, r6, r7, r8, r9, sl, lr}
    1bdc:	f8df 8080 	ldr.w	r8, [pc, #128]	; 1c60 <ethernetif_mac_input+0x88>
    1be0:	f8df 9080 	ldr.w	r9, [pc, #128]	; 1c64 <ethernetif_mac_input+0x8c>
    1be4:	4f1b      	ldr	r7, [pc, #108]	; (1c54 <ethernetif_mac_input+0x7c>)
    1be6:	4605      	mov	r5, r0
    1be8:	6a2e      	ldr	r6, [r5, #32]
    1bea:	4630      	mov	r0, r6
    1bec:	47c0      	blx	r8
    1bee:	b280      	uxth	r0, r0
    1bf0:	b370      	cbz	r0, 1c50 <ethernetif_mac_input+0x78>
    1bf2:	1c81      	adds	r1, r0, #2
    1bf4:	2200      	movs	r2, #0
    1bf6:	b289      	uxth	r1, r1
    1bf8:	2003      	movs	r0, #3
    1bfa:	47c8      	blx	r9
    1bfc:	4604      	mov	r4, r0
    1bfe:	b300      	cbz	r0, 1c42 <ethernetif_mac_input+0x6a>
    1c00:	f06f 0101 	mvn.w	r1, #1
    1c04:	f8df a060 	ldr.w	sl, [pc, #96]	; 1c68 <ethernetif_mac_input+0x90>
    1c08:	47d0      	blx	sl
    1c0a:	8962      	ldrh	r2, [r4, #10]
    1c0c:	6861      	ldr	r1, [r4, #4]
    1c0e:	4630      	mov	r0, r6
    1c10:	47b8      	blx	r7
    1c12:	2102      	movs	r1, #2
    1c14:	4620      	mov	r0, r4
    1c16:	47d0      	blx	sl
    1c18:	6863      	ldr	r3, [r4, #4]
    1c1a:	89d8      	ldrh	r0, [r3, #14]
    1c1c:	4b0e      	ldr	r3, [pc, #56]	; (1c58 <ethernetif_mac_input+0x80>)
    1c1e:	4798      	blx	r3
    1c20:	f5b0 6f00 	cmp.w	r0, #2048	; 0x800
    1c24:	d003      	beq.n	1c2e <ethernetif_mac_input+0x56>
    1c26:	f640 0306 	movw	r3, #2054	; 0x806
    1c2a:	4298      	cmp	r0, r3
    1c2c:	d105      	bne.n	1c3a <ethernetif_mac_input+0x62>
    1c2e:	692b      	ldr	r3, [r5, #16]
    1c30:	4629      	mov	r1, r5
    1c32:	4620      	mov	r0, r4
    1c34:	4798      	blx	r3
    1c36:	2800      	cmp	r0, #0
    1c38:	d0d6      	beq.n	1be8 <ethernetif_mac_input+0x10>
    1c3a:	4620      	mov	r0, r4
    1c3c:	4b07      	ldr	r3, [pc, #28]	; (1c5c <ethernetif_mac_input+0x84>)
    1c3e:	4798      	blx	r3
    1c40:	e7d2      	b.n	1be8 <ethernetif_mac_input+0x10>
    1c42:	4602      	mov	r2, r0
    1c44:	4601      	mov	r1, r0
    1c46:	463b      	mov	r3, r7
    1c48:	4630      	mov	r0, r6
    1c4a:	e8bd 47f0 	ldmia.w	sp!, {r4, r5, r6, r7, r8, r9, sl, lr}
    1c4e:	4718      	bx	r3
    1c50:	e8bd 87f0 	ldmia.w	sp!, {r4, r5, r6, r7, r8, r9, sl, pc}
    1c54:	00000fb9 	.word	0x00000fb9
    1c58:	00003425 	.word	0x00003425
    1c5c:	00004785 	.word	0x00004785
    1c60:	00000fc1 	.word	0x00000fc1
    1c64:	000047dd 	.word	0x000047dd
    1c68:	0000472b 	.word	0x0000472b

00001c6c <sys_init>:
    1c6c:	4b01      	ldr	r3, [pc, #4]	; (1c74 <sys_init+0x8>)
    1c6e:	2200      	movs	r2, #0
    1c70:	801a      	strh	r2, [r3, #0]
    1c72:	4770      	bx	lr
    1c74:	20001570 	.word	0x20001570

00001c78 <sys_sem_new>:
    1c78:	b570      	push	{r4, r5, r6, lr}
    1c7a:	460c      	mov	r4, r1
    1c7c:	4605      	mov	r5, r0
    1c7e:	b1f0      	cbz	r0, 1cbe <sys_sem_new+0x46>
    1c80:	4b10      	ldr	r3, [pc, #64]	; (1cc4 <sys_sem_new+0x4c>)
    1c82:	4798      	blx	r3
    1c84:	2203      	movs	r2, #3
    1c86:	2100      	movs	r1, #0
    1c88:	2001      	movs	r0, #1
    1c8a:	4b0f      	ldr	r3, [pc, #60]	; (1cc8 <sys_sem_new+0x50>)
    1c8c:	4798      	blx	r3
    1c8e:	6028      	str	r0, [r5, #0]
    1c90:	b120      	cbz	r0, 1c9c <sys_sem_new+0x24>
    1c92:	2300      	movs	r3, #0
    1c94:	461a      	mov	r2, r3
    1c96:	4619      	mov	r1, r3
    1c98:	4e0c      	ldr	r6, [pc, #48]	; (1ccc <sys_sem_new+0x54>)
    1c9a:	47b0      	blx	r6
    1c9c:	6828      	ldr	r0, [r5, #0]
    1c9e:	b148      	cbz	r0, 1cb4 <sys_sem_new+0x3c>
    1ca0:	b95c      	cbnz	r4, 1cba <sys_sem_new+0x42>
    1ca2:	4623      	mov	r3, r4
    1ca4:	2201      	movs	r2, #1
    1ca6:	4621      	mov	r1, r4
    1ca8:	4d09      	ldr	r5, [pc, #36]	; (1cd0 <sys_sem_new+0x58>)
    1caa:	47a8      	blx	r5
    1cac:	4b09      	ldr	r3, [pc, #36]	; (1cd4 <sys_sem_new+0x5c>)
    1cae:	4798      	blx	r3
    1cb0:	4620      	mov	r0, r4
    1cb2:	bd70      	pop	{r4, r5, r6, pc}
    1cb4:	f04f 34ff 	mov.w	r4, #4294967295
    1cb8:	e7f8      	b.n	1cac <sys_sem_new+0x34>
    1cba:	2400      	movs	r4, #0
    1cbc:	e7f6      	b.n	1cac <sys_sem_new+0x34>
    1cbe:	f04f 34ff 	mov.w	r4, #4294967295
    1cc2:	e7f5      	b.n	1cb0 <sys_sem_new+0x38>
    1cc4:	00008501 	.word	0x00008501
    1cc8:	00008aa9 	.word	0x00008aa9
    1ccc:	00008b61 	.word	0x00008b61
    1cd0:	00008ead 	.word	0x00008ead
    1cd4:	00008545 	.word	0x00008545

00001cd8 <sys_sem_signal>:
    1cd8:	b410      	push	{r4}
    1cda:	b140      	cbz	r0, 1cee <sys_sem_signal+0x16>
    1cdc:	4c05      	ldr	r4, [pc, #20]	; (1cf4 <sys_sem_signal+0x1c>)
    1cde:	6800      	ldr	r0, [r0, #0]
    1ce0:	2300      	movs	r3, #0
    1ce2:	46a4      	mov	ip, r4
    1ce4:	461a      	mov	r2, r3
    1ce6:	4619      	mov	r1, r3
    1ce8:	f85d 4b04 	ldr.w	r4, [sp], #4
    1cec:	4760      	bx	ip
    1cee:	f85d 4b04 	ldr.w	r4, [sp], #4
    1cf2:	4770      	bx	lr
    1cf4:	00008b61 	.word	0x00008b61

00001cf8 <sys_arch_sem_wait>:
    1cf8:	e92d 41f0 	stmdb	sp!, {r4, r5, r6, r7, r8, lr}
    1cfc:	4688      	mov	r8, r1
    1cfe:	4606      	mov	r6, r0
    1d00:	b918      	cbnz	r0, 1d0a <sys_arch_sem_wait+0x12>
    1d02:	f04f 30ff 	mov.w	r0, #4294967295
    1d06:	e8bd 81f0 	ldmia.w	sp!, {r4, r5, r6, r7, r8, pc}
    1d0a:	4d0f      	ldr	r5, [pc, #60]	; (1d48 <sys_arch_sem_wait+0x50>)
    1d0c:	4f0f      	ldr	r7, [pc, #60]	; (1d4c <sys_arch_sem_wait+0x54>)
    1d0e:	b989      	cbnz	r1, 1d34 <sys_arch_sem_wait+0x3c>
    1d10:	47a8      	blx	r5
    1d12:	4604      	mov	r4, r0
    1d14:	2300      	movs	r3, #0
    1d16:	f242 7210 	movw	r2, #10000	; 0x2710
    1d1a:	4619      	mov	r1, r3
    1d1c:	6830      	ldr	r0, [r6, #0]
    1d1e:	47b8      	blx	r7
    1d20:	2800      	cmp	r0, #0
    1d22:	d0f7      	beq.n	1d14 <sys_arch_sem_wait+0x1c>
    1d24:	47a8      	blx	r5
    1d26:	4284      	cmp	r4, r0
    1d28:	bf88      	it	hi
    1d2a:	f100 30ff 	addhi.w	r0, r0, #4294967295
    1d2e:	1b00      	subs	r0, r0, r4
    1d30:	e8bd 81f0 	ldmia.w	sp!, {r4, r5, r6, r7, r8, pc}
    1d34:	47a8      	blx	r5
    1d36:	2300      	movs	r3, #0
    1d38:	4604      	mov	r4, r0
    1d3a:	4642      	mov	r2, r8
    1d3c:	4619      	mov	r1, r3
    1d3e:	6830      	ldr	r0, [r6, #0]
    1d40:	47b8      	blx	r7
    1d42:	2800      	cmp	r0, #0
    1d44:	d0dd      	beq.n	1d02 <sys_arch_sem_wait+0xa>
    1d46:	e7ed      	b.n	1d24 <sys_arch_sem_wait+0x2c>
    1d48:	000093cd 	.word	0x000093cd
    1d4c:	00008ead 	.word	0x00008ead

00001d50 <sys_sem_valid>:
    1d50:	6800      	ldr	r0, [r0, #0]
    1d52:	4770      	bx	lr

00001d54 <sys_sem_set_invalid>:
    1d54:	2300      	movs	r3, #0
    1d56:	6003      	str	r3, [r0, #0]
    1d58:	4770      	bx	lr
	...

00001d5c <sys_mbox_new>:
    1d5c:	b510      	push	{r4, lr}
    1d5e:	460b      	mov	r3, r1
    1d60:	4604      	mov	r4, r0
    1d62:	b138      	cbz	r0, 1d74 <sys_mbox_new+0x18>
    1d64:	2200      	movs	r2, #0
    1d66:	2104      	movs	r1, #4
    1d68:	4618      	mov	r0, r3
    1d6a:	4b04      	ldr	r3, [pc, #16]	; (1d7c <sys_mbox_new+0x20>)
    1d6c:	4798      	blx	r3
    1d6e:	6020      	str	r0, [r4, #0]
    1d70:	2000      	movs	r0, #0
    1d72:	bd10      	pop	{r4, pc}
    1d74:	f04f 30ff 	mov.w	r0, #4294967295
    1d78:	bd10      	pop	{r4, pc}
    1d7a:	bf00      	nop
    1d7c:	00008aa9 	.word	0x00008aa9

00001d80 <sys_mbox_free>:
    1d80:	b118      	cbz	r0, 1d8a <sys_mbox_free+0xa>
    1d82:	6800      	ldr	r0, [r0, #0]
    1d84:	b108      	cbz	r0, 1d8a <sys_mbox_free+0xa>
    1d86:	4b01      	ldr	r3, [pc, #4]	; (1d8c <sys_mbox_free+0xc>)
    1d88:	4718      	bx	r3
    1d8a:	4770      	bx	lr
    1d8c:	00009071 	.word	0x00009071

00001d90 <sys_sem_free>:
    1d90:	4b00      	ldr	r3, [pc, #0]	; (1d94 <sys_sem_free+0x4>)
    1d92:	4718      	bx	r3
    1d94:	00001d81 	.word	0x00001d81

00001d98 <sys_mbox_post>:
    1d98:	b537      	push	{r0, r1, r2, r4, r5, lr}
    1d9a:	4604      	mov	r4, r0
    1d9c:	9101      	str	r1, [sp, #4]
    1d9e:	b140      	cbz	r0, 1db2 <sys_mbox_post+0x1a>
    1da0:	4d05      	ldr	r5, [pc, #20]	; (1db8 <sys_mbox_post+0x20>)
    1da2:	6820      	ldr	r0, [r4, #0]
    1da4:	2300      	movs	r3, #0
    1da6:	f242 7210 	movw	r2, #10000	; 0x2710
    1daa:	a901      	add	r1, sp, #4
    1dac:	47a8      	blx	r5
    1dae:	2801      	cmp	r0, #1
    1db0:	d1f7      	bne.n	1da2 <sys_mbox_post+0xa>
    1db2:	b003      	add	sp, #12
    1db4:	bd30      	pop	{r4, r5, pc}
    1db6:	bf00      	nop
    1db8:	00008b61 	.word	0x00008b61

00001dbc <sys_mbox_trypost>:
    1dbc:	b51f      	push	{r0, r1, r2, r3, r4, lr}
    1dbe:	9101      	str	r1, [sp, #4]
    1dc0:	b330      	cbz	r0, 1e10 <sys_mbox_trypost+0x54>
    1dc2:	4b15      	ldr	r3, [pc, #84]	; (1e18 <sys_mbox_trypost+0x5c>)
    1dc4:	685b      	ldr	r3, [r3, #4]
    1dc6:	f3c3 0308 	ubfx	r3, r3, #0, #9
    1dca:	b1bb      	cbz	r3, 1dfc <sys_mbox_trypost+0x40>
    1dcc:	aa04      	add	r2, sp, #16
    1dce:	2300      	movs	r3, #0
    1dd0:	f842 3d04 	str.w	r3, [r2, #-4]!
    1dd4:	a901      	add	r1, sp, #4
    1dd6:	6800      	ldr	r0, [r0, #0]
    1dd8:	4c10      	ldr	r4, [pc, #64]	; (1e1c <sys_mbox_trypost+0x60>)
    1dda:	47a0      	blx	r4
    1ddc:	9b03      	ldr	r3, [sp, #12]
    1dde:	fab0 f080 	clz	r0, r0
    1de2:	0940      	lsrs	r0, r0, #5
    1de4:	4240      	negs	r0, r0
    1de6:	b13b      	cbz	r3, 1df8 <sys_mbox_trypost+0x3c>
    1de8:	4b0d      	ldr	r3, [pc, #52]	; (1e20 <sys_mbox_trypost+0x64>)
    1dea:	f04f 5280 	mov.w	r2, #268435456	; 0x10000000
    1dee:	601a      	str	r2, [r3, #0]
    1df0:	f3bf 8f4f 	dsb	sy
    1df4:	f3bf 8f6f 	isb	sy
    1df8:	b004      	add	sp, #16
    1dfa:	bd10      	pop	{r4, pc}
    1dfc:	461a      	mov	r2, r3
    1dfe:	a901      	add	r1, sp, #4
    1e00:	6800      	ldr	r0, [r0, #0]
    1e02:	4c08      	ldr	r4, [pc, #32]	; (1e24 <sys_mbox_trypost+0x68>)
    1e04:	47a0      	blx	r4
    1e06:	fab0 f080 	clz	r0, r0
    1e0a:	0940      	lsrs	r0, r0, #5
    1e0c:	4240      	negs	r0, r0
    1e0e:	e7f3      	b.n	1df8 <sys_mbox_trypost+0x3c>
    1e10:	f04f 30ff 	mov.w	r0, #4294967295
    1e14:	e7f0      	b.n	1df8 <sys_mbox_trypost+0x3c>
    1e16:	bf00      	nop
    1e18:	e000ed00 	.word	0xe000ed00
    1e1c:	00008d09 	.word	0x00008d09
    1e20:	e000ed04 	.word	0xe000ed04
    1e24:	00008b61 	.word	0x00008b61

00001e28 <sys_arch_mbox_fetch>:
    1e28:	e92d 43f7 	stmdb	sp!, {r0, r1, r2, r4, r5, r6, r7, r8, r9, lr}
    1e2c:	460d      	mov	r5, r1
    1e2e:	4691      	mov	r9, r2
    1e30:	4607      	mov	r7, r0
    1e32:	b320      	cbz	r0, 1e7e <sys_arch_mbox_fetch+0x56>
    1e34:	b901      	cbnz	r1, 1e38 <sys_arch_mbox_fetch+0x10>
    1e36:	ad01      	add	r5, sp, #4
    1e38:	4e12      	ldr	r6, [pc, #72]	; (1e84 <sys_arch_mbox_fetch+0x5c>)
    1e3a:	f8df 804c 	ldr.w	r8, [pc, #76]	; 1e88 <sys_arch_mbox_fetch+0x60>
    1e3e:	f1b9 0f00 	cmp.w	r9, #0
    1e42:	d112      	bne.n	1e6a <sys_arch_mbox_fetch+0x42>
    1e44:	47b0      	blx	r6
    1e46:	4604      	mov	r4, r0
    1e48:	2300      	movs	r3, #0
    1e4a:	f242 7210 	movw	r2, #10000	; 0x2710
    1e4e:	4629      	mov	r1, r5
    1e50:	6838      	ldr	r0, [r7, #0]
    1e52:	47c0      	blx	r8
    1e54:	2800      	cmp	r0, #0
    1e56:	d0f7      	beq.n	1e48 <sys_arch_mbox_fetch+0x20>
    1e58:	47b0      	blx	r6
    1e5a:	4284      	cmp	r4, r0
    1e5c:	bf88      	it	hi
    1e5e:	f100 30ff 	addhi.w	r0, r0, #4294967295
    1e62:	1b00      	subs	r0, r0, r4
    1e64:	b003      	add	sp, #12
    1e66:	e8bd 83f0 	ldmia.w	sp!, {r4, r5, r6, r7, r8, r9, pc}
    1e6a:	47b0      	blx	r6
    1e6c:	2300      	movs	r3, #0
    1e6e:	4604      	mov	r4, r0
    1e70:	464a      	mov	r2, r9
    1e72:	4629      	mov	r1, r5
    1e74:	6838      	ldr	r0, [r7, #0]
    1e76:	47c0      	blx	r8
    1e78:	2800      	cmp	r0, #0
    1e7a:	d1ed      	bne.n	1e58 <sys_arch_mbox_fetch+0x30>
    1e7c:	6028      	str	r0, [r5, #0]
    1e7e:	f04f 30ff 	mov.w	r0, #4294967295
    1e82:	e7ef      	b.n	1e64 <sys_arch_mbox_fetch+0x3c>
    1e84:	000093cd 	.word	0x000093cd
    1e88:	00008ead 	.word	0x00008ead

00001e8c <sys_arch_mbox_tryfetch>:
    1e8c:	b513      	push	{r0, r1, r4, lr}
    1e8e:	b160      	cbz	r0, 1eaa <sys_arch_mbox_tryfetch+0x1e>
    1e90:	b901      	cbnz	r1, 1e94 <sys_arch_mbox_tryfetch+0x8>
    1e92:	a901      	add	r1, sp, #4
    1e94:	2300      	movs	r3, #0
    1e96:	461a      	mov	r2, r3
    1e98:	6800      	ldr	r0, [r0, #0]
    1e9a:	4c05      	ldr	r4, [pc, #20]	; (1eb0 <sys_arch_mbox_tryfetch+0x24>)
    1e9c:	47a0      	blx	r4
    1e9e:	fab0 f080 	clz	r0, r0
    1ea2:	0940      	lsrs	r0, r0, #5
    1ea4:	4240      	negs	r0, r0
    1ea6:	b002      	add	sp, #8
    1ea8:	bd10      	pop	{r4, pc}
    1eaa:	f04f 30ff 	mov.w	r0, #4294967295
    1eae:	e7fa      	b.n	1ea6 <sys_arch_mbox_tryfetch+0x1a>
    1eb0:	00008ead 	.word	0x00008ead

00001eb4 <sys_mbox_valid>:
    1eb4:	6800      	ldr	r0, [r0, #0]
    1eb6:	4770      	bx	lr

00001eb8 <sys_mbox_set_invalid>:
    1eb8:	2300      	movs	r3, #0
    1eba:	6003      	str	r3, [r0, #0]
    1ebc:	4770      	bx	lr
	...

00001ec0 <sys_thread_new>:
    1ec0:	b530      	push	{r4, r5, lr}
    1ec2:	b087      	sub	sp, #28
    1ec4:	460d      	mov	r5, r1
    1ec6:	b299      	uxth	r1, r3
    1ec8:	ab05      	add	r3, sp, #20
    1eca:	2400      	movs	r4, #0
    1ecc:	9301      	str	r3, [sp, #4]
    1ece:	9b0a      	ldr	r3, [sp, #40]	; 0x28
    1ed0:	9300      	str	r3, [sp, #0]
    1ed2:	9403      	str	r4, [sp, #12]
    1ed4:	4613      	mov	r3, r2
    1ed6:	9402      	str	r4, [sp, #8]
    1ed8:	460a      	mov	r2, r1
    1eda:	4601      	mov	r1, r0
    1edc:	4628      	mov	r0, r5
    1ede:	4d06      	ldr	r5, [pc, #24]	; (1ef8 <sys_thread_new+0x38>)
    1ee0:	47a8      	blx	r5
    1ee2:	2801      	cmp	r0, #1
    1ee4:	bf0a      	itet	eq
    1ee6:	4a05      	ldreq	r2, [pc, #20]	; (1efc <sys_thread_new+0x3c>)
    1ee8:	9405      	strne	r4, [sp, #20]
    1eea:	8813      	ldrheq	r3, [r2, #0]
    1eec:	9805      	ldr	r0, [sp, #20]
    1eee:	bf04      	itt	eq
    1ef0:	3301      	addeq	r3, #1
    1ef2:	8013      	strheq	r3, [r2, #0]
    1ef4:	b007      	add	sp, #28
    1ef6:	bd30      	pop	{r4, r5, pc}
    1ef8:	000092f9 	.word	0x000092f9
    1efc:	20001570 	.word	0x20001570

00001f00 <netconn_recv_data>:
    1f00:	b5f0      	push	{r4, r5, r6, r7, lr}
    1f02:	b089      	sub	sp, #36	; 0x24
    1f04:	2600      	movs	r6, #0
    1f06:	4604      	mov	r4, r0
    1f08:	9601      	str	r6, [sp, #4]
    1f0a:	460d      	mov	r5, r1
    1f0c:	b901      	cbnz	r1, 1f10 <netconn_recv_data+0x10>
    1f0e:	e7fe      	b.n	1f0e <netconn_recv_data+0xe>
    1f10:	600e      	str	r6, [r1, #0]
    1f12:	b900      	cbnz	r0, 1f16 <netconn_recv_data+0x16>
    1f14:	e7fe      	b.n	1f14 <netconn_recv_data+0x14>
    1f16:	f100 0710 	add.w	r7, r0, #16
    1f1a:	4638      	mov	r0, r7
    1f1c:	4b1f      	ldr	r3, [pc, #124]	; (1f9c <netconn_recv_data+0x9c>)
    1f1e:	4798      	blx	r3
    1f20:	b900      	cbnz	r0, 1f24 <netconn_recv_data+0x24>
    1f22:	e7fe      	b.n	1f22 <netconn_recv_data+0x22>
    1f24:	f994 0008 	ldrsb.w	r0, [r4, #8]
    1f28:	f110 0f09 	cmn.w	r0, #9
    1f2c:	db30      	blt.n	1f90 <netconn_recv_data+0x90>
    1f2e:	4b1c      	ldr	r3, [pc, #112]	; (1fa0 <netconn_recv_data+0xa0>)
    1f30:	4632      	mov	r2, r6
    1f32:	a901      	add	r1, sp, #4
    1f34:	4638      	mov	r0, r7
    1f36:	4798      	blx	r3
    1f38:	7823      	ldrb	r3, [r4, #0]
    1f3a:	2b10      	cmp	r3, #16
    1f3c:	9b01      	ldr	r3, [sp, #4]
    1f3e:	d129      	bne.n	1f94 <netconn_recv_data+0x94>
    1f40:	7f22      	ldrb	r2, [r4, #28]
    1f42:	0712      	lsls	r2, r2, #28
    1f44:	d500      	bpl.n	1f48 <netconn_recv_data+0x48>
    1f46:	b943      	cbnz	r3, 1f5a <netconn_recv_data+0x5a>
    1f48:	4a16      	ldr	r2, [pc, #88]	; (1fa4 <netconn_recv_data+0xa4>)
    1f4a:	9202      	str	r2, [sp, #8]
    1f4c:	9403      	str	r4, [sp, #12]
    1f4e:	b1a3      	cbz	r3, 1f7a <netconn_recv_data+0x7a>
    1f50:	891b      	ldrh	r3, [r3, #8]
    1f52:	9305      	str	r3, [sp, #20]
    1f54:	a802      	add	r0, sp, #8
    1f56:	4b14      	ldr	r3, [pc, #80]	; (1fa8 <netconn_recv_data+0xa8>)
    1f58:	4798      	blx	r3
    1f5a:	9a01      	ldr	r2, [sp, #4]
    1f5c:	b97a      	cbnz	r2, 1f7e <netconn_recv_data+0x7e>
    1f5e:	6aa3      	ldr	r3, [r4, #40]	; 0x28
    1f60:	b113      	cbz	r3, 1f68 <netconn_recv_data+0x68>
    1f62:	2101      	movs	r1, #1
    1f64:	4620      	mov	r0, r4
    1f66:	4798      	blx	r3
    1f68:	f994 3008 	ldrsb.w	r3, [r4, #8]
    1f6c:	3309      	adds	r3, #9
    1f6e:	db01      	blt.n	1f74 <netconn_recv_data+0x74>
    1f70:	23f4      	movs	r3, #244	; 0xf4
    1f72:	7223      	strb	r3, [r4, #8]
    1f74:	f06f 000b 	mvn.w	r0, #11
    1f78:	e00a      	b.n	1f90 <netconn_recv_data+0x90>
    1f7a:	2301      	movs	r3, #1
    1f7c:	e7e9      	b.n	1f52 <netconn_recv_data+0x52>
    1f7e:	8912      	ldrh	r2, [r2, #8]
    1f80:	6aa3      	ldr	r3, [r4, #40]	; 0x28
    1f82:	b113      	cbz	r3, 1f8a <netconn_recv_data+0x8a>
    1f84:	2101      	movs	r1, #1
    1f86:	4620      	mov	r0, r4
    1f88:	4798      	blx	r3
    1f8a:	9b01      	ldr	r3, [sp, #4]
    1f8c:	602b      	str	r3, [r5, #0]
    1f8e:	2000      	movs	r0, #0
    1f90:	b009      	add	sp, #36	; 0x24
    1f92:	bdf0      	pop	{r4, r5, r6, r7, pc}
    1f94:	681b      	ldr	r3, [r3, #0]
    1f96:	891a      	ldrh	r2, [r3, #8]
    1f98:	e7f2      	b.n	1f80 <netconn_recv_data+0x80>
    1f9a:	bf00      	nop
    1f9c:	00001eb5 	.word	0x00001eb5
    1fa0:	00001e29 	.word	0x00001e29
    1fa4:	000029ed 	.word	0x000029ed
    1fa8:	00003395 	.word	0x00003395

00001fac <netconn_new_with_proto_and_callback>:
    1fac:	b530      	push	{r4, r5, lr}
    1fae:	4b10      	ldr	r3, [pc, #64]	; (1ff0 <netconn_new_with_proto_and_callback+0x44>)
    1fb0:	b087      	sub	sp, #28
    1fb2:	460d      	mov	r5, r1
    1fb4:	4611      	mov	r1, r2
    1fb6:	4798      	blx	r3
    1fb8:	4604      	mov	r4, r0
    1fba:	b1a8      	cbz	r0, 1fe8 <netconn_new_with_proto_and_callback+0x3c>
    1fbc:	4b0d      	ldr	r3, [pc, #52]	; (1ff4 <netconn_new_with_proto_and_callback+0x48>)
    1fbe:	9300      	str	r3, [sp, #0]
    1fc0:	9001      	str	r0, [sp, #4]
    1fc2:	4b0d      	ldr	r3, [pc, #52]	; (1ff8 <netconn_new_with_proto_and_callback+0x4c>)
    1fc4:	f88d 500c 	strb.w	r5, [sp, #12]
    1fc8:	4668      	mov	r0, sp
    1fca:	4798      	blx	r3
    1fcc:	b160      	cbz	r0, 1fe8 <netconn_new_with_proto_and_callback+0x3c>
    1fce:	f104 000c 	add.w	r0, r4, #12
    1fd2:	4b0a      	ldr	r3, [pc, #40]	; (1ffc <netconn_new_with_proto_and_callback+0x50>)
    1fd4:	4798      	blx	r3
    1fd6:	f104 0010 	add.w	r0, r4, #16
    1fda:	4b09      	ldr	r3, [pc, #36]	; (2000 <netconn_new_with_proto_and_callback+0x54>)
    1fdc:	4798      	blx	r3
    1fde:	4621      	mov	r1, r4
    1fe0:	2007      	movs	r0, #7
    1fe2:	4b08      	ldr	r3, [pc, #32]	; (2004 <netconn_new_with_proto_and_callback+0x58>)
    1fe4:	4798      	blx	r3
    1fe6:	2400      	movs	r4, #0
    1fe8:	4620      	mov	r0, r4
    1fea:	b007      	add	sp, #28
    1fec:	bd30      	pop	{r4, r5, pc}
    1fee:	bf00      	nop
    1ff0:	00002735 	.word	0x00002735
    1ff4:	000026b9 	.word	0x000026b9
    1ff8:	00003395 	.word	0x00003395
    1ffc:	00001d91 	.word	0x00001d91
    2000:	00001d81 	.word	0x00001d81
    2004:	00004559 	.word	0x00004559

00002008 <netconn_delete>:
    2008:	b510      	push	{r4, lr}
    200a:	4604      	mov	r4, r0
    200c:	b086      	sub	sp, #24
    200e:	b140      	cbz	r0, 2022 <netconn_delete+0x1a>
    2010:	4b05      	ldr	r3, [pc, #20]	; (2028 <netconn_delete+0x20>)
    2012:	4668      	mov	r0, sp
    2014:	e88d 0018 	stmia.w	sp, {r3, r4}
    2018:	4b04      	ldr	r3, [pc, #16]	; (202c <netconn_delete+0x24>)
    201a:	4798      	blx	r3
    201c:	4620      	mov	r0, r4
    201e:	4b04      	ldr	r3, [pc, #16]	; (2030 <netconn_delete+0x28>)
    2020:	4798      	blx	r3
    2022:	2000      	movs	r0, #0
    2024:	b006      	add	sp, #24
    2026:	bd10      	pop	{r4, pc}
    2028:	0000289d 	.word	0x0000289d
    202c:	00003395 	.word	0x00003395
    2030:	000027ad 	.word	0x000027ad

00002034 <netconn_getaddr>:
    2034:	b510      	push	{r4, lr}
    2036:	4604      	mov	r4, r0
    2038:	b086      	sub	sp, #24
    203a:	b900      	cbnz	r0, 203e <netconn_getaddr+0xa>
    203c:	e7fe      	b.n	203c <netconn_getaddr+0x8>
    203e:	b901      	cbnz	r1, 2042 <netconn_getaddr+0xe>
    2040:	e7fe      	b.n	2040 <netconn_getaddr+0xc>
    2042:	b902      	cbnz	r2, 2046 <netconn_getaddr+0x12>
    2044:	e7fe      	b.n	2044 <netconn_getaddr+0x10>
    2046:	4808      	ldr	r0, [pc, #32]	; (2068 <netconn_getaddr+0x34>)
    2048:	f88d 3014 	strb.w	r3, [sp, #20]
    204c:	e88d 0011 	stmia.w	sp, {r0, r4}
    2050:	4b06      	ldr	r3, [pc, #24]	; (206c <netconn_getaddr+0x38>)
    2052:	9103      	str	r1, [sp, #12]
    2054:	4668      	mov	r0, sp
    2056:	9204      	str	r2, [sp, #16]
    2058:	4798      	blx	r3
    205a:	f994 3008 	ldrsb.w	r3, [r4, #8]
    205e:	3309      	adds	r3, #9
    2060:	bfa8      	it	ge
    2062:	7220      	strbge	r0, [r4, #8]
    2064:	b006      	add	sp, #24
    2066:	bd10      	pop	{r4, pc}
    2068:	00002a79 	.word	0x00002a79
    206c:	00003395 	.word	0x00003395

00002070 <netconn_bind>:
    2070:	b510      	push	{r4, lr}
    2072:	4604      	mov	r4, r0
    2074:	b086      	sub	sp, #24
    2076:	b900      	cbnz	r0, 207a <netconn_bind+0xa>
    2078:	e7fe      	b.n	2078 <netconn_bind+0x8>
    207a:	4b08      	ldr	r3, [pc, #32]	; (209c <netconn_bind+0x2c>)
    207c:	9103      	str	r1, [sp, #12]
    207e:	e88d 0018 	stmia.w	sp, {r3, r4}
    2082:	4668      	mov	r0, sp
    2084:	4b06      	ldr	r3, [pc, #24]	; (20a0 <netconn_bind+0x30>)
    2086:	f8ad 2010 	strh.w	r2, [sp, #16]
    208a:	4798      	blx	r3
    208c:	f994 3008 	ldrsb.w	r3, [r4, #8]
    2090:	3309      	adds	r3, #9
    2092:	bfa8      	it	ge
    2094:	7220      	strbge	r0, [r4, #8]
    2096:	b006      	add	sp, #24
    2098:	bd10      	pop	{r4, pc}
    209a:	bf00      	nop
    209c:	00002935 	.word	0x00002935
    20a0:	00003395 	.word	0x00003395

000020a4 <netconn_recv_tcp_pbuf>:
    20a4:	b110      	cbz	r0, 20ac <netconn_recv_tcp_pbuf+0x8>
    20a6:	7803      	ldrb	r3, [r0, #0]
    20a8:	2b10      	cmp	r3, #16
    20aa:	d000      	beq.n	20ae <netconn_recv_tcp_pbuf+0xa>
    20ac:	e7fe      	b.n	20ac <netconn_recv_tcp_pbuf+0x8>
    20ae:	4b01      	ldr	r3, [pc, #4]	; (20b4 <netconn_recv_tcp_pbuf+0x10>)
    20b0:	4718      	bx	r3
    20b2:	bf00      	nop
    20b4:	00001f01 	.word	0x00001f01

000020b8 <netconn_recv>:
    20b8:	b573      	push	{r0, r1, r4, r5, r6, lr}
    20ba:	4604      	mov	r4, r0
    20bc:	460e      	mov	r6, r1
    20be:	b901      	cbnz	r1, 20c2 <netconn_recv+0xa>
    20c0:	e7fe      	b.n	20c0 <netconn_recv+0x8>
    20c2:	2500      	movs	r5, #0
    20c4:	600d      	str	r5, [r1, #0]
    20c6:	b900      	cbnz	r0, 20ca <netconn_recv+0x12>
    20c8:	e7fe      	b.n	20c8 <netconn_recv+0x10>
    20ca:	3010      	adds	r0, #16
    20cc:	4b17      	ldr	r3, [pc, #92]	; (212c <netconn_recv+0x74>)
    20ce:	4798      	blx	r3
    20d0:	b900      	cbnz	r0, 20d4 <netconn_recv+0x1c>
    20d2:	e7fe      	b.n	20d2 <netconn_recv+0x1a>
    20d4:	7823      	ldrb	r3, [r4, #0]
    20d6:	2b10      	cmp	r3, #16
    20d8:	d122      	bne.n	2120 <netconn_recv+0x68>
    20da:	2006      	movs	r0, #6
    20dc:	4b14      	ldr	r3, [pc, #80]	; (2130 <netconn_recv+0x78>)
    20de:	9501      	str	r5, [sp, #4]
    20e0:	4798      	blx	r3
    20e2:	4605      	mov	r5, r0
    20e4:	b940      	cbnz	r0, 20f8 <netconn_recv+0x40>
    20e6:	f994 3008 	ldrsb.w	r3, [r4, #8]
    20ea:	3309      	adds	r3, #9
    20ec:	db01      	blt.n	20f2 <netconn_recv+0x3a>
    20ee:	23ff      	movs	r3, #255	; 0xff
    20f0:	7223      	strb	r3, [r4, #8]
    20f2:	f04f 34ff 	mov.w	r4, #4294967295
    20f6:	e009      	b.n	210c <netconn_recv+0x54>
    20f8:	4620      	mov	r0, r4
    20fa:	a901      	add	r1, sp, #4
    20fc:	4b0d      	ldr	r3, [pc, #52]	; (2134 <netconn_recv+0x7c>)
    20fe:	4798      	blx	r3
    2100:	4604      	mov	r4, r0
    2102:	b130      	cbz	r0, 2112 <netconn_recv+0x5a>
    2104:	4629      	mov	r1, r5
    2106:	2006      	movs	r0, #6
    2108:	4b0b      	ldr	r3, [pc, #44]	; (2138 <netconn_recv+0x80>)
    210a:	4798      	blx	r3
    210c:	4620      	mov	r0, r4
    210e:	b002      	add	sp, #8
    2110:	bd70      	pop	{r4, r5, r6, pc}
    2112:	9b01      	ldr	r3, [sp, #4]
    2114:	602b      	str	r3, [r5, #0]
    2116:	606b      	str	r3, [r5, #4]
    2118:	81a8      	strh	r0, [r5, #12]
    211a:	60a8      	str	r0, [r5, #8]
    211c:	6035      	str	r5, [r6, #0]
    211e:	e7f5      	b.n	210c <netconn_recv+0x54>
    2120:	4620      	mov	r0, r4
    2122:	4631      	mov	r1, r6
    2124:	4b03      	ldr	r3, [pc, #12]	; (2134 <netconn_recv+0x7c>)
    2126:	4798      	blx	r3
    2128:	4604      	mov	r4, r0
    212a:	e7ef      	b.n	210c <netconn_recv+0x54>
    212c:	00001eb5 	.word	0x00001eb5
    2130:	00004539 	.word	0x00004539
    2134:	00001f01 	.word	0x00001f01
    2138:	00004559 	.word	0x00004559

0000213c <netconn_recved>:
    213c:	b57f      	push	{r0, r1, r2, r3, r4, r5, r6, lr}
    213e:	b160      	cbz	r0, 215a <netconn_recved+0x1e>
    2140:	7803      	ldrb	r3, [r0, #0]
    2142:	2b10      	cmp	r3, #16
    2144:	d109      	bne.n	215a <netconn_recved+0x1e>
    2146:	7f03      	ldrb	r3, [r0, #28]
    2148:	071b      	lsls	r3, r3, #28
    214a:	d506      	bpl.n	215a <netconn_recved+0x1e>
    214c:	4b04      	ldr	r3, [pc, #16]	; (2160 <netconn_recved+0x24>)
    214e:	9300      	str	r3, [sp, #0]
    2150:	9001      	str	r0, [sp, #4]
    2152:	4b04      	ldr	r3, [pc, #16]	; (2164 <netconn_recved+0x28>)
    2154:	9103      	str	r1, [sp, #12]
    2156:	4668      	mov	r0, sp
    2158:	4798      	blx	r3
    215a:	b007      	add	sp, #28
    215c:	f85d fb04 	ldr.w	pc, [sp], #4
    2160:	000029ed 	.word	0x000029ed
    2164:	00003395 	.word	0x00003395

00002168 <netconn_send>:
    2168:	b510      	push	{r4, lr}
    216a:	4604      	mov	r4, r0
    216c:	b086      	sub	sp, #24
    216e:	b900      	cbnz	r0, 2172 <netconn_send+0xa>
    2170:	e7fe      	b.n	2170 <netconn_send+0x8>
    2172:	4b07      	ldr	r3, [pc, #28]	; (2190 <netconn_send+0x28>)
    2174:	9103      	str	r1, [sp, #12]
    2176:	e88d 0018 	stmia.w	sp, {r3, r4}
    217a:	4668      	mov	r0, sp
    217c:	4b05      	ldr	r3, [pc, #20]	; (2194 <netconn_send+0x2c>)
    217e:	4798      	blx	r3
    2180:	f994 3008 	ldrsb.w	r3, [r4, #8]
    2184:	3309      	adds	r3, #9
    2186:	bfa8      	it	ge
    2188:	7220      	strbge	r0, [r4, #8]
    218a:	b006      	add	sp, #24
    218c:	bd10      	pop	{r4, pc}
    218e:	bf00      	nop
    2190:	0000298d 	.word	0x0000298d
    2194:	00003395 	.word	0x00003395

00002198 <netconn_write_partly>:
    2198:	b5f0      	push	{r4, r5, r6, r7, lr}
    219a:	b087      	sub	sp, #28
    219c:	4615      	mov	r5, r2
    219e:	9e0c      	ldr	r6, [sp, #48]	; 0x30
    21a0:	4604      	mov	r4, r0
    21a2:	b900      	cbnz	r0, 21a6 <netconn_write_partly+0xe>
    21a4:	e7fe      	b.n	21a4 <netconn_write_partly+0xc>
    21a6:	7802      	ldrb	r2, [r0, #0]
    21a8:	2a10      	cmp	r2, #16
    21aa:	d000      	beq.n	21ae <netconn_write_partly+0x16>
    21ac:	e7fe      	b.n	21ac <netconn_write_partly+0x14>
    21ae:	b1fd      	cbz	r5, 21f0 <netconn_write_partly+0x58>
    21b0:	7f02      	ldrb	r2, [r0, #28]
    21b2:	0792      	lsls	r2, r2, #30
    21b4:	d402      	bmi.n	21bc <netconn_write_partly+0x24>
    21b6:	f013 0704 	ands.w	r7, r3, #4
    21ba:	d001      	beq.n	21c0 <netconn_write_partly+0x28>
    21bc:	b1d6      	cbz	r6, 21f4 <netconn_write_partly+0x5c>
    21be:	2701      	movs	r7, #1
    21c0:	4a0e      	ldr	r2, [pc, #56]	; (21fc <netconn_write_partly+0x64>)
    21c2:	f88d 3014 	strb.w	r3, [sp, #20]
    21c6:	4668      	mov	r0, sp
    21c8:	4b0d      	ldr	r3, [pc, #52]	; (2200 <netconn_write_partly+0x68>)
    21ca:	9103      	str	r1, [sp, #12]
    21cc:	e88d 0014 	stmia.w	sp, {r2, r4}
    21d0:	9504      	str	r5, [sp, #16]
    21d2:	4798      	blx	r3
    21d4:	b918      	cbnz	r0, 21de <netconn_write_partly+0x46>
    21d6:	b116      	cbz	r6, 21de <netconn_write_partly+0x46>
    21d8:	b147      	cbz	r7, 21ec <netconn_write_partly+0x54>
    21da:	9b04      	ldr	r3, [sp, #16]
    21dc:	6033      	str	r3, [r6, #0]
    21de:	f994 3008 	ldrsb.w	r3, [r4, #8]
    21e2:	3309      	adds	r3, #9
    21e4:	db00      	blt.n	21e8 <netconn_write_partly+0x50>
    21e6:	7220      	strb	r0, [r4, #8]
    21e8:	b007      	add	sp, #28
    21ea:	bdf0      	pop	{r4, r5, r6, r7, pc}
    21ec:	6035      	str	r5, [r6, #0]
    21ee:	e7f6      	b.n	21de <netconn_write_partly+0x46>
    21f0:	4628      	mov	r0, r5
    21f2:	e7f9      	b.n	21e8 <netconn_write_partly+0x50>
    21f4:	f06f 0005 	mvn.w	r0, #5
    21f8:	e7f6      	b.n	21e8 <netconn_write_partly+0x50>
    21fa:	bf00      	nop
    21fc:	00002a35 	.word	0x00002a35
    2200:	00003395 	.word	0x00003395

00002204 <err_tcp>:
    2204:	e92d 41f0 	stmdb	sp!, {r4, r5, r6, r7, r8, lr}
    2208:	4604      	mov	r4, r0
    220a:	2200      	movs	r2, #0
    220c:	6042      	str	r2, [r0, #4]
    220e:	7221      	strb	r1, [r4, #8]
    2210:	6a83      	ldr	r3, [r0, #40]	; 0x28
    2212:	7845      	ldrb	r5, [r0, #1]
    2214:	7042      	strb	r2, [r0, #1]
    2216:	460f      	mov	r7, r1
    2218:	b10b      	cbz	r3, 221e <err_tcp+0x1a>
    221a:	2104      	movs	r1, #4
    221c:	4798      	blx	r3
    221e:	6aa3      	ldr	r3, [r4, #40]	; 0x28
    2220:	b11b      	cbz	r3, 222a <err_tcp+0x26>
    2222:	2200      	movs	r2, #0
    2224:	4611      	mov	r1, r2
    2226:	4620      	mov	r0, r4
    2228:	4798      	blx	r3
    222a:	6aa3      	ldr	r3, [r4, #40]	; 0x28
    222c:	b11b      	cbz	r3, 2236 <err_tcp+0x32>
    222e:	2200      	movs	r2, #0
    2230:	2102      	movs	r1, #2
    2232:	4620      	mov	r0, r4
    2234:	4798      	blx	r3
    2236:	f104 0810 	add.w	r8, r4, #16
    223a:	4640      	mov	r0, r8
    223c:	4e13      	ldr	r6, [pc, #76]	; (228c <err_tcp+0x88>)
    223e:	47b0      	blx	r6
    2240:	b118      	cbz	r0, 224a <err_tcp+0x46>
    2242:	2100      	movs	r1, #0
    2244:	4640      	mov	r0, r8
    2246:	4b12      	ldr	r3, [pc, #72]	; (2290 <err_tcp+0x8c>)
    2248:	4798      	blx	r3
    224a:	f104 0814 	add.w	r8, r4, #20
    224e:	4640      	mov	r0, r8
    2250:	47b0      	blx	r6
    2252:	b118      	cbz	r0, 225c <err_tcp+0x58>
    2254:	2100      	movs	r1, #0
    2256:	4640      	mov	r0, r8
    2258:	4b0d      	ldr	r3, [pc, #52]	; (2290 <err_tcp+0x8c>)
    225a:	4798      	blx	r3
    225c:	2d01      	cmp	r5, #1
    225e:	d002      	beq.n	2266 <err_tcp+0x62>
    2260:	3d03      	subs	r5, #3
    2262:	2d01      	cmp	r5, #1
    2264:	d80f      	bhi.n	2286 <err_tcp+0x82>
    2266:	7f23      	ldrb	r3, [r4, #28]
    2268:	f023 0204 	bic.w	r2, r3, #4
    226c:	f013 0304 	ands.w	r3, r3, #4
    2270:	7722      	strb	r2, [r4, #28]
    2272:	d108      	bne.n	2286 <err_tcp+0x82>
    2274:	6a62      	ldr	r2, [r4, #36]	; 0x24
    2276:	7117      	strb	r7, [r2, #4]
    2278:	f104 000c 	add.w	r0, r4, #12
    227c:	6263      	str	r3, [r4, #36]	; 0x24
    227e:	4b05      	ldr	r3, [pc, #20]	; (2294 <err_tcp+0x90>)
    2280:	e8bd 41f0 	ldmia.w	sp!, {r4, r5, r6, r7, r8, lr}
    2284:	4718      	bx	r3
    2286:	e8bd 81f0 	ldmia.w	sp!, {r4, r5, r6, r7, r8, pc}
    228a:	bf00      	nop
    228c:	00001eb5 	.word	0x00001eb5
    2290:	00001dbd 	.word	0x00001dbd
    2294:	00001cd9 	.word	0x00001cd9

00002298 <recv_udp>:
    2298:	e92d 47f0 	stmdb	sp!, {r4, r5, r6, r7, r8, r9, sl, lr}
    229c:	4617      	mov	r7, r2
    229e:	461d      	mov	r5, r3
    22a0:	f8bd 9020 	ldrh.w	r9, [sp, #32]
    22a4:	4606      	mov	r6, r0
    22a6:	b128      	cbz	r0, 22b4 <recv_udp+0x1c>
    22a8:	f100 0810 	add.w	r8, r0, #16
    22ac:	4640      	mov	r0, r8
    22ae:	4b15      	ldr	r3, [pc, #84]	; (2304 <recv_udp+0x6c>)
    22b0:	4798      	blx	r3
    22b2:	b920      	cbnz	r0, 22be <recv_udp+0x26>
    22b4:	4638      	mov	r0, r7
    22b6:	4b14      	ldr	r3, [pc, #80]	; (2308 <recv_udp+0x70>)
    22b8:	e8bd 47f0 	ldmia.w	sp!, {r4, r5, r6, r7, r8, r9, sl, lr}
    22bc:	4718      	bx	r3
    22be:	2006      	movs	r0, #6
    22c0:	4b12      	ldr	r3, [pc, #72]	; (230c <recv_udp+0x74>)
    22c2:	4798      	blx	r3
    22c4:	4604      	mov	r4, r0
    22c6:	2800      	cmp	r0, #0
    22c8:	d0f4      	beq.n	22b4 <recv_udp+0x1c>
    22ca:	6007      	str	r7, [r0, #0]
    22cc:	6047      	str	r7, [r0, #4]
    22ce:	b105      	cbz	r5, 22d2 <recv_udp+0x3a>
    22d0:	682d      	ldr	r5, [r5, #0]
    22d2:	60a5      	str	r5, [r4, #8]
    22d4:	4621      	mov	r1, r4
    22d6:	f8a4 900c 	strh.w	r9, [r4, #12]
    22da:	4640      	mov	r0, r8
    22dc:	4b0c      	ldr	r3, [pc, #48]	; (2310 <recv_udp+0x78>)
    22de:	893d      	ldrh	r5, [r7, #8]
    22e0:	4798      	blx	r3
    22e2:	4601      	mov	r1, r0
    22e4:	b120      	cbz	r0, 22f0 <recv_udp+0x58>
    22e6:	4620      	mov	r0, r4
    22e8:	4b0a      	ldr	r3, [pc, #40]	; (2314 <recv_udp+0x7c>)
    22ea:	e8bd 47f0 	ldmia.w	sp!, {r4, r5, r6, r7, r8, r9, sl, lr}
    22ee:	4718      	bx	r3
    22f0:	6ab3      	ldr	r3, [r6, #40]	; 0x28
    22f2:	b123      	cbz	r3, 22fe <recv_udp+0x66>
    22f4:	462a      	mov	r2, r5
    22f6:	4630      	mov	r0, r6
    22f8:	e8bd 47f0 	ldmia.w	sp!, {r4, r5, r6, r7, r8, r9, sl, lr}
    22fc:	4718      	bx	r3
    22fe:	e8bd 87f0 	ldmia.w	sp!, {r4, r5, r6, r7, r8, r9, sl, pc}
    2302:	bf00      	nop
    2304:	00001eb5 	.word	0x00001eb5
    2308:	00004785 	.word	0x00004785
    230c:	00004539 	.word	0x00004539
    2310:	00001dbd 	.word	0x00001dbd
    2314:	00002ad5 	.word	0x00002ad5

00002318 <setup_tcp>:
    2318:	b510      	push	{r4, lr}
    231a:	6844      	ldr	r4, [r0, #4]
    231c:	4b0b      	ldr	r3, [pc, #44]	; (234c <setup_tcp+0x34>)
    231e:	4601      	mov	r1, r0
    2320:	4620      	mov	r0, r4
    2322:	4798      	blx	r3
    2324:	4620      	mov	r0, r4
    2326:	490a      	ldr	r1, [pc, #40]	; (2350 <setup_tcp+0x38>)
    2328:	4b0a      	ldr	r3, [pc, #40]	; (2354 <setup_tcp+0x3c>)
    232a:	4798      	blx	r3
    232c:	4620      	mov	r0, r4
    232e:	490a      	ldr	r1, [pc, #40]	; (2358 <setup_tcp+0x40>)
    2330:	4b0a      	ldr	r3, [pc, #40]	; (235c <setup_tcp+0x44>)
    2332:	4798      	blx	r3
    2334:	4620      	mov	r0, r4
    2336:	490a      	ldr	r1, [pc, #40]	; (2360 <setup_tcp+0x48>)
    2338:	4b0a      	ldr	r3, [pc, #40]	; (2364 <setup_tcp+0x4c>)
    233a:	2204      	movs	r2, #4
    233c:	4798      	blx	r3
    233e:	4620      	mov	r0, r4
    2340:	4909      	ldr	r1, [pc, #36]	; (2368 <setup_tcp+0x50>)
    2342:	4b0a      	ldr	r3, [pc, #40]	; (236c <setup_tcp+0x54>)
    2344:	e8bd 4010 	ldmia.w	sp!, {r4, lr}
    2348:	4718      	bx	r3
    234a:	bf00      	nop
    234c:	00004c3d 	.word	0x00004c3d
    2350:	00002639 	.word	0x00002639
    2354:	00004c41 	.word	0x00004c41
    2358:	000025e5 	.word	0x000025e5
    235c:	00004c47 	.word	0x00004c47
    2360:	00002591 	.word	0x00002591
    2364:	00004c55 	.word	0x00004c55
    2368:	00002205 	.word	0x00002205
    236c:	00004c4b 	.word	0x00004c4b

00002370 <do_writemore>:
    2370:	b5f8      	push	{r3, r4, r5, r6, r7, lr}
    2372:	4604      	mov	r4, r0
    2374:	7f03      	ldrb	r3, [r0, #28]
    2376:	6a40      	ldr	r0, [r0, #36]	; 0x24
    2378:	6a25      	ldr	r5, [r4, #32]
    237a:	68c2      	ldr	r2, [r0, #12]
    237c:	6881      	ldr	r1, [r0, #8]
    237e:	f013 0f02 	tst.w	r3, #2
    2382:	bf08      	it	eq
    2384:	7c07      	ldrbeq	r7, [r0, #16]
    2386:	7c03      	ldrb	r3, [r0, #16]
    2388:	6860      	ldr	r0, [r4, #4]
    238a:	eba2 0205 	sub.w	r2, r2, r5
    238e:	bf0c      	ite	eq
    2390:	f3c7 0780 	ubfxeq	r7, r7, #2, #1
    2394:	2701      	movne	r7, #1
    2396:	4429      	add	r1, r5
    2398:	f5b2 3f80 	cmp.w	r2, #65536	; 0x10000
    239c:	f8b0 5066 	ldrh.w	r5, [r0, #102]	; 0x66
    23a0:	bf2a      	itet	cs
    23a2:	f64f 72ff 	movwcs	r2, #65535	; 0xffff
    23a6:	b292      	uxthcc	r2, r2
    23a8:	f043 0302 	orrcs.w	r3, r3, #2
    23ac:	42aa      	cmp	r2, r5
    23ae:	d93a      	bls.n	2426 <do_writemore+0xb6>
    23b0:	2f00      	cmp	r7, #0
    23b2:	d035      	beq.n	2420 <do_writemore+0xb0>
    23b4:	2d00      	cmp	r5, #0
    23b6:	d038      	beq.n	242a <do_writemore+0xba>
    23b8:	4e2e      	ldr	r6, [pc, #184]	; (2474 <do_writemore+0x104>)
    23ba:	462a      	mov	r2, r5
    23bc:	47b0      	blx	r6
    23be:	1c43      	adds	r3, r0, #1
    23c0:	b2db      	uxtb	r3, r3
    23c2:	2b01      	cmp	r3, #1
    23c4:	4606      	mov	r6, r0
    23c6:	d850      	bhi.n	246a <do_writemore+0xfa>
    23c8:	2f00      	cmp	r7, #0
    23ca:	d031      	beq.n	2430 <do_writemore+0xc0>
    23cc:	6a63      	ldr	r3, [r4, #36]	; 0x24
    23ce:	68db      	ldr	r3, [r3, #12]
    23d0:	429d      	cmp	r5, r3
    23d2:	d22d      	bcs.n	2430 <do_writemore+0xc0>
    23d4:	6aa3      	ldr	r3, [r4, #40]	; 0x28
    23d6:	b11b      	cbz	r3, 23e0 <do_writemore+0x70>
    23d8:	462a      	mov	r2, r5
    23da:	2103      	movs	r1, #3
    23dc:	4620      	mov	r0, r4
    23de:	4798      	blx	r3
    23e0:	7f23      	ldrb	r3, [r4, #28]
    23e2:	f043 0310 	orr.w	r3, r3, #16
    23e6:	7723      	strb	r3, [r4, #28]
    23e8:	2e00      	cmp	r6, #0
    23ea:	d136      	bne.n	245a <do_writemore+0xea>
    23ec:	6a23      	ldr	r3, [r4, #32]
    23ee:	441d      	add	r5, r3
    23f0:	6a63      	ldr	r3, [r4, #36]	; 0x24
    23f2:	6225      	str	r5, [r4, #32]
    23f4:	68da      	ldr	r2, [r3, #12]
    23f6:	4295      	cmp	r5, r2
    23f8:	4632      	mov	r2, r6
    23fa:	d000      	beq.n	23fe <do_writemore+0x8e>
    23fc:	b35f      	cbz	r7, 2456 <do_writemore+0xe6>
    23fe:	60dd      	str	r5, [r3, #12]
    2400:	6222      	str	r2, [r4, #32]
    2402:	2501      	movs	r5, #1
    2404:	6860      	ldr	r0, [r4, #4]
    2406:	4b1c      	ldr	r3, [pc, #112]	; (2478 <do_writemore+0x108>)
    2408:	4798      	blx	r3
    240a:	b365      	cbz	r5, 2466 <do_writemore+0xf6>
    240c:	6a63      	ldr	r3, [r4, #36]	; 0x24
    240e:	711e      	strb	r6, [r3, #4]
    2410:	2300      	movs	r3, #0
    2412:	6263      	str	r3, [r4, #36]	; 0x24
    2414:	7063      	strb	r3, [r4, #1]
    2416:	f104 000c 	add.w	r0, r4, #12
    241a:	4b18      	ldr	r3, [pc, #96]	; (247c <do_writemore+0x10c>)
    241c:	4798      	blx	r3
    241e:	e022      	b.n	2466 <do_writemore+0xf6>
    2420:	f043 0302 	orr.w	r3, r3, #2
    2424:	e7c8      	b.n	23b8 <do_writemore+0x48>
    2426:	4615      	mov	r5, r2
    2428:	e7c6      	b.n	23b8 <do_writemore+0x48>
    242a:	f06f 0606 	mvn.w	r6, #6
    242e:	e7cd      	b.n	23cc <do_writemore+0x5c>
    2430:	6863      	ldr	r3, [r4, #4]
    2432:	f8b3 1066 	ldrh.w	r1, [r3, #102]	; 0x66
    2436:	f640 3267 	movw	r2, #2919	; 0xb67
    243a:	4291      	cmp	r1, r2
    243c:	d903      	bls.n	2446 <do_writemore+0xd6>
    243e:	f8b3 3068 	ldrh.w	r3, [r3, #104]	; 0x68
    2442:	2b04      	cmp	r3, #4
    2444:	d9d0      	bls.n	23e8 <do_writemore+0x78>
    2446:	6aa3      	ldr	r3, [r4, #40]	; 0x28
    2448:	2b00      	cmp	r3, #0
    244a:	d0cd      	beq.n	23e8 <do_writemore+0x78>
    244c:	462a      	mov	r2, r5
    244e:	2103      	movs	r1, #3
    2450:	4620      	mov	r0, r4
    2452:	4798      	blx	r3
    2454:	e7c8      	b.n	23e8 <do_writemore+0x78>
    2456:	4635      	mov	r5, r6
    2458:	e7d4      	b.n	2404 <do_writemore+0x94>
    245a:	1c73      	adds	r3, r6, #1
    245c:	d105      	bne.n	246a <do_writemore+0xfa>
    245e:	b927      	cbnz	r7, 246a <do_writemore+0xfa>
    2460:	6860      	ldr	r0, [r4, #4]
    2462:	4b05      	ldr	r3, [pc, #20]	; (2478 <do_writemore+0x108>)
    2464:	4798      	blx	r3
    2466:	2000      	movs	r0, #0
    2468:	bdf8      	pop	{r3, r4, r5, r6, r7, pc}
    246a:	6a63      	ldr	r3, [r4, #36]	; 0x24
    246c:	2200      	movs	r2, #0
    246e:	60da      	str	r2, [r3, #12]
    2470:	e7cc      	b.n	240c <do_writemore+0x9c>
    2472:	bf00      	nop
    2474:	00006781 	.word	0x00006781
    2478:	00006c3d 	.word	0x00006c3d
    247c:	00001cd9 	.word	0x00001cd9

00002480 <do_close_internal>:
    2480:	e92d 41f0 	stmdb	sp!, {r4, r5, r6, r7, r8, lr}
    2484:	6a43      	ldr	r3, [r0, #36]	; 0x24
    2486:	7a1d      	ldrb	r5, [r3, #8]
    2488:	2d03      	cmp	r5, #3
    248a:	4604      	mov	r4, r0
    248c:	f005 0701 	and.w	r7, r5, #1
    2490:	f005 0602 	and.w	r6, r5, #2
    2494:	d103      	bne.n	249e <do_close_internal+0x1e>
    2496:	2100      	movs	r1, #0
    2498:	6840      	ldr	r0, [r0, #4]
    249a:	4b31      	ldr	r3, [pc, #196]	; (2560 <do_close_internal+0xe0>)
    249c:	4798      	blx	r3
    249e:	6860      	ldr	r0, [r4, #4]
    24a0:	7e03      	ldrb	r3, [r0, #24]
    24a2:	2b01      	cmp	r3, #1
    24a4:	d10a      	bne.n	24bc <do_close_internal+0x3c>
    24a6:	2100      	movs	r1, #0
    24a8:	4b2e      	ldr	r3, [pc, #184]	; (2564 <do_close_internal+0xe4>)
    24aa:	4798      	blx	r3
    24ac:	2d03      	cmp	r5, #3
    24ae:	d01d      	beq.n	24ec <do_close_internal+0x6c>
    24b0:	4632      	mov	r2, r6
    24b2:	4639      	mov	r1, r7
    24b4:	6860      	ldr	r0, [r4, #4]
    24b6:	4b2c      	ldr	r3, [pc, #176]	; (2568 <do_close_internal+0xe8>)
    24b8:	4798      	blx	r3
    24ba:	e01a      	b.n	24f2 <do_close_internal+0x72>
    24bc:	b137      	cbz	r7, 24cc <do_close_internal+0x4c>
    24be:	2100      	movs	r1, #0
    24c0:	4b2a      	ldr	r3, [pc, #168]	; (256c <do_close_internal+0xec>)
    24c2:	4798      	blx	r3
    24c4:	2100      	movs	r1, #0
    24c6:	6860      	ldr	r0, [r4, #4]
    24c8:	4b26      	ldr	r3, [pc, #152]	; (2564 <do_close_internal+0xe4>)
    24ca:	4798      	blx	r3
    24cc:	b11e      	cbz	r6, 24d6 <do_close_internal+0x56>
    24ce:	2100      	movs	r1, #0
    24d0:	6860      	ldr	r0, [r4, #4]
    24d2:	4b27      	ldr	r3, [pc, #156]	; (2570 <do_close_internal+0xf0>)
    24d4:	4798      	blx	r3
    24d6:	2d03      	cmp	r5, #3
    24d8:	d1ea      	bne.n	24b0 <do_close_internal+0x30>
    24da:	2100      	movs	r1, #0
    24dc:	6860      	ldr	r0, [r4, #4]
    24de:	4b25      	ldr	r3, [pc, #148]	; (2574 <do_close_internal+0xf4>)
    24e0:	2204      	movs	r2, #4
    24e2:	4798      	blx	r3
    24e4:	2100      	movs	r1, #0
    24e6:	6860      	ldr	r0, [r4, #4]
    24e8:	4b23      	ldr	r3, [pc, #140]	; (2578 <do_close_internal+0xf8>)
    24ea:	4798      	blx	r3
    24ec:	6860      	ldr	r0, [r4, #4]
    24ee:	4b23      	ldr	r3, [pc, #140]	; (257c <do_close_internal+0xfc>)
    24f0:	4798      	blx	r3
    24f2:	bb10      	cbnz	r0, 253a <do_close_internal+0xba>
    24f4:	6a63      	ldr	r3, [r4, #36]	; 0x24
    24f6:	2d03      	cmp	r5, #3
    24f8:	7118      	strb	r0, [r3, #4]
    24fa:	6260      	str	r0, [r4, #36]	; 0x24
    24fc:	7060      	strb	r0, [r4, #1]
    24fe:	d10d      	bne.n	251c <do_close_internal+0x9c>
    2500:	6aa3      	ldr	r3, [r4, #40]	; 0x28
    2502:	6060      	str	r0, [r4, #4]
    2504:	b11b      	cbz	r3, 250e <do_close_internal+0x8e>
    2506:	4602      	mov	r2, r0
    2508:	2104      	movs	r1, #4
    250a:	4620      	mov	r0, r4
    250c:	4798      	blx	r3
    250e:	6aa3      	ldr	r3, [r4, #40]	; 0x28
    2510:	b16b      	cbz	r3, 252e <do_close_internal+0xae>
    2512:	2200      	movs	r2, #0
    2514:	4611      	mov	r1, r2
    2516:	4620      	mov	r0, r4
    2518:	4798      	blx	r3
    251a:	e001      	b.n	2520 <do_close_internal+0xa0>
    251c:	2f00      	cmp	r7, #0
    251e:	d1f6      	bne.n	250e <do_close_internal+0x8e>
    2520:	b12e      	cbz	r6, 252e <do_close_internal+0xae>
    2522:	6aa3      	ldr	r3, [r4, #40]	; 0x28
    2524:	b11b      	cbz	r3, 252e <do_close_internal+0xae>
    2526:	2200      	movs	r2, #0
    2528:	2102      	movs	r1, #2
    252a:	4620      	mov	r0, r4
    252c:	4798      	blx	r3
    252e:	f104 000c 	add.w	r0, r4, #12
    2532:	4b13      	ldr	r3, [pc, #76]	; (2580 <do_close_internal+0x100>)
    2534:	e8bd 41f0 	ldmia.w	sp!, {r4, r5, r6, r7, r8, lr}
    2538:	4718      	bx	r3
    253a:	6860      	ldr	r0, [r4, #4]
    253c:	4911      	ldr	r1, [pc, #68]	; (2584 <do_close_internal+0x104>)
    253e:	4b0c      	ldr	r3, [pc, #48]	; (2570 <do_close_internal+0xf0>)
    2540:	4798      	blx	r3
    2542:	6860      	ldr	r0, [r4, #4]
    2544:	4910      	ldr	r1, [pc, #64]	; (2588 <do_close_internal+0x108>)
    2546:	4b0b      	ldr	r3, [pc, #44]	; (2574 <do_close_internal+0xf4>)
    2548:	2204      	movs	r2, #4
    254a:	4798      	blx	r3
    254c:	6860      	ldr	r0, [r4, #4]
    254e:	490f      	ldr	r1, [pc, #60]	; (258c <do_close_internal+0x10c>)
    2550:	4b09      	ldr	r3, [pc, #36]	; (2578 <do_close_internal+0xf8>)
    2552:	4798      	blx	r3
    2554:	4621      	mov	r1, r4
    2556:	6860      	ldr	r0, [r4, #4]
    2558:	4b01      	ldr	r3, [pc, #4]	; (2560 <do_close_internal+0xe0>)
    255a:	e8bd 41f0 	ldmia.w	sp!, {r4, r5, r6, r7, r8, lr}
    255e:	4718      	bx	r3
    2560:	00004c3d 	.word	0x00004c3d
    2564:	00004c51 	.word	0x00004c51
    2568:	000052d1 	.word	0x000052d1
    256c:	00004c41 	.word	0x00004c41
    2570:	00004c47 	.word	0x00004c47
    2574:	00004c55 	.word	0x00004c55
    2578:	00004c4b 	.word	0x00004c4b
    257c:	00005179 	.word	0x00005179
    2580:	00001cd9 	.word	0x00001cd9
    2584:	000025e5 	.word	0x000025e5
    2588:	00002591 	.word	0x00002591
    258c:	00002205 	.word	0x00002205

00002590 <poll_tcp>:
    2590:	7843      	ldrb	r3, [r0, #1]
    2592:	2b01      	cmp	r3, #1
    2594:	b510      	push	{r4, lr}
    2596:	4604      	mov	r4, r0
    2598:	d11b      	bne.n	25d2 <poll_tcp+0x42>
    259a:	4b10      	ldr	r3, [pc, #64]	; (25dc <poll_tcp+0x4c>)
    259c:	4798      	blx	r3
    259e:	7f23      	ldrb	r3, [r4, #28]
    25a0:	06da      	lsls	r2, r3, #27
    25a2:	d514      	bpl.n	25ce <poll_tcp+0x3e>
    25a4:	6862      	ldr	r2, [r4, #4]
    25a6:	b192      	cbz	r2, 25ce <poll_tcp+0x3e>
    25a8:	f8b2 0066 	ldrh.w	r0, [r2, #102]	; 0x66
    25ac:	f640 3167 	movw	r1, #2919	; 0xb67
    25b0:	4288      	cmp	r0, r1
    25b2:	d90c      	bls.n	25ce <poll_tcp+0x3e>
    25b4:	f8b2 2068 	ldrh.w	r2, [r2, #104]	; 0x68
    25b8:	2a04      	cmp	r2, #4
    25ba:	d808      	bhi.n	25ce <poll_tcp+0x3e>
    25bc:	f023 0310 	bic.w	r3, r3, #16
    25c0:	7723      	strb	r3, [r4, #28]
    25c2:	6aa3      	ldr	r3, [r4, #40]	; 0x28
    25c4:	b11b      	cbz	r3, 25ce <poll_tcp+0x3e>
    25c6:	2200      	movs	r2, #0
    25c8:	2102      	movs	r1, #2
    25ca:	4620      	mov	r0, r4
    25cc:	4798      	blx	r3
    25ce:	2000      	movs	r0, #0
    25d0:	bd10      	pop	{r4, pc}
    25d2:	2b04      	cmp	r3, #4
    25d4:	d1e3      	bne.n	259e <poll_tcp+0xe>
    25d6:	4b02      	ldr	r3, [pc, #8]	; (25e0 <poll_tcp+0x50>)
    25d8:	4798      	blx	r3
    25da:	e7e0      	b.n	259e <poll_tcp+0xe>
    25dc:	00002371 	.word	0x00002371
    25e0:	00002481 	.word	0x00002481

000025e4 <sent_tcp>:
    25e4:	b538      	push	{r3, r4, r5, lr}
    25e6:	7843      	ldrb	r3, [r0, #1]
    25e8:	2b01      	cmp	r3, #1
    25ea:	4604      	mov	r4, r0
    25ec:	4615      	mov	r5, r2
    25ee:	d119      	bne.n	2624 <sent_tcp+0x40>
    25f0:	4b0f      	ldr	r3, [pc, #60]	; (2630 <sent_tcp+0x4c>)
    25f2:	4798      	blx	r3
    25f4:	6863      	ldr	r3, [r4, #4]
    25f6:	b19b      	cbz	r3, 2620 <sent_tcp+0x3c>
    25f8:	f8b3 1066 	ldrh.w	r1, [r3, #102]	; 0x66
    25fc:	f640 3267 	movw	r2, #2919	; 0xb67
    2600:	4291      	cmp	r1, r2
    2602:	d90d      	bls.n	2620 <sent_tcp+0x3c>
    2604:	f8b3 3068 	ldrh.w	r3, [r3, #104]	; 0x68
    2608:	2b04      	cmp	r3, #4
    260a:	d809      	bhi.n	2620 <sent_tcp+0x3c>
    260c:	7f23      	ldrb	r3, [r4, #28]
    260e:	f023 0310 	bic.w	r3, r3, #16
    2612:	7723      	strb	r3, [r4, #28]
    2614:	6aa3      	ldr	r3, [r4, #40]	; 0x28
    2616:	b11b      	cbz	r3, 2620 <sent_tcp+0x3c>
    2618:	462a      	mov	r2, r5
    261a:	2102      	movs	r1, #2
    261c:	4620      	mov	r0, r4
    261e:	4798      	blx	r3
    2620:	2000      	movs	r0, #0
    2622:	bd38      	pop	{r3, r4, r5, pc}
    2624:	2b04      	cmp	r3, #4
    2626:	d1e5      	bne.n	25f4 <sent_tcp+0x10>
    2628:	4b02      	ldr	r3, [pc, #8]	; (2634 <sent_tcp+0x50>)
    262a:	4798      	blx	r3
    262c:	e7e2      	b.n	25f4 <sent_tcp+0x10>
    262e:	bf00      	nop
    2630:	00002371 	.word	0x00002371
    2634:	00002481 	.word	0x00002481

00002638 <recv_tcp>:
    2638:	e92d 43f8 	stmdb	sp!, {r3, r4, r5, r6, r7, r8, r9, lr}
    263c:	4689      	mov	r9, r1
    263e:	4615      	mov	r5, r2
    2640:	461f      	mov	r7, r3
    2642:	4606      	mov	r6, r0
    2644:	b350      	cbz	r0, 269c <recv_tcp+0x64>
    2646:	f100 0810 	add.w	r8, r0, #16
    264a:	4640      	mov	r0, r8
    264c:	4b16      	ldr	r3, [pc, #88]	; (26a8 <recv_tcp+0x70>)
    264e:	4798      	blx	r3
    2650:	4604      	mov	r4, r0
    2652:	b960      	cbnz	r0, 266e <recv_tcp+0x36>
    2654:	b91d      	cbnz	r5, 265e <recv_tcp+0x26>
    2656:	2400      	movs	r4, #0
    2658:	4620      	mov	r0, r4
    265a:	e8bd 83f8 	ldmia.w	sp!, {r3, r4, r5, r6, r7, r8, r9, pc}
    265e:	4648      	mov	r0, r9
    2660:	8929      	ldrh	r1, [r5, #8]
    2662:	4b12      	ldr	r3, [pc, #72]	; (26ac <recv_tcp+0x74>)
    2664:	4798      	blx	r3
    2666:	4628      	mov	r0, r5
    2668:	4b11      	ldr	r3, [pc, #68]	; (26b0 <recv_tcp+0x78>)
    266a:	4798      	blx	r3
    266c:	e7f4      	b.n	2658 <recv_tcp+0x20>
    266e:	f996 3008 	ldrsb.w	r3, [r6, #8]
    2672:	3309      	adds	r3, #9
    2674:	bfa8      	it	ge
    2676:	7237      	strbge	r7, [r6, #8]
    2678:	b175      	cbz	r5, 2698 <recv_tcp+0x60>
    267a:	892f      	ldrh	r7, [r5, #8]
    267c:	4b0d      	ldr	r3, [pc, #52]	; (26b4 <recv_tcp+0x7c>)
    267e:	4629      	mov	r1, r5
    2680:	4640      	mov	r0, r8
    2682:	4798      	blx	r3
    2684:	4604      	mov	r4, r0
    2686:	b960      	cbnz	r0, 26a2 <recv_tcp+0x6a>
    2688:	6ab3      	ldr	r3, [r6, #40]	; 0x28
    268a:	2b00      	cmp	r3, #0
    268c:	d0e3      	beq.n	2656 <recv_tcp+0x1e>
    268e:	4601      	mov	r1, r0
    2690:	463a      	mov	r2, r7
    2692:	4630      	mov	r0, r6
    2694:	4798      	blx	r3
    2696:	e7df      	b.n	2658 <recv_tcp+0x20>
    2698:	462f      	mov	r7, r5
    269a:	e7ef      	b.n	267c <recv_tcp+0x44>
    269c:	f06f 0405 	mvn.w	r4, #5
    26a0:	e7da      	b.n	2658 <recv_tcp+0x20>
    26a2:	f04f 34ff 	mov.w	r4, #4294967295
    26a6:	e7d7      	b.n	2658 <recv_tcp+0x20>
    26a8:	00001eb5 	.word	0x00001eb5
    26ac:	00004b91 	.word	0x00004b91
    26b0:	00004785 	.word	0x00004785
    26b4:	00001dbd 	.word	0x00001dbd

000026b8 <do_newconn>:
    26b8:	b570      	push	{r4, r5, r6, lr}
    26ba:	2300      	movs	r3, #0
    26bc:	6805      	ldr	r5, [r0, #0]
    26be:	7103      	strb	r3, [r0, #4]
    26c0:	686b      	ldr	r3, [r5, #4]
    26c2:	4604      	mov	r4, r0
    26c4:	b9bb      	cbnz	r3, 26f6 <do_newconn+0x3e>
    26c6:	782b      	ldrb	r3, [r5, #0]
    26c8:	f003 03f0 	and.w	r3, r3, #240	; 0xf0
    26cc:	2b10      	cmp	r3, #16
    26ce:	d018      	beq.n	2702 <do_newconn+0x4a>
    26d0:	2b20      	cmp	r3, #32
    26d2:	d120      	bne.n	2716 <do_newconn+0x5e>
    26d4:	4b11      	ldr	r3, [pc, #68]	; (271c <do_newconn+0x64>)
    26d6:	4798      	blx	r3
    26d8:	6068      	str	r0, [r5, #4]
    26da:	6822      	ldr	r2, [r4, #0]
    26dc:	6850      	ldr	r0, [r2, #4]
    26de:	b910      	cbnz	r0, 26e6 <do_newconn+0x2e>
    26e0:	23ff      	movs	r3, #255	; 0xff
    26e2:	7123      	strb	r3, [r4, #4]
    26e4:	e007      	b.n	26f6 <do_newconn+0x3e>
    26e6:	7813      	ldrb	r3, [r2, #0]
    26e8:	490d      	ldr	r1, [pc, #52]	; (2720 <do_newconn+0x68>)
    26ea:	2b22      	cmp	r3, #34	; 0x22
    26ec:	bf04      	itt	eq
    26ee:	2301      	moveq	r3, #1
    26f0:	7403      	strbeq	r3, [r0, #16]
    26f2:	4b0c      	ldr	r3, [pc, #48]	; (2724 <do_newconn+0x6c>)
    26f4:	4798      	blx	r3
    26f6:	6820      	ldr	r0, [r4, #0]
    26f8:	4b0b      	ldr	r3, [pc, #44]	; (2728 <do_newconn+0x70>)
    26fa:	300c      	adds	r0, #12
    26fc:	e8bd 4070 	ldmia.w	sp!, {r4, r5, r6, lr}
    2700:	4718      	bx	r3
    2702:	4b0a      	ldr	r3, [pc, #40]	; (272c <do_newconn+0x74>)
    2704:	4798      	blx	r3
    2706:	6068      	str	r0, [r5, #4]
    2708:	6820      	ldr	r0, [r4, #0]
    270a:	6843      	ldr	r3, [r0, #4]
    270c:	2b00      	cmp	r3, #0
    270e:	d0e7      	beq.n	26e0 <do_newconn+0x28>
    2710:	4b07      	ldr	r3, [pc, #28]	; (2730 <do_newconn+0x78>)
    2712:	4798      	blx	r3
    2714:	e7ef      	b.n	26f6 <do_newconn+0x3e>
    2716:	23fa      	movs	r3, #250	; 0xfa
    2718:	e7e3      	b.n	26e2 <do_newconn+0x2a>
    271a:	bf00      	nop
    271c:	00007729 	.word	0x00007729
    2720:	00002299 	.word	0x00002299
    2724:	000076f1 	.word	0x000076f1
    2728:	00001cd9 	.word	0x00001cd9
    272c:	00005515 	.word	0x00005515
    2730:	00002319 	.word	0x00002319

00002734 <netconn_alloc>:
    2734:	b5f8      	push	{r3, r4, r5, r6, r7, lr}
    2736:	4605      	mov	r5, r0
    2738:	4b16      	ldr	r3, [pc, #88]	; (2794 <netconn_alloc+0x60>)
    273a:	2007      	movs	r0, #7
    273c:	460f      	mov	r7, r1
    273e:	4798      	blx	r3
    2740:	4604      	mov	r4, r0
    2742:	b320      	cbz	r0, 278e <netconn_alloc+0x5a>
    2744:	2100      	movs	r1, #0
    2746:	f100 060c 	add.w	r6, r0, #12
    274a:	7201      	strb	r1, [r0, #8]
    274c:	7005      	strb	r5, [r0, #0]
    274e:	6041      	str	r1, [r0, #4]
    2750:	4b11      	ldr	r3, [pc, #68]	; (2798 <netconn_alloc+0x64>)
    2752:	4630      	mov	r0, r6
    2754:	4798      	blx	r3
    2756:	b940      	cbnz	r0, 276a <netconn_alloc+0x36>
    2758:	2110      	movs	r1, #16
    275a:	1860      	adds	r0, r4, r1
    275c:	4b0f      	ldr	r3, [pc, #60]	; (279c <netconn_alloc+0x68>)
    275e:	4798      	blx	r3
    2760:	4605      	mov	r5, r0
    2762:	b140      	cbz	r0, 2776 <netconn_alloc+0x42>
    2764:	4630      	mov	r0, r6
    2766:	4b0e      	ldr	r3, [pc, #56]	; (27a0 <netconn_alloc+0x6c>)
    2768:	4798      	blx	r3
    276a:	4621      	mov	r1, r4
    276c:	2007      	movs	r0, #7
    276e:	4b0d      	ldr	r3, [pc, #52]	; (27a4 <netconn_alloc+0x70>)
    2770:	4798      	blx	r3
    2772:	2400      	movs	r4, #0
    2774:	e00b      	b.n	278e <netconn_alloc+0x5a>
    2776:	4b0c      	ldr	r3, [pc, #48]	; (27a8 <netconn_alloc+0x74>)
    2778:	f104 0014 	add.w	r0, r4, #20
    277c:	4798      	blx	r3
    277e:	f04f 33ff 	mov.w	r3, #4294967295
    2782:	7065      	strb	r5, [r4, #1]
    2784:	61a3      	str	r3, [r4, #24]
    2786:	62a7      	str	r7, [r4, #40]	; 0x28
    2788:	6265      	str	r5, [r4, #36]	; 0x24
    278a:	6225      	str	r5, [r4, #32]
    278c:	7725      	strb	r5, [r4, #28]
    278e:	4620      	mov	r0, r4
    2790:	bdf8      	pop	{r3, r4, r5, r6, r7, pc}
    2792:	bf00      	nop
    2794:	00004539 	.word	0x00004539
    2798:	00001c79 	.word	0x00001c79
    279c:	00001d5d 	.word	0x00001d5d
    27a0:	00001d91 	.word	0x00001d91
    27a4:	00004559 	.word	0x00004559
    27a8:	00001eb9 	.word	0x00001eb9

000027ac <netconn_free>:
    27ac:	b570      	push	{r4, r5, r6, lr}
    27ae:	f100 050c 	add.w	r5, r0, #12
    27b2:	4604      	mov	r4, r0
    27b4:	4b05      	ldr	r3, [pc, #20]	; (27cc <netconn_free+0x20>)
    27b6:	4628      	mov	r0, r5
    27b8:	4798      	blx	r3
    27ba:	4628      	mov	r0, r5
    27bc:	4b04      	ldr	r3, [pc, #16]	; (27d0 <netconn_free+0x24>)
    27be:	4798      	blx	r3
    27c0:	4621      	mov	r1, r4
    27c2:	2007      	movs	r0, #7
    27c4:	4b03      	ldr	r3, [pc, #12]	; (27d4 <netconn_free+0x28>)
    27c6:	e8bd 4070 	ldmia.w	sp!, {r4, r5, r6, lr}
    27ca:	4718      	bx	r3
    27cc:	00001d91 	.word	0x00001d91
    27d0:	00001d55 	.word	0x00001d55
    27d4:	00004559 	.word	0x00004559

000027d8 <netconn_drain>:
    27d8:	e92d 47f3 	stmdb	sp!, {r0, r1, r4, r5, r6, r7, r8, r9, sl, lr}
    27dc:	f100 0510 	add.w	r5, r0, #16
    27e0:	4604      	mov	r4, r0
    27e2:	4f25      	ldr	r7, [pc, #148]	; (2878 <netconn_drain+0xa0>)
    27e4:	4628      	mov	r0, r5
    27e6:	47b8      	blx	r7
    27e8:	bb10      	cbnz	r0, 2830 <netconn_drain+0x58>
    27ea:	3414      	adds	r4, #20
    27ec:	4620      	mov	r0, r4
    27ee:	47b8      	blx	r7
    27f0:	2800      	cmp	r0, #0
    27f2:	d13b      	bne.n	286c <netconn_drain+0x94>
    27f4:	b002      	add	sp, #8
    27f6:	e8bd 87f0 	ldmia.w	sp!, {r4, r5, r6, r7, r8, r9, sl, pc}
    27fa:	7823      	ldrb	r3, [r4, #0]
    27fc:	2b10      	cmp	r3, #16
    27fe:	d114      	bne.n	282a <netconn_drain+0x52>
    2800:	9e01      	ldr	r6, [sp, #4]
    2802:	b136      	cbz	r6, 2812 <netconn_drain+0x3a>
    2804:	6860      	ldr	r0, [r4, #4]
    2806:	b110      	cbz	r0, 280e <netconn_drain+0x36>
    2808:	8931      	ldrh	r1, [r6, #8]
    280a:	4b1c      	ldr	r3, [pc, #112]	; (287c <netconn_drain+0xa4>)
    280c:	4798      	blx	r3
    280e:	4630      	mov	r0, r6
    2810:	47d0      	blx	sl
    2812:	a901      	add	r1, sp, #4
    2814:	4628      	mov	r0, r5
    2816:	47c0      	blx	r8
    2818:	3001      	adds	r0, #1
    281a:	d1ee      	bne.n	27fa <netconn_drain+0x22>
    281c:	4628      	mov	r0, r5
    281e:	4b18      	ldr	r3, [pc, #96]	; (2880 <netconn_drain+0xa8>)
    2820:	4798      	blx	r3
    2822:	4628      	mov	r0, r5
    2824:	4b17      	ldr	r3, [pc, #92]	; (2884 <netconn_drain+0xac>)
    2826:	4798      	blx	r3
    2828:	e7df      	b.n	27ea <netconn_drain+0x12>
    282a:	9801      	ldr	r0, [sp, #4]
    282c:	47c8      	blx	r9
    282e:	e7f0      	b.n	2812 <netconn_drain+0x3a>
    2830:	f8df 8054 	ldr.w	r8, [pc, #84]	; 2888 <netconn_drain+0xb0>
    2834:	f8df 9058 	ldr.w	r9, [pc, #88]	; 2890 <netconn_drain+0xb8>
    2838:	f8df a058 	ldr.w	sl, [pc, #88]	; 2894 <netconn_drain+0xbc>
    283c:	e7e9      	b.n	2812 <netconn_drain+0x3a>
    283e:	9d01      	ldr	r5, [sp, #4]
    2840:	4628      	mov	r0, r5
    2842:	f7ff ffc9 	bl	27d8 <netconn_drain>
    2846:	6868      	ldr	r0, [r5, #4]
    2848:	b110      	cbz	r0, 2850 <netconn_drain+0x78>
    284a:	47b8      	blx	r7
    284c:	2300      	movs	r3, #0
    284e:	606b      	str	r3, [r5, #4]
    2850:	4628      	mov	r0, r5
    2852:	47c0      	blx	r8
    2854:	a901      	add	r1, sp, #4
    2856:	4620      	mov	r0, r4
    2858:	47b0      	blx	r6
    285a:	3001      	adds	r0, #1
    285c:	d1ef      	bne.n	283e <netconn_drain+0x66>
    285e:	4620      	mov	r0, r4
    2860:	4b07      	ldr	r3, [pc, #28]	; (2880 <netconn_drain+0xa8>)
    2862:	4798      	blx	r3
    2864:	4620      	mov	r0, r4
    2866:	4b07      	ldr	r3, [pc, #28]	; (2884 <netconn_drain+0xac>)
    2868:	4798      	blx	r3
    286a:	e7c3      	b.n	27f4 <netconn_drain+0x1c>
    286c:	4e06      	ldr	r6, [pc, #24]	; (2888 <netconn_drain+0xb0>)
    286e:	4f07      	ldr	r7, [pc, #28]	; (288c <netconn_drain+0xb4>)
    2870:	f8df 8024 	ldr.w	r8, [pc, #36]	; 2898 <netconn_drain+0xc0>
    2874:	e7ee      	b.n	2854 <netconn_drain+0x7c>
    2876:	bf00      	nop
    2878:	00001eb5 	.word	0x00001eb5
    287c:	00004b91 	.word	0x00004b91
    2880:	00001d81 	.word	0x00001d81
    2884:	00001eb9 	.word	0x00001eb9
    2888:	00001e8d 	.word	0x00001e8d
    288c:	000053d5 	.word	0x000053d5
    2890:	00002ad5 	.word	0x00002ad5
    2894:	00004785 	.word	0x00004785
    2898:	000027ad 	.word	0x000027ad

0000289c <do_delconn>:
    289c:	b510      	push	{r4, lr}
    289e:	4604      	mov	r4, r0
    28a0:	6800      	ldr	r0, [r0, #0]
    28a2:	7843      	ldrb	r3, [r0, #1]
    28a4:	b183      	cbz	r3, 28c8 <do_delconn+0x2c>
    28a6:	3b02      	subs	r3, #2
    28a8:	2b01      	cmp	r3, #1
    28aa:	d90d      	bls.n	28c8 <do_delconn+0x2c>
    28ac:	23fb      	movs	r3, #251	; 0xfb
    28ae:	7123      	strb	r3, [r4, #4]
    28b0:	6820      	ldr	r0, [r4, #0]
    28b2:	4b1b      	ldr	r3, [pc, #108]	; (2920 <do_delconn+0x84>)
    28b4:	300c      	adds	r0, #12
    28b6:	4798      	blx	r3
    28b8:	2800      	cmp	r0, #0
    28ba:	d030      	beq.n	291e <do_delconn+0x82>
    28bc:	6820      	ldr	r0, [r4, #0]
    28be:	4b19      	ldr	r3, [pc, #100]	; (2924 <do_delconn+0x88>)
    28c0:	300c      	adds	r0, #12
    28c2:	e8bd 4010 	ldmia.w	sp!, {r4, lr}
    28c6:	4718      	bx	r3
    28c8:	4b17      	ldr	r3, [pc, #92]	; (2928 <do_delconn+0x8c>)
    28ca:	4798      	blx	r3
    28cc:	6823      	ldr	r3, [r4, #0]
    28ce:	6858      	ldr	r0, [r3, #4]
    28d0:	b168      	cbz	r0, 28ee <do_delconn+0x52>
    28d2:	781a      	ldrb	r2, [r3, #0]
    28d4:	f002 02f0 	and.w	r2, r2, #240	; 0xf0
    28d8:	2a10      	cmp	r2, #16
    28da:	d016      	beq.n	290a <do_delconn+0x6e>
    28dc:	2a20      	cmp	r2, #32
    28de:	d103      	bne.n	28e8 <do_delconn+0x4c>
    28e0:	2300      	movs	r3, #0
    28e2:	61c3      	str	r3, [r0, #28]
    28e4:	4b11      	ldr	r3, [pc, #68]	; (292c <do_delconn+0x90>)
    28e6:	4798      	blx	r3
    28e8:	6823      	ldr	r3, [r4, #0]
    28ea:	2200      	movs	r2, #0
    28ec:	605a      	str	r2, [r3, #4]
    28ee:	6820      	ldr	r0, [r4, #0]
    28f0:	6a83      	ldr	r3, [r0, #40]	; 0x28
    28f2:	b113      	cbz	r3, 28fa <do_delconn+0x5e>
    28f4:	2200      	movs	r2, #0
    28f6:	4611      	mov	r1, r2
    28f8:	4798      	blx	r3
    28fa:	6820      	ldr	r0, [r4, #0]
    28fc:	6a83      	ldr	r3, [r0, #40]	; 0x28
    28fe:	2b00      	cmp	r3, #0
    2900:	d0d6      	beq.n	28b0 <do_delconn+0x14>
    2902:	2200      	movs	r2, #0
    2904:	2102      	movs	r1, #2
    2906:	4798      	blx	r3
    2908:	e7d2      	b.n	28b0 <do_delconn+0x14>
    290a:	2204      	movs	r2, #4
    290c:	705a      	strb	r2, [r3, #1]
    290e:	2203      	movs	r2, #3
    2910:	7222      	strb	r2, [r4, #8]
    2912:	4618      	mov	r0, r3
    2914:	625c      	str	r4, [r3, #36]	; 0x24
    2916:	4b06      	ldr	r3, [pc, #24]	; (2930 <do_delconn+0x94>)
    2918:	e8bd 4010 	ldmia.w	sp!, {r4, lr}
    291c:	4718      	bx	r3
    291e:	bd10      	pop	{r4, pc}
    2920:	00001d51 	.word	0x00001d51
    2924:	00001cd9 	.word	0x00001cd9
    2928:	000027d9 	.word	0x000027d9
    292c:	000076f9 	.word	0x000076f9
    2930:	00002481 	.word	0x00002481

00002934 <do_bind>:
    2934:	b510      	push	{r4, lr}
    2936:	6803      	ldr	r3, [r0, #0]
    2938:	f993 2008 	ldrsb.w	r2, [r3, #8]
    293c:	f112 0f09 	cmn.w	r2, #9
    2940:	4604      	mov	r4, r0
    2942:	da06      	bge.n	2952 <do_bind+0x1e>
    2944:	7102      	strb	r2, [r0, #4]
    2946:	6820      	ldr	r0, [r4, #0]
    2948:	4b0d      	ldr	r3, [pc, #52]	; (2980 <do_bind+0x4c>)
    294a:	300c      	adds	r0, #12
    294c:	e8bd 4010 	ldmia.w	sp!, {r4, lr}
    2950:	4718      	bx	r3
    2952:	22fa      	movs	r2, #250	; 0xfa
    2954:	7102      	strb	r2, [r0, #4]
    2956:	6858      	ldr	r0, [r3, #4]
    2958:	2800      	cmp	r0, #0
    295a:	d0f4      	beq.n	2946 <do_bind+0x12>
    295c:	781b      	ldrb	r3, [r3, #0]
    295e:	f003 03f0 	and.w	r3, r3, #240	; 0xf0
    2962:	2b10      	cmp	r3, #16
    2964:	d007      	beq.n	2976 <do_bind+0x42>
    2966:	2b20      	cmp	r3, #32
    2968:	d1ed      	bne.n	2946 <do_bind+0x12>
    296a:	89a2      	ldrh	r2, [r4, #12]
    296c:	68a1      	ldr	r1, [r4, #8]
    296e:	4b05      	ldr	r3, [pc, #20]	; (2984 <do_bind+0x50>)
    2970:	4798      	blx	r3
    2972:	7120      	strb	r0, [r4, #4]
    2974:	e7e7      	b.n	2946 <do_bind+0x12>
    2976:	89a2      	ldrh	r2, [r4, #12]
    2978:	68a1      	ldr	r1, [r4, #8]
    297a:	4b03      	ldr	r3, [pc, #12]	; (2988 <do_bind+0x54>)
    297c:	e7f8      	b.n	2970 <do_bind+0x3c>
    297e:	bf00      	nop
    2980:	00001cd9 	.word	0x00001cd9
    2984:	00007501 	.word	0x00007501
    2988:	00004ae1 	.word	0x00004ae1

0000298c <do_send>:
    298c:	b570      	push	{r4, r5, r6, lr}
    298e:	6803      	ldr	r3, [r0, #0]
    2990:	f993 2008 	ldrsb.w	r2, [r3, #8]
    2994:	f112 0f09 	cmn.w	r2, #9
    2998:	4604      	mov	r4, r0
    299a:	da06      	bge.n	29aa <do_send+0x1e>
    299c:	7102      	strb	r2, [r0, #4]
    299e:	6820      	ldr	r0, [r4, #0]
    29a0:	4b0f      	ldr	r3, [pc, #60]	; (29e0 <do_send+0x54>)
    29a2:	300c      	adds	r0, #12
    29a4:	e8bd 4070 	ldmia.w	sp!, {r4, r5, r6, lr}
    29a8:	4718      	bx	r3
    29aa:	22f3      	movs	r2, #243	; 0xf3
    29ac:	7102      	strb	r2, [r0, #4]
    29ae:	6858      	ldr	r0, [r3, #4]
    29b0:	2800      	cmp	r0, #0
    29b2:	d0f4      	beq.n	299e <do_send+0x12>
    29b4:	781b      	ldrb	r3, [r3, #0]
    29b6:	f003 03f0 	and.w	r3, r3, #240	; 0xf0
    29ba:	2b20      	cmp	r3, #32
    29bc:	d1ef      	bne.n	299e <do_send+0x12>
    29be:	68a1      	ldr	r1, [r4, #8]
    29c0:	f111 0208 	adds.w	r2, r1, #8
    29c4:	d001      	beq.n	29ca <do_send+0x3e>
    29c6:	688b      	ldr	r3, [r1, #8]
    29c8:	b923      	cbnz	r3, 29d4 <do_send+0x48>
    29ca:	6809      	ldr	r1, [r1, #0]
    29cc:	4b05      	ldr	r3, [pc, #20]	; (29e4 <do_send+0x58>)
    29ce:	4798      	blx	r3
    29d0:	7120      	strb	r0, [r4, #4]
    29d2:	e7e4      	b.n	299e <do_send+0x12>
    29d4:	898b      	ldrh	r3, [r1, #12]
    29d6:	4d04      	ldr	r5, [pc, #16]	; (29e8 <do_send+0x5c>)
    29d8:	6809      	ldr	r1, [r1, #0]
    29da:	47a8      	blx	r5
    29dc:	e7f8      	b.n	29d0 <do_send+0x44>
    29de:	bf00      	nop
    29e0:	00001cd9 	.word	0x00001cd9
    29e4:	000076d9 	.word	0x000076d9
    29e8:	000076a5 	.word	0x000076a5

000029ec <do_recv>:
    29ec:	e92d 41f0 	stmdb	sp!, {r4, r5, r6, r7, r8, lr}
    29f0:	2300      	movs	r3, #0
    29f2:	7103      	strb	r3, [r0, #4]
    29f4:	6803      	ldr	r3, [r0, #0]
    29f6:	685a      	ldr	r2, [r3, #4]
    29f8:	4604      	mov	r4, r0
    29fa:	b92a      	cbnz	r2, 2a08 <do_recv+0x1c>
    29fc:	6820      	ldr	r0, [r4, #0]
    29fe:	4b0b      	ldr	r3, [pc, #44]	; (2a2c <do_recv+0x40>)
    2a00:	300c      	adds	r0, #12
    2a02:	e8bd 41f0 	ldmia.w	sp!, {r4, r5, r6, r7, r8, lr}
    2a06:	4718      	bx	r3
    2a08:	781b      	ldrb	r3, [r3, #0]
    2a0a:	2b10      	cmp	r3, #16
    2a0c:	d1f6      	bne.n	29fc <do_recv+0x10>
    2a0e:	6885      	ldr	r5, [r0, #8]
    2a10:	4f07      	ldr	r7, [pc, #28]	; (2a30 <do_recv+0x44>)
    2a12:	f64f 78ff 	movw	r8, #65535	; 0xffff
    2a16:	4545      	cmp	r5, r8
    2a18:	6823      	ldr	r3, [r4, #0]
    2a1a:	462e      	mov	r6, r5
    2a1c:	bf28      	it	cs
    2a1e:	4646      	movcs	r6, r8
    2a20:	b2b1      	uxth	r1, r6
    2a22:	6858      	ldr	r0, [r3, #4]
    2a24:	47b8      	blx	r7
    2a26:	1bad      	subs	r5, r5, r6
    2a28:	d1f5      	bne.n	2a16 <do_recv+0x2a>
    2a2a:	e7e7      	b.n	29fc <do_recv+0x10>
    2a2c:	00001cd9 	.word	0x00001cd9
    2a30:	00004b91 	.word	0x00004b91

00002a34 <do_write>:
    2a34:	4603      	mov	r3, r0
    2a36:	6800      	ldr	r0, [r0, #0]
    2a38:	f990 2008 	ldrsb.w	r2, [r0, #8]
    2a3c:	f112 0f09 	cmn.w	r2, #9
    2a40:	da03      	bge.n	2a4a <do_write+0x16>
    2a42:	711a      	strb	r2, [r3, #4]
    2a44:	300c      	adds	r0, #12
    2a46:	4b0a      	ldr	r3, [pc, #40]	; (2a70 <do_write+0x3c>)
    2a48:	4718      	bx	r3
    2a4a:	7802      	ldrb	r2, [r0, #0]
    2a4c:	2a10      	cmp	r2, #16
    2a4e:	d10d      	bne.n	2a6c <do_write+0x38>
    2a50:	7842      	ldrb	r2, [r0, #1]
    2a52:	b10a      	cbz	r2, 2a58 <do_write+0x24>
    2a54:	22fb      	movs	r2, #251	; 0xfb
    2a56:	e7f4      	b.n	2a42 <do_write+0xe>
    2a58:	6841      	ldr	r1, [r0, #4]
    2a5a:	b129      	cbz	r1, 2a68 <do_write+0x34>
    2a5c:	2101      	movs	r1, #1
    2a5e:	6243      	str	r3, [r0, #36]	; 0x24
    2a60:	7041      	strb	r1, [r0, #1]
    2a62:	6202      	str	r2, [r0, #32]
    2a64:	4b03      	ldr	r3, [pc, #12]	; (2a74 <do_write+0x40>)
    2a66:	4718      	bx	r3
    2a68:	22f3      	movs	r2, #243	; 0xf3
    2a6a:	e7ea      	b.n	2a42 <do_write+0xe>
    2a6c:	22fa      	movs	r2, #250	; 0xfa
    2a6e:	e7e8      	b.n	2a42 <do_write+0xe>
    2a70:	00001cd9 	.word	0x00001cd9
    2a74:	00002371 	.word	0x00002371

00002a78 <do_getaddr>:
    2a78:	b430      	push	{r4, r5}
    2a7a:	6801      	ldr	r1, [r0, #0]
    2a7c:	684b      	ldr	r3, [r1, #4]
    2a7e:	b1bb      	cbz	r3, 2ab0 <do_getaddr+0x38>
    2a80:	7c04      	ldrb	r4, [r0, #16]
    2a82:	6882      	ldr	r2, [r0, #8]
    2a84:	b17c      	cbz	r4, 2aa6 <do_getaddr+0x2e>
    2a86:	681d      	ldr	r5, [r3, #0]
    2a88:	6015      	str	r5, [r2, #0]
    2a8a:	2200      	movs	r2, #0
    2a8c:	7102      	strb	r2, [r0, #4]
    2a8e:	780a      	ldrb	r2, [r1, #0]
    2a90:	f002 02f0 	and.w	r2, r2, #240	; 0xf0
    2a94:	2a10      	cmp	r2, #16
    2a96:	d015      	beq.n	2ac4 <do_getaddr+0x4c>
    2a98:	2a20      	cmp	r2, #32
    2a9a:	d10b      	bne.n	2ab4 <do_getaddr+0x3c>
    2a9c:	b12c      	cbz	r4, 2aaa <do_getaddr+0x32>
    2a9e:	68c2      	ldr	r2, [r0, #12]
    2aa0:	8a5b      	ldrh	r3, [r3, #18]
    2aa2:	8013      	strh	r3, [r2, #0]
    2aa4:	e006      	b.n	2ab4 <do_getaddr+0x3c>
    2aa6:	685d      	ldr	r5, [r3, #4]
    2aa8:	e7ee      	b.n	2a88 <do_getaddr+0x10>
    2aaa:	7c1a      	ldrb	r2, [r3, #16]
    2aac:	0752      	lsls	r2, r2, #29
    2aae:	d406      	bmi.n	2abe <do_getaddr+0x46>
    2ab0:	23f3      	movs	r3, #243	; 0xf3
    2ab2:	7103      	strb	r3, [r0, #4]
    2ab4:	f101 000c 	add.w	r0, r1, #12
    2ab8:	4b05      	ldr	r3, [pc, #20]	; (2ad0 <do_getaddr+0x58>)
    2aba:	bc30      	pop	{r4, r5}
    2abc:	4718      	bx	r3
    2abe:	68c2      	ldr	r2, [r0, #12]
    2ac0:	8a9b      	ldrh	r3, [r3, #20]
    2ac2:	e7ee      	b.n	2aa2 <do_getaddr+0x2a>
    2ac4:	68c2      	ldr	r2, [r0, #12]
    2ac6:	b10c      	cbz	r4, 2acc <do_getaddr+0x54>
    2ac8:	8b5b      	ldrh	r3, [r3, #26]
    2aca:	e7ea      	b.n	2aa2 <do_getaddr+0x2a>
    2acc:	8b9b      	ldrh	r3, [r3, #28]
    2ace:	e7e8      	b.n	2aa2 <do_getaddr+0x2a>
    2ad0:	00001cd9 	.word	0x00001cd9

00002ad4 <netbuf_delete>:
    2ad4:	b510      	push	{r4, lr}
    2ad6:	4604      	mov	r4, r0
    2ad8:	b160      	cbz	r0, 2af4 <netbuf_delete+0x20>
    2ada:	6800      	ldr	r0, [r0, #0]
    2adc:	b120      	cbz	r0, 2ae8 <netbuf_delete+0x14>
    2ade:	4b06      	ldr	r3, [pc, #24]	; (2af8 <netbuf_delete+0x24>)
    2ae0:	4798      	blx	r3
    2ae2:	2300      	movs	r3, #0
    2ae4:	6063      	str	r3, [r4, #4]
    2ae6:	6023      	str	r3, [r4, #0]
    2ae8:	4621      	mov	r1, r4
    2aea:	2006      	movs	r0, #6
    2aec:	4b03      	ldr	r3, [pc, #12]	; (2afc <netbuf_delete+0x28>)
    2aee:	e8bd 4010 	ldmia.w	sp!, {r4, lr}
    2af2:	4718      	bx	r3
    2af4:	bd10      	pop	{r4, pc}
    2af6:	bf00      	nop
    2af8:	00004785 	.word	0x00004785
    2afc:	00004559 	.word	0x00004559

00002b00 <netbuf_free>:
    2b00:	b510      	push	{r4, lr}
    2b02:	4604      	mov	r4, r0
    2b04:	b900      	cbnz	r0, 2b08 <netbuf_free+0x8>
    2b06:	e7fe      	b.n	2b06 <netbuf_free+0x6>
    2b08:	6800      	ldr	r0, [r0, #0]
    2b0a:	b108      	cbz	r0, 2b10 <netbuf_free+0x10>
    2b0c:	4b02      	ldr	r3, [pc, #8]	; (2b18 <netbuf_free+0x18>)
    2b0e:	4798      	blx	r3
    2b10:	2300      	movs	r3, #0
    2b12:	6063      	str	r3, [r4, #4]
    2b14:	6023      	str	r3, [r4, #0]
    2b16:	bd10      	pop	{r4, pc}
    2b18:	00004785 	.word	0x00004785

00002b1c <netbuf_ref>:
    2b1c:	b570      	push	{r4, r5, r6, lr}
    2b1e:	460e      	mov	r6, r1
    2b20:	4615      	mov	r5, r2
    2b22:	4604      	mov	r4, r0
    2b24:	b900      	cbnz	r0, 2b28 <netbuf_ref+0xc>
    2b26:	e7fe      	b.n	2b26 <netbuf_ref+0xa>
    2b28:	6800      	ldr	r0, [r0, #0]
    2b2a:	b108      	cbz	r0, 2b30 <netbuf_ref+0x14>
    2b2c:	4b09      	ldr	r3, [pc, #36]	; (2b54 <netbuf_ref+0x38>)
    2b2e:	4798      	blx	r3
    2b30:	2100      	movs	r1, #0
    2b32:	2202      	movs	r2, #2
    2b34:	4608      	mov	r0, r1
    2b36:	4b08      	ldr	r3, [pc, #32]	; (2b58 <netbuf_ref+0x3c>)
    2b38:	4798      	blx	r3
    2b3a:	6020      	str	r0, [r4, #0]
    2b3c:	b918      	cbnz	r0, 2b46 <netbuf_ref+0x2a>
    2b3e:	6060      	str	r0, [r4, #4]
    2b40:	f04f 30ff 	mov.w	r0, #4294967295
    2b44:	bd70      	pop	{r4, r5, r6, pc}
    2b46:	6046      	str	r6, [r0, #4]
    2b48:	8105      	strh	r5, [r0, #8]
    2b4a:	8145      	strh	r5, [r0, #10]
    2b4c:	6060      	str	r0, [r4, #4]
    2b4e:	2000      	movs	r0, #0
    2b50:	bd70      	pop	{r4, r5, r6, pc}
    2b52:	bf00      	nop
    2b54:	00004785 	.word	0x00004785
    2b58:	000047dd 	.word	0x000047dd

00002b5c <get_socket>:
    2b5c:	2803      	cmp	r0, #3
    2b5e:	d808      	bhi.n	2b72 <get_socket+0x16>
    2b60:	2318      	movs	r3, #24
    2b62:	4a05      	ldr	r2, [pc, #20]	; (2b78 <get_socket+0x1c>)
    2b64:	4343      	muls	r3, r0
    2b66:	18d0      	adds	r0, r2, r3
    2b68:	58d3      	ldr	r3, [r2, r3]
    2b6a:	2b00      	cmp	r3, #0
    2b6c:	bf08      	it	eq
    2b6e:	2000      	moveq	r0, #0
    2b70:	4770      	bx	lr
    2b72:	2000      	movs	r0, #0
    2b74:	4770      	bx	lr
    2b76:	bf00      	nop
    2b78:	20001574 	.word	0x20001574

00002b7c <alloc_socket>:
    2b7c:	b5f0      	push	{r4, r5, r6, r7, lr}
    2b7e:	4c12      	ldr	r4, [pc, #72]	; (2bc8 <alloc_socket+0x4c>)
    2b80:	2300      	movs	r3, #0
    2b82:	2618      	movs	r6, #24
    2b84:	46a6      	mov	lr, r4
    2b86:	fb06 f703 	mul.w	r7, r6, r3
    2b8a:	593d      	ldr	r5, [r7, r4]
    2b8c:	b9b5      	cbnz	r5, 2bbc <alloc_socket+0x40>
    2b8e:	7802      	ldrb	r2, [r0, #0]
    2b90:	51e0      	str	r0, [r4, r7]
    2b92:	19e6      	adds	r6, r4, r7
    2b94:	2a10      	cmp	r2, #16
    2b96:	6075      	str	r5, [r6, #4]
    2b98:	8135      	strh	r5, [r6, #8]
    2b9a:	8175      	strh	r5, [r6, #10]
    2b9c:	d10c      	bne.n	2bb8 <alloc_socket+0x3c>
    2b9e:	3100      	adds	r1, #0
    2ba0:	bf18      	it	ne
    2ba2:	2101      	movne	r1, #1
    2ba4:	2218      	movs	r2, #24
    2ba6:	fb02 e203 	mla	r2, r2, r3, lr
    2baa:	8191      	strh	r1, [r2, #12]
    2bac:	2100      	movs	r1, #0
    2bae:	81d1      	strh	r1, [r2, #14]
    2bb0:	6111      	str	r1, [r2, #16]
    2bb2:	6151      	str	r1, [r2, #20]
    2bb4:	4618      	mov	r0, r3
    2bb6:	bdf0      	pop	{r4, r5, r6, r7, pc}
    2bb8:	2101      	movs	r1, #1
    2bba:	e7f3      	b.n	2ba4 <alloc_socket+0x28>
    2bbc:	3301      	adds	r3, #1
    2bbe:	2b04      	cmp	r3, #4
    2bc0:	d1e1      	bne.n	2b86 <alloc_socket+0xa>
    2bc2:	f04f 33ff 	mov.w	r3, #4294967295
    2bc6:	e7f5      	b.n	2bb4 <alloc_socket+0x38>
    2bc8:	20001574 	.word	0x20001574

00002bcc <event_callback>:
    2bcc:	e92d 4ff8 	stmdb	sp!, {r3, r4, r5, r6, r7, r8, r9, sl, fp, lr}
    2bd0:	b338      	cbz	r0, 2c22 <event_callback+0x56>
    2bd2:	6985      	ldr	r5, [r0, #24]
    2bd4:	2d00      	cmp	r5, #0
    2bd6:	da04      	bge.n	2be2 <event_callback+0x16>
    2bd8:	bb19      	cbnz	r1, 2c22 <event_callback+0x56>
    2bda:	3d01      	subs	r5, #1
    2bdc:	6185      	str	r5, [r0, #24]
    2bde:	e8bd 8ff8 	ldmia.w	sp!, {r3, r4, r5, r6, r7, r8, r9, sl, fp, pc}
    2be2:	4628      	mov	r0, r5
    2be4:	4b2e      	ldr	r3, [pc, #184]	; (2ca0 <event_callback+0xd4>)
    2be6:	4798      	blx	r3
    2be8:	4604      	mov	r4, r0
    2bea:	b1d0      	cbz	r0, 2c22 <event_callback+0x56>
    2bec:	2904      	cmp	r1, #4
    2bee:	d807      	bhi.n	2c00 <event_callback+0x34>
    2bf0:	e8df f001 	tbb	[pc, r1]
    2bf4:	1f1c1903 	.word	0x1f1c1903
    2bf8:	21          	.byte	0x21
    2bf9:	00          	.byte	0x00
    2bfa:	8943      	ldrh	r3, [r0, #10]
    2bfc:	3301      	adds	r3, #1
    2bfe:	8163      	strh	r3, [r4, #10]
    2c00:	6963      	ldr	r3, [r4, #20]
    2c02:	b173      	cbz	r3, 2c22 <event_callback+0x56>
    2c04:	f8df 809c 	ldr.w	r8, [pc, #156]	; 2ca4 <event_callback+0xd8>
    2c08:	f8df b09c 	ldr.w	fp, [pc, #156]	; 2ca8 <event_callback+0xdc>
    2c0c:	096f      	lsrs	r7, r5, #5
    2c0e:	2601      	movs	r6, #1
    2c10:	f005 051f 	and.w	r5, r5, #31
    2c14:	40ae      	lsls	r6, r5
    2c16:	46c1      	mov	r9, r8
    2c18:	f8d8 5060 	ldr.w	r5, [r8, #96]	; 0x60
    2c1c:	f04f 0a01 	mov.w	sl, #1
    2c20:	b965      	cbnz	r5, 2c3c <event_callback+0x70>
    2c22:	e8bd 8ff8 	ldmia.w	sp!, {r3, r4, r5, r6, r7, r8, r9, sl, fp, pc}
    2c26:	8943      	ldrh	r3, [r0, #10]
    2c28:	3b01      	subs	r3, #1
    2c2a:	e7e8      	b.n	2bfe <event_callback+0x32>
    2c2c:	2301      	movs	r3, #1
    2c2e:	81a3      	strh	r3, [r4, #12]
    2c30:	e7e6      	b.n	2c00 <event_callback+0x34>
    2c32:	2300      	movs	r3, #0
    2c34:	e7fb      	b.n	2c2e <event_callback+0x62>
    2c36:	2301      	movs	r3, #1
    2c38:	81c3      	strh	r3, [r0, #14]
    2c3a:	e7e1      	b.n	2c00 <event_callback+0x34>
    2c3c:	696b      	ldr	r3, [r5, #20]
    2c3e:	b9fb      	cbnz	r3, 2c80 <event_callback+0xb4>
    2c40:	f9b4 200a 	ldrsh.w	r2, [r4, #10]
    2c44:	2a00      	cmp	r2, #0
    2c46:	dd07      	ble.n	2c58 <event_callback+0x8c>
    2c48:	68aa      	ldr	r2, [r5, #8]
    2c4a:	b12a      	cbz	r2, 2c58 <event_callback+0x8c>
    2c4c:	f852 3027 	ldr.w	r3, [r2, r7, lsl #2]
    2c50:	421e      	tst	r6, r3
    2c52:	bf14      	ite	ne
    2c54:	2301      	movne	r3, #1
    2c56:	2300      	moveq	r3, #0
    2c58:	89a2      	ldrh	r2, [r4, #12]
    2c5a:	b142      	cbz	r2, 2c6e <event_callback+0xa2>
    2c5c:	b93b      	cbnz	r3, 2c6e <event_callback+0xa2>
    2c5e:	68ea      	ldr	r2, [r5, #12]
    2c60:	b12a      	cbz	r2, 2c6e <event_callback+0xa2>
    2c62:	f852 3027 	ldr.w	r3, [r2, r7, lsl #2]
    2c66:	421e      	tst	r6, r3
    2c68:	bf14      	ite	ne
    2c6a:	2301      	movne	r3, #1
    2c6c:	2300      	moveq	r3, #0
    2c6e:	89e2      	ldrh	r2, [r4, #14]
    2c70:	b172      	cbz	r2, 2c90 <event_callback+0xc4>
    2c72:	b97b      	cbnz	r3, 2c94 <event_callback+0xc8>
    2c74:	692b      	ldr	r3, [r5, #16]
    2c76:	b11b      	cbz	r3, 2c80 <event_callback+0xb4>
    2c78:	f853 3027 	ldr.w	r3, [r3, r7, lsl #2]
    2c7c:	421e      	tst	r6, r3
    2c7e:	d109      	bne.n	2c94 <event_callback+0xc8>
    2c80:	f8d9 2064 	ldr.w	r2, [r9, #100]	; 0x64
    2c84:	f8d9 3064 	ldr.w	r3, [r9, #100]	; 0x64
    2c88:	429a      	cmp	r2, r3
    2c8a:	d1c5      	bne.n	2c18 <event_callback+0x4c>
    2c8c:	682d      	ldr	r5, [r5, #0]
    2c8e:	e7c7      	b.n	2c20 <event_callback+0x54>
    2c90:	2b00      	cmp	r3, #0
    2c92:	d0f5      	beq.n	2c80 <event_callback+0xb4>
    2c94:	f8c5 a014 	str.w	sl, [r5, #20]
    2c98:	f105 0018 	add.w	r0, r5, #24
    2c9c:	47d8      	blx	fp
    2c9e:	e7ef      	b.n	2c80 <event_callback+0xb4>
    2ca0:	00002b5d 	.word	0x00002b5d
    2ca4:	20001574 	.word	0x20001574
    2ca8:	00001cd9 	.word	0x00001cd9

00002cac <lwip_setsockopt_internal>:
    2cac:	b430      	push	{r4, r5}
    2cae:	6882      	ldr	r2, [r0, #8]
    2cb0:	6804      	ldr	r4, [r0, #0]
    2cb2:	68c1      	ldr	r1, [r0, #12]
    2cb4:	6840      	ldr	r0, [r0, #4]
    2cb6:	6823      	ldr	r3, [r4, #0]
    2cb8:	2806      	cmp	r0, #6
    2cba:	d035      	beq.n	2d28 <lwip_setsockopt_internal+0x7c>
    2cbc:	f640 75ff 	movw	r5, #4095	; 0xfff
    2cc0:	42a8      	cmp	r0, r5
    2cc2:	d008      	beq.n	2cd6 <lwip_setsockopt_internal+0x2a>
    2cc4:	b9a8      	cbnz	r0, 2cf2 <lwip_setsockopt_internal+0x46>
    2cc6:	2a01      	cmp	r2, #1
    2cc8:	d02a      	beq.n	2d20 <lwip_setsockopt_internal+0x74>
    2cca:	2a02      	cmp	r2, #2
    2ccc:	d111      	bne.n	2cf2 <lwip_setsockopt_internal+0x46>
    2cce:	685b      	ldr	r3, [r3, #4]
    2cd0:	680a      	ldr	r2, [r1, #0]
    2cd2:	729a      	strb	r2, [r3, #10]
    2cd4:	e00d      	b.n	2cf2 <lwip_setsockopt_internal+0x46>
    2cd6:	2a20      	cmp	r2, #32
    2cd8:	d005      	beq.n	2ce6 <lwip_setsockopt_internal+0x3a>
    2cda:	f241 000a 	movw	r0, #4106	; 0x100a
    2cde:	4282      	cmp	r2, r0
    2ce0:	d011      	beq.n	2d06 <lwip_setsockopt_internal+0x5a>
    2ce2:	2a08      	cmp	r2, #8
    2ce4:	d105      	bne.n	2cf2 <lwip_setsockopt_internal+0x46>
    2ce6:	6809      	ldr	r1, [r1, #0]
    2ce8:	b141      	cbz	r1, 2cfc <lwip_setsockopt_internal+0x50>
    2cea:	6859      	ldr	r1, [r3, #4]
    2cec:	7a0b      	ldrb	r3, [r1, #8]
    2cee:	431a      	orrs	r2, r3
    2cf0:	720a      	strb	r2, [r1, #8]
    2cf2:	6820      	ldr	r0, [r4, #0]
    2cf4:	4b17      	ldr	r3, [pc, #92]	; (2d54 <lwip_setsockopt_internal+0xa8>)
    2cf6:	300c      	adds	r0, #12
    2cf8:	bc30      	pop	{r4, r5}
    2cfa:	4718      	bx	r3
    2cfc:	6859      	ldr	r1, [r3, #4]
    2cfe:	7a0b      	ldrb	r3, [r1, #8]
    2d00:	ea23 0202 	bic.w	r2, r3, r2
    2d04:	e7f4      	b.n	2cf0 <lwip_setsockopt_internal+0x44>
    2d06:	680a      	ldr	r2, [r1, #0]
    2d08:	b12a      	cbz	r2, 2d16 <lwip_setsockopt_internal+0x6a>
    2d0a:	685a      	ldr	r2, [r3, #4]
    2d0c:	7c13      	ldrb	r3, [r2, #16]
    2d0e:	f043 0301 	orr.w	r3, r3, #1
    2d12:	7413      	strb	r3, [r2, #16]
    2d14:	e7ed      	b.n	2cf2 <lwip_setsockopt_internal+0x46>
    2d16:	685a      	ldr	r2, [r3, #4]
    2d18:	7c13      	ldrb	r3, [r2, #16]
    2d1a:	f023 0301 	bic.w	r3, r3, #1
    2d1e:	e7f8      	b.n	2d12 <lwip_setsockopt_internal+0x66>
    2d20:	685b      	ldr	r3, [r3, #4]
    2d22:	680a      	ldr	r2, [r1, #0]
    2d24:	725a      	strb	r2, [r3, #9]
    2d26:	e7e4      	b.n	2cf2 <lwip_setsockopt_internal+0x46>
    2d28:	2a01      	cmp	r2, #1
    2d2a:	d006      	beq.n	2d3a <lwip_setsockopt_internal+0x8e>
    2d2c:	2a02      	cmp	r2, #2
    2d2e:	d1e0      	bne.n	2cf2 <lwip_setsockopt_internal+0x46>
    2d30:	685b      	ldr	r3, [r3, #4]
    2d32:	680a      	ldr	r2, [r1, #0]
    2d34:	f8c3 2090 	str.w	r2, [r3, #144]	; 0x90
    2d38:	e7db      	b.n	2cf2 <lwip_setsockopt_internal+0x46>
    2d3a:	680a      	ldr	r2, [r1, #0]
    2d3c:	b12a      	cbz	r2, 2d4a <lwip_setsockopt_internal+0x9e>
    2d3e:	685a      	ldr	r2, [r3, #4]
    2d40:	7f93      	ldrb	r3, [r2, #30]
    2d42:	f043 0340 	orr.w	r3, r3, #64	; 0x40
    2d46:	7793      	strb	r3, [r2, #30]
    2d48:	e7d3      	b.n	2cf2 <lwip_setsockopt_internal+0x46>
    2d4a:	685a      	ldr	r2, [r3, #4]
    2d4c:	7f93      	ldrb	r3, [r2, #30]
    2d4e:	f023 0340 	bic.w	r3, r3, #64	; 0x40
    2d52:	e7f8      	b.n	2d46 <lwip_setsockopt_internal+0x9a>
    2d54:	00001cd9 	.word	0x00001cd9

00002d58 <lwip_socket_init>:
    2d58:	4770      	bx	lr
	...

00002d5c <lwip_bind>:
    2d5c:	b573      	push	{r0, r1, r4, r5, r6, lr}
    2d5e:	4b14      	ldr	r3, [pc, #80]	; (2db0 <lwip_bind+0x54>)
    2d60:	4615      	mov	r5, r2
    2d62:	4798      	blx	r3
    2d64:	4604      	mov	r4, r0
    2d66:	b1e8      	cbz	r0, 2da4 <lwip_bind+0x48>
    2d68:	2d10      	cmp	r5, #16
    2d6a:	d104      	bne.n	2d76 <lwip_bind+0x1a>
    2d6c:	784b      	ldrb	r3, [r1, #1]
    2d6e:	2b02      	cmp	r3, #2
    2d70:	d101      	bne.n	2d76 <lwip_bind+0x1a>
    2d72:	078b      	lsls	r3, r1, #30
    2d74:	d000      	beq.n	2d78 <lwip_bind+0x1c>
    2d76:	e7fe      	b.n	2d76 <lwip_bind+0x1a>
    2d78:	ad02      	add	r5, sp, #8
    2d7a:	684b      	ldr	r3, [r1, #4]
    2d7c:	f845 3d04 	str.w	r3, [r5, #-4]!
    2d80:	6806      	ldr	r6, [r0, #0]
    2d82:	4b0c      	ldr	r3, [pc, #48]	; (2db4 <lwip_bind+0x58>)
    2d84:	8848      	ldrh	r0, [r1, #2]
    2d86:	4798      	blx	r3
    2d88:	4629      	mov	r1, r5
    2d8a:	4602      	mov	r2, r0
    2d8c:	4b0a      	ldr	r3, [pc, #40]	; (2db8 <lwip_bind+0x5c>)
    2d8e:	4630      	mov	r0, r6
    2d90:	4798      	blx	r3
    2d92:	b150      	cbz	r0, 2daa <lwip_bind+0x4e>
    2d94:	4240      	negs	r0, r0
    2d96:	280f      	cmp	r0, #15
    2d98:	bf96      	itet	ls
    2d9a:	4b08      	ldrls	r3, [pc, #32]	; (2dbc <lwip_bind+0x60>)
    2d9c:	2305      	movhi	r3, #5
    2d9e:	f853 3020 	ldrls.w	r3, [r3, r0, lsl #2]
    2da2:	6123      	str	r3, [r4, #16]
    2da4:	f04f 30ff 	mov.w	r0, #4294967295
    2da8:	e000      	b.n	2dac <lwip_bind+0x50>
    2daa:	6120      	str	r0, [r4, #16]
    2dac:	b002      	add	sp, #8
    2dae:	bd70      	pop	{r4, r5, r6, pc}
    2db0:	00002b5d 	.word	0x00002b5d
    2db4:	0000342b 	.word	0x0000342b
    2db8:	00002071 	.word	0x00002071
    2dbc:	0000b9cc 	.word	0x0000b9cc

00002dc0 <lwip_recvfrom>:
    2dc0:	e92d 4ff0 	stmdb	sp!, {r4, r5, r6, r7, r8, r9, sl, fp, lr}
    2dc4:	b08b      	sub	sp, #44	; 0x2c
    2dc6:	469a      	mov	sl, r3
    2dc8:	2500      	movs	r5, #0
    2dca:	4b66      	ldr	r3, [pc, #408]	; (2f64 <lwip_recvfrom+0x1a4>)
    2dcc:	9101      	str	r1, [sp, #4]
    2dce:	4690      	mov	r8, r2
    2dd0:	9504      	str	r5, [sp, #16]
    2dd2:	4798      	blx	r3
    2dd4:	4604      	mov	r4, r0
    2dd6:	2800      	cmp	r0, #0
    2dd8:	d05a      	beq.n	2e90 <lwip_recvfrom+0xd0>
    2dda:	6863      	ldr	r3, [r4, #4]
    2ddc:	2b00      	cmp	r3, #0
    2dde:	d044      	beq.n	2e6a <lwip_recvfrom+0xaa>
    2de0:	9304      	str	r3, [sp, #16]
    2de2:	6823      	ldr	r3, [r4, #0]
    2de4:	9901      	ldr	r1, [sp, #4]
    2de6:	781b      	ldrb	r3, [r3, #0]
    2de8:	2b10      	cmp	r3, #16
    2dea:	9b04      	ldr	r3, [sp, #16]
    2dec:	bf14      	ite	ne
    2dee:	f8d3 9000 	ldrne.w	r9, [r3]
    2df2:	4699      	moveq	r9, r3
    2df4:	8923      	ldrh	r3, [r4, #8]
    2df6:	f8b9 6008 	ldrh.w	r6, [r9, #8]
    2dfa:	1af6      	subs	r6, r6, r3
    2dfc:	b2b2      	uxth	r2, r6
    2dfe:	4590      	cmp	r8, r2
    2e00:	9200      	str	r2, [sp, #0]
    2e02:	bf88      	it	hi
    2e04:	9f00      	ldrhi	r7, [sp, #0]
    2e06:	4e58      	ldr	r6, [pc, #352]	; (2f68 <lwip_recvfrom+0x1a8>)
    2e08:	bf98      	it	ls
    2e0a:	fa1f f788 	uxthls.w	r7, r8
    2e0e:	4429      	add	r1, r5
    2e10:	463a      	mov	r2, r7
    2e12:	4648      	mov	r0, r9
    2e14:	47b0      	blx	r6
    2e16:	6820      	ldr	r0, [r4, #0]
    2e18:	7803      	ldrb	r3, [r0, #0]
    2e1a:	2b10      	cmp	r3, #16
    2e1c:	443d      	add	r5, r7
    2e1e:	d16b      	bne.n	2ef8 <lwip_recvfrom+0x138>
    2e20:	ebb8 0807 	subs.w	r8, r8, r7
    2e24:	d068      	beq.n	2ef8 <lwip_recvfrom+0x138>
    2e26:	f899 200d 	ldrb.w	r2, [r9, #13]
    2e2a:	07d2      	lsls	r2, r2, #31
    2e2c:	d464      	bmi.n	2ef8 <lwip_recvfrom+0x138>
    2e2e:	f9b4 200a 	ldrsh.w	r2, [r4, #10]
    2e32:	2a00      	cmp	r2, #0
    2e34:	dd60      	ble.n	2ef8 <lwip_recvfrom+0x138>
    2e36:	f01a 0901 	ands.w	r9, sl, #1
    2e3a:	d15d      	bne.n	2ef8 <lwip_recvfrom+0x138>
    2e3c:	f01a 0f01 	tst.w	sl, #1
    2e40:	d10c      	bne.n	2e5c <lwip_recvfrom+0x9c>
    2e42:	6823      	ldr	r3, [r4, #0]
    2e44:	781b      	ldrb	r3, [r3, #0]
    2e46:	2b10      	cmp	r3, #16
    2e48:	d14a      	bne.n	2ee0 <lwip_recvfrom+0x120>
    2e4a:	9a00      	ldr	r2, [sp, #0]
    2e4c:	1bd6      	subs	r6, r2, r7
    2e4e:	2e00      	cmp	r6, #0
    2e50:	dd46      	ble.n	2ee0 <lwip_recvfrom+0x120>
    2e52:	9b04      	ldr	r3, [sp, #16]
    2e54:	6063      	str	r3, [r4, #4]
    2e56:	8923      	ldrh	r3, [r4, #8]
    2e58:	441f      	add	r7, r3
    2e5a:	8127      	strh	r7, [r4, #8]
    2e5c:	f1b9 0f00 	cmp.w	r9, #0
    2e60:	d0bb      	beq.n	2dda <lwip_recvfrom+0x1a>
    2e62:	b975      	cbnz	r5, 2e82 <lwip_recvfrom+0xc2>
    2e64:	2300      	movs	r3, #0
    2e66:	6123      	str	r3, [r4, #16]
    2e68:	e02c      	b.n	2ec4 <lwip_recvfrom+0x104>
    2e6a:	f01a 0f08 	tst.w	sl, #8
    2e6e:	d103      	bne.n	2e78 <lwip_recvfrom+0xb8>
    2e70:	6823      	ldr	r3, [r4, #0]
    2e72:	7f1b      	ldrb	r3, [r3, #28]
    2e74:	0799      	lsls	r1, r3, #30
    2e76:	d50e      	bpl.n	2e96 <lwip_recvfrom+0xd6>
    2e78:	f9b4 300a 	ldrsh.w	r3, [r4, #10]
    2e7c:	2b00      	cmp	r3, #0
    2e7e:	dc0a      	bgt.n	2e96 <lwip_recvfrom+0xd6>
    2e80:	b125      	cbz	r5, 2e8c <lwip_recvfrom+0xcc>
    2e82:	4629      	mov	r1, r5
    2e84:	6820      	ldr	r0, [r4, #0]
    2e86:	4b39      	ldr	r3, [pc, #228]	; (2f6c <lwip_recvfrom+0x1ac>)
    2e88:	4798      	blx	r3
    2e8a:	e7eb      	b.n	2e64 <lwip_recvfrom+0xa4>
    2e8c:	230b      	movs	r3, #11
    2e8e:	6123      	str	r3, [r4, #16]
    2e90:	f04f 35ff 	mov.w	r5, #4294967295
    2e94:	e016      	b.n	2ec4 <lwip_recvfrom+0x104>
    2e96:	6820      	ldr	r0, [r4, #0]
    2e98:	7803      	ldrb	r3, [r0, #0]
    2e9a:	2b10      	cmp	r3, #16
    2e9c:	bf0c      	ite	eq
    2e9e:	4b34      	ldreq	r3, [pc, #208]	; (2f70 <lwip_recvfrom+0x1b0>)
    2ea0:	4b34      	ldrne	r3, [pc, #208]	; (2f74 <lwip_recvfrom+0x1b4>)
    2ea2:	a904      	add	r1, sp, #16
    2ea4:	4798      	blx	r3
    2ea6:	b188      	cbz	r0, 2ecc <lwip_recvfrom+0x10c>
    2ea8:	2d00      	cmp	r5, #0
    2eaa:	d1ea      	bne.n	2e82 <lwip_recvfrom+0xc2>
    2eac:	4243      	negs	r3, r0
    2eae:	2b0f      	cmp	r3, #15
    2eb0:	bf96      	itet	ls
    2eb2:	4a31      	ldrls	r2, [pc, #196]	; (2f78 <lwip_recvfrom+0x1b8>)
    2eb4:	2305      	movhi	r3, #5
    2eb6:	f852 3023 	ldrls.w	r3, [r2, r3, lsl #2]
    2eba:	6123      	str	r3, [r4, #16]
    2ebc:	300c      	adds	r0, #12
    2ebe:	bf18      	it	ne
    2ec0:	2001      	movne	r0, #1
    2ec2:	4245      	negs	r5, r0
    2ec4:	4628      	mov	r0, r5
    2ec6:	b00b      	add	sp, #44	; 0x2c
    2ec8:	e8bd 8ff0 	ldmia.w	sp!, {r4, r5, r6, r7, r8, r9, sl, fp, pc}
    2ecc:	9b04      	ldr	r3, [sp, #16]
    2ece:	6063      	str	r3, [r4, #4]
    2ed0:	e787      	b.n	2de2 <lwip_recvfrom+0x22>
    2ed2:	9b04      	ldr	r3, [sp, #16]
    2ed4:	f103 0908 	add.w	r9, r3, #8
    2ed8:	899b      	ldrh	r3, [r3, #12]
    2eda:	f8ad 300e 	strh.w	r3, [sp, #14]
    2ede:	e01b      	b.n	2f18 <lwip_recvfrom+0x158>
    2ee0:	2200      	movs	r2, #0
    2ee2:	2b10      	cmp	r3, #16
    2ee4:	6062      	str	r2, [r4, #4]
    2ee6:	8122      	strh	r2, [r4, #8]
    2ee8:	9804      	ldr	r0, [sp, #16]
    2eea:	d102      	bne.n	2ef2 <lwip_recvfrom+0x132>
    2eec:	4b23      	ldr	r3, [pc, #140]	; (2f7c <lwip_recvfrom+0x1bc>)
    2eee:	4798      	blx	r3
    2ef0:	e7b4      	b.n	2e5c <lwip_recvfrom+0x9c>
    2ef2:	4b23      	ldr	r3, [pc, #140]	; (2f80 <lwip_recvfrom+0x1c0>)
    2ef4:	4798      	blx	r3
    2ef6:	e7b1      	b.n	2e5c <lwip_recvfrom+0x9c>
    2ef8:	9a14      	ldr	r2, [sp, #80]	; 0x50
    2efa:	2a00      	cmp	r2, #0
    2efc:	d02e      	beq.n	2f5c <lwip_recvfrom+0x19c>
    2efe:	9a15      	ldr	r2, [sp, #84]	; 0x54
    2f00:	b362      	cbz	r2, 2f5c <lwip_recvfrom+0x19c>
    2f02:	2b10      	cmp	r3, #16
    2f04:	d1e5      	bne.n	2ed2 <lwip_recvfrom+0x112>
    2f06:	f8df 9088 	ldr.w	r9, [pc, #136]	; 2f90 <lwip_recvfrom+0x1d0>
    2f0a:	2300      	movs	r3, #0
    2f0c:	f10d 020e 	add.w	r2, sp, #14
    2f10:	a905      	add	r1, sp, #20
    2f12:	47c8      	blx	r9
    2f14:	f10d 0914 	add.w	r9, sp, #20
    2f18:	f04f 0b10 	mov.w	fp, #16
    2f1c:	465a      	mov	r2, fp
    2f1e:	2100      	movs	r1, #0
    2f20:	4b18      	ldr	r3, [pc, #96]	; (2f84 <lwip_recvfrom+0x1c4>)
    2f22:	a806      	add	r0, sp, #24
    2f24:	4798      	blx	r3
    2f26:	2302      	movs	r3, #2
    2f28:	f88d 3019 	strb.w	r3, [sp, #25]
    2f2c:	f8bd 000e 	ldrh.w	r0, [sp, #14]
    2f30:	4b15      	ldr	r3, [pc, #84]	; (2f88 <lwip_recvfrom+0x1c8>)
    2f32:	f88d b018 	strb.w	fp, [sp, #24]
    2f36:	4798      	blx	r3
    2f38:	f8d9 3000 	ldr.w	r3, [r9]
    2f3c:	9307      	str	r3, [sp, #28]
    2f3e:	9b15      	ldr	r3, [sp, #84]	; 0x54
    2f40:	f8ad 001a 	strh.w	r0, [sp, #26]
    2f44:	681b      	ldr	r3, [r3, #0]
    2f46:	9814      	ldr	r0, [sp, #80]	; 0x50
    2f48:	455b      	cmp	r3, fp
    2f4a:	bf84      	itt	hi
    2f4c:	9b15      	ldrhi	r3, [sp, #84]	; 0x54
    2f4e:	f8c3 b000 	strhi.w	fp, [r3]
    2f52:	9b15      	ldr	r3, [sp, #84]	; 0x54
    2f54:	a906      	add	r1, sp, #24
    2f56:	681a      	ldr	r2, [r3, #0]
    2f58:	4b0c      	ldr	r3, [pc, #48]	; (2f8c <lwip_recvfrom+0x1cc>)
    2f5a:	4798      	blx	r3
    2f5c:	f04f 0901 	mov.w	r9, #1
    2f60:	e76c      	b.n	2e3c <lwip_recvfrom+0x7c>
    2f62:	bf00      	nop
    2f64:	00002b5d 	.word	0x00002b5d
    2f68:	00004a31 	.word	0x00004a31
    2f6c:	0000213d 	.word	0x0000213d
    2f70:	000020a5 	.word	0x000020a5
    2f74:	000020b9 	.word	0x000020b9
    2f78:	0000b9cc 	.word	0x0000b9cc
    2f7c:	00004785 	.word	0x00004785
    2f80:	00002ad5 	.word	0x00002ad5
    2f84:	0000a8a5 	.word	0x0000a8a5
    2f88:	00003425 	.word	0x00003425
    2f8c:	0000a88f 	.word	0x0000a88f
    2f90:	00002035 	.word	0x00002035

00002f94 <lwip_recv>:
    2f94:	b513      	push	{r0, r1, r4, lr}
    2f96:	2400      	movs	r4, #0
    2f98:	9401      	str	r4, [sp, #4]
    2f9a:	9400      	str	r4, [sp, #0]
    2f9c:	4c01      	ldr	r4, [pc, #4]	; (2fa4 <lwip_recv+0x10>)
    2f9e:	47a0      	blx	r4
    2fa0:	b002      	add	sp, #8
    2fa2:	bd10      	pop	{r4, pc}
    2fa4:	00002dc1 	.word	0x00002dc1

00002fa8 <lwip_sendto>:
    2fa8:	e92d 43f0 	stmdb	sp!, {r4, r5, r6, r7, r8, r9, lr}
    2fac:	b085      	sub	sp, #20
    2fae:	4699      	mov	r9, r3
    2fb0:	4b26      	ldr	r3, [pc, #152]	; (304c <lwip_sendto+0xa4>)
    2fb2:	9c0c      	ldr	r4, [sp, #48]	; 0x30
    2fb4:	4680      	mov	r8, r0
    2fb6:	460f      	mov	r7, r1
    2fb8:	4615      	mov	r5, r2
    2fba:	990d      	ldr	r1, [sp, #52]	; 0x34
    2fbc:	4798      	blx	r3
    2fbe:	4606      	mov	r6, r0
    2fc0:	b920      	cbnz	r0, 2fcc <lwip_sendto+0x24>
    2fc2:	f04f 30ff 	mov.w	r0, #4294967295
    2fc6:	b005      	add	sp, #20
    2fc8:	e8bd 83f0 	ldmia.w	sp!, {r4, r5, r6, r7, r8, r9, pc}
    2fcc:	6803      	ldr	r3, [r0, #0]
    2fce:	781b      	ldrb	r3, [r3, #0]
    2fd0:	2b10      	cmp	r3, #16
    2fd2:	d106      	bne.n	2fe2 <lwip_sendto+0x3a>
    2fd4:	464b      	mov	r3, r9
    2fd6:	462a      	mov	r2, r5
    2fd8:	4639      	mov	r1, r7
    2fda:	4640      	mov	r0, r8
    2fdc:	4c1c      	ldr	r4, [pc, #112]	; (3050 <lwip_sendto+0xa8>)
    2fde:	47a0      	blx	r4
    2fe0:	e7f1      	b.n	2fc6 <lwip_sendto+0x1e>
    2fe2:	b904      	cbnz	r4, 2fe6 <lwip_sendto+0x3e>
    2fe4:	b139      	cbz	r1, 2ff6 <lwip_sendto+0x4e>
    2fe6:	2910      	cmp	r1, #16
    2fe8:	d104      	bne.n	2ff4 <lwip_sendto+0x4c>
    2fea:	7863      	ldrb	r3, [r4, #1]
    2fec:	2b02      	cmp	r3, #2
    2fee:	d101      	bne.n	2ff4 <lwip_sendto+0x4c>
    2ff0:	07a3      	lsls	r3, r4, #30
    2ff2:	d000      	beq.n	2ff6 <lwip_sendto+0x4e>
    2ff4:	e7fe      	b.n	2ff4 <lwip_sendto+0x4c>
    2ff6:	2300      	movs	r3, #0
    2ff8:	9301      	str	r3, [sp, #4]
    2ffa:	9300      	str	r3, [sp, #0]
    2ffc:	b30c      	cbz	r4, 3042 <lwip_sendto+0x9a>
    2ffe:	6863      	ldr	r3, [r4, #4]
    3000:	9302      	str	r3, [sp, #8]
    3002:	8860      	ldrh	r0, [r4, #2]
    3004:	4b13      	ldr	r3, [pc, #76]	; (3054 <lwip_sendto+0xac>)
    3006:	4798      	blx	r3
    3008:	f8ad 000c 	strh.w	r0, [sp, #12]
    300c:	b2aa      	uxth	r2, r5
    300e:	4639      	mov	r1, r7
    3010:	4668      	mov	r0, sp
    3012:	4b11      	ldr	r3, [pc, #68]	; (3058 <lwip_sendto+0xb0>)
    3014:	4798      	blx	r3
    3016:	4604      	mov	r4, r0
    3018:	b920      	cbnz	r0, 3024 <lwip_sendto+0x7c>
    301a:	4669      	mov	r1, sp
    301c:	6830      	ldr	r0, [r6, #0]
    301e:	4b0f      	ldr	r3, [pc, #60]	; (305c <lwip_sendto+0xb4>)
    3020:	4798      	blx	r3
    3022:	4604      	mov	r4, r0
    3024:	4b0e      	ldr	r3, [pc, #56]	; (3060 <lwip_sendto+0xb8>)
    3026:	4668      	mov	r0, sp
    3028:	4798      	blx	r3
    302a:	4263      	negs	r3, r4
    302c:	2b0f      	cmp	r3, #15
    302e:	bf96      	itet	ls
    3030:	4a0c      	ldrls	r2, [pc, #48]	; (3064 <lwip_sendto+0xbc>)
    3032:	2305      	movhi	r3, #5
    3034:	f852 3023 	ldrls.w	r3, [r2, r3, lsl #2]
    3038:	6133      	str	r3, [r6, #16]
    303a:	2c00      	cmp	r4, #0
    303c:	d1c1      	bne.n	2fc2 <lwip_sendto+0x1a>
    303e:	b2a8      	uxth	r0, r5
    3040:	e7c1      	b.n	2fc6 <lwip_sendto+0x1e>
    3042:	9402      	str	r4, [sp, #8]
    3044:	f8ad 400c 	strh.w	r4, [sp, #12]
    3048:	e7e0      	b.n	300c <lwip_sendto+0x64>
    304a:	bf00      	nop
    304c:	00002b5d 	.word	0x00002b5d
    3050:	00003069 	.word	0x00003069
    3054:	0000342b 	.word	0x0000342b
    3058:	00002b1d 	.word	0x00002b1d
    305c:	00002169 	.word	0x00002169
    3060:	00002b01 	.word	0x00002b01
    3064:	0000b9cc 	.word	0x0000b9cc

00003068 <lwip_send>:
    3068:	b5f0      	push	{r4, r5, r6, r7, lr}
    306a:	461d      	mov	r5, r3
    306c:	b085      	sub	sp, #20
    306e:	4b1b      	ldr	r3, [pc, #108]	; (30dc <lwip_send+0x74>)
    3070:	4607      	mov	r7, r0
    3072:	4616      	mov	r6, r2
    3074:	4798      	blx	r3
    3076:	4604      	mov	r4, r0
    3078:	b918      	cbnz	r0, 3082 <lwip_send+0x1a>
    307a:	f04f 30ff 	mov.w	r0, #4294967295
    307e:	b005      	add	sp, #20
    3080:	bdf0      	pop	{r4, r5, r6, r7, pc}
    3082:	6800      	ldr	r0, [r0, #0]
    3084:	7803      	ldrb	r3, [r0, #0]
    3086:	2b10      	cmp	r3, #16
    3088:	d008      	beq.n	309c <lwip_send+0x34>
    308a:	2300      	movs	r3, #0
    308c:	9301      	str	r3, [sp, #4]
    308e:	9300      	str	r3, [sp, #0]
    3090:	4632      	mov	r2, r6
    3092:	462b      	mov	r3, r5
    3094:	4638      	mov	r0, r7
    3096:	4c12      	ldr	r4, [pc, #72]	; (30e0 <lwip_send+0x78>)
    3098:	47a0      	blx	r4
    309a:	e7f0      	b.n	307e <lwip_send+0x16>
    309c:	f015 0f10 	tst.w	r5, #16
    30a0:	bf14      	ite	ne
    30a2:	2203      	movne	r2, #3
    30a4:	2201      	moveq	r2, #1
    30a6:	f015 0f08 	tst.w	r5, #8
    30aa:	ad04      	add	r5, sp, #16
    30ac:	f04f 0700 	mov.w	r7, #0
    30b0:	f845 7d04 	str.w	r7, [r5, #-4]!
    30b4:	bf14      	ite	ne
    30b6:	2304      	movne	r3, #4
    30b8:	2300      	moveq	r3, #0
    30ba:	4313      	orrs	r3, r2
    30bc:	9500      	str	r5, [sp, #0]
    30be:	4632      	mov	r2, r6
    30c0:	4d08      	ldr	r5, [pc, #32]	; (30e4 <lwip_send+0x7c>)
    30c2:	47a8      	blx	r5
    30c4:	4243      	negs	r3, r0
    30c6:	2b0f      	cmp	r3, #15
    30c8:	bf96      	itet	ls
    30ca:	4a07      	ldrls	r2, [pc, #28]	; (30e8 <lwip_send+0x80>)
    30cc:	2305      	movhi	r3, #5
    30ce:	f852 3023 	ldrls.w	r3, [r2, r3, lsl #2]
    30d2:	6123      	str	r3, [r4, #16]
    30d4:	2800      	cmp	r0, #0
    30d6:	d1d0      	bne.n	307a <lwip_send+0x12>
    30d8:	9803      	ldr	r0, [sp, #12]
    30da:	e7d0      	b.n	307e <lwip_send+0x16>
    30dc:	00002b5d 	.word	0x00002b5d
    30e0:	00002fa9 	.word	0x00002fa9
    30e4:	00002199 	.word	0x00002199
    30e8:	0000b9cc 	.word	0x0000b9cc

000030ec <lwip_socket>:
    30ec:	2902      	cmp	r1, #2
    30ee:	b538      	push	{r3, r4, r5, lr}
    30f0:	4613      	mov	r3, r2
    30f2:	d021      	beq.n	3138 <lwip_socket+0x4c>
    30f4:	2903      	cmp	r1, #3
    30f6:	d00b      	beq.n	3110 <lwip_socket+0x24>
    30f8:	2901      	cmp	r1, #1
    30fa:	d106      	bne.n	310a <lwip_socket+0x1e>
    30fc:	4a16      	ldr	r2, [pc, #88]	; (3158 <lwip_socket+0x6c>)
    30fe:	4b17      	ldr	r3, [pc, #92]	; (315c <lwip_socket+0x70>)
    3100:	2100      	movs	r1, #0
    3102:	2010      	movs	r0, #16
    3104:	4798      	blx	r3
    3106:	4604      	mov	r4, r0
    3108:	b9f0      	cbnz	r0, 3148 <lwip_socket+0x5c>
    310a:	f04f 35ff 	mov.w	r5, #4294967295
    310e:	e011      	b.n	3134 <lwip_socket+0x48>
    3110:	4a11      	ldr	r2, [pc, #68]	; (3158 <lwip_socket+0x6c>)
    3112:	b2d9      	uxtb	r1, r3
    3114:	2040      	movs	r0, #64	; 0x40
    3116:	4b11      	ldr	r3, [pc, #68]	; (315c <lwip_socket+0x70>)
    3118:	4798      	blx	r3
    311a:	4604      	mov	r4, r0
    311c:	2800      	cmp	r0, #0
    311e:	d0f4      	beq.n	310a <lwip_socket+0x1e>
    3120:	4b0f      	ldr	r3, [pc, #60]	; (3160 <lwip_socket+0x74>)
    3122:	2100      	movs	r1, #0
    3124:	4620      	mov	r0, r4
    3126:	4798      	blx	r3
    3128:	1c43      	adds	r3, r0, #1
    312a:	4605      	mov	r5, r0
    312c:	d111      	bne.n	3152 <lwip_socket+0x66>
    312e:	4620      	mov	r0, r4
    3130:	4b0c      	ldr	r3, [pc, #48]	; (3164 <lwip_socket+0x78>)
    3132:	4798      	blx	r3
    3134:	4628      	mov	r0, r5
    3136:	bd38      	pop	{r3, r4, r5, pc}
    3138:	2a88      	cmp	r2, #136	; 0x88
    313a:	f04f 0100 	mov.w	r1, #0
    313e:	4a06      	ldr	r2, [pc, #24]	; (3158 <lwip_socket+0x6c>)
    3140:	bf0c      	ite	eq
    3142:	2021      	moveq	r0, #33	; 0x21
    3144:	2020      	movne	r0, #32
    3146:	e7e6      	b.n	3116 <lwip_socket+0x2a>
    3148:	7f03      	ldrb	r3, [r0, #28]
    314a:	f043 0308 	orr.w	r3, r3, #8
    314e:	7703      	strb	r3, [r0, #28]
    3150:	e7e6      	b.n	3120 <lwip_socket+0x34>
    3152:	61a0      	str	r0, [r4, #24]
    3154:	e7ee      	b.n	3134 <lwip_socket+0x48>
    3156:	bf00      	nop
    3158:	00002bcd 	.word	0x00002bcd
    315c:	00001fad 	.word	0x00001fad
    3160:	00002b7d 	.word	0x00002b7d
    3164:	00002009 	.word	0x00002009

00003168 <lwip_setsockopt>:
    3168:	b570      	push	{r4, r5, r6, lr}
    316a:	461e      	mov	r6, r3
    316c:	b086      	sub	sp, #24
    316e:	4b30      	ldr	r3, [pc, #192]	; (3230 <lwip_setsockopt+0xc8>)
    3170:	4615      	mov	r5, r2
    3172:	4798      	blx	r3
    3174:	4604      	mov	r4, r0
    3176:	b110      	cbz	r0, 317e <lwip_setsockopt+0x16>
    3178:	b92e      	cbnz	r6, 3186 <lwip_setsockopt+0x1e>
    317a:	230e      	movs	r3, #14
    317c:	6103      	str	r3, [r0, #16]
    317e:	f04f 30ff 	mov.w	r0, #4294967295
    3182:	b006      	add	sp, #24
    3184:	bd70      	pop	{r4, r5, r6, pc}
    3186:	2906      	cmp	r1, #6
    3188:	d040      	beq.n	320c <lwip_setsockopt+0xa4>
    318a:	f640 73ff 	movw	r3, #4095	; 0xfff
    318e:	4299      	cmp	r1, r3
    3190:	d005      	beq.n	319e <lwip_setsockopt+0x36>
    3192:	b911      	cbnz	r1, 319a <lwip_setsockopt+0x32>
    3194:	1e6b      	subs	r3, r5, #1
    3196:	2b01      	cmp	r3, #1
    3198:	d909      	bls.n	31ae <lwip_setsockopt+0x46>
    319a:	205c      	movs	r0, #92	; 0x5c
    319c:	e034      	b.n	3208 <lwip_setsockopt+0xa0>
    319e:	2d20      	cmp	r5, #32
    31a0:	d005      	beq.n	31ae <lwip_setsockopt+0x46>
    31a2:	f241 030a 	movw	r3, #4106	; 0x100a
    31a6:	429d      	cmp	r5, r3
    31a8:	d01f      	beq.n	31ea <lwip_setsockopt+0x82>
    31aa:	2d08      	cmp	r5, #8
    31ac:	d1f5      	bne.n	319a <lwip_setsockopt+0x32>
    31ae:	9b0a      	ldr	r3, [sp, #40]	; 0x28
    31b0:	2b03      	cmp	r3, #3
    31b2:	d938      	bls.n	3226 <lwip_setsockopt+0xbe>
    31b4:	ab0a      	add	r3, sp, #40	; 0x28
    31b6:	9101      	str	r1, [sp, #4]
    31b8:	9502      	str	r5, [sp, #8]
    31ba:	9304      	str	r3, [sp, #16]
    31bc:	2500      	movs	r5, #0
    31be:	2201      	movs	r2, #1
    31c0:	4669      	mov	r1, sp
    31c2:	4b1c      	ldr	r3, [pc, #112]	; (3234 <lwip_setsockopt+0xcc>)
    31c4:	481c      	ldr	r0, [pc, #112]	; (3238 <lwip_setsockopt+0xd0>)
    31c6:	9400      	str	r4, [sp, #0]
    31c8:	9603      	str	r6, [sp, #12]
    31ca:	f88d 5014 	strb.w	r5, [sp, #20]
    31ce:	4798      	blx	r3
    31d0:	6820      	ldr	r0, [r4, #0]
    31d2:	4b1a      	ldr	r3, [pc, #104]	; (323c <lwip_setsockopt+0xd4>)
    31d4:	4629      	mov	r1, r5
    31d6:	300c      	adds	r0, #12
    31d8:	4798      	blx	r3
    31da:	f99d 0014 	ldrsb.w	r0, [sp, #20]
    31de:	6120      	str	r0, [r4, #16]
    31e0:	1b40      	subs	r0, r0, r5
    31e2:	bf18      	it	ne
    31e4:	2001      	movne	r0, #1
    31e6:	4240      	negs	r0, r0
    31e8:	e7cb      	b.n	3182 <lwip_setsockopt+0x1a>
    31ea:	9b0a      	ldr	r3, [sp, #40]	; 0x28
    31ec:	2b03      	cmp	r3, #3
    31ee:	6823      	ldr	r3, [r4, #0]
    31f0:	781a      	ldrb	r2, [r3, #0]
    31f2:	bf8c      	ite	hi
    31f4:	2000      	movhi	r0, #0
    31f6:	2016      	movls	r0, #22
    31f8:	2a20      	cmp	r2, #32
    31fa:	d112      	bne.n	3222 <lwip_setsockopt+0xba>
    31fc:	685b      	ldr	r3, [r3, #4]
    31fe:	7c1b      	ldrb	r3, [r3, #16]
    3200:	079b      	lsls	r3, r3, #30
    3202:	d40e      	bmi.n	3222 <lwip_setsockopt+0xba>
    3204:	2800      	cmp	r0, #0
    3206:	d0d5      	beq.n	31b4 <lwip_setsockopt+0x4c>
    3208:	6120      	str	r0, [r4, #16]
    320a:	e7b8      	b.n	317e <lwip_setsockopt+0x16>
    320c:	9b0a      	ldr	r3, [sp, #40]	; 0x28
    320e:	2b03      	cmp	r3, #3
    3210:	d909      	bls.n	3226 <lwip_setsockopt+0xbe>
    3212:	6803      	ldr	r3, [r0, #0]
    3214:	781b      	ldrb	r3, [r3, #0]
    3216:	2b10      	cmp	r3, #16
    3218:	d107      	bne.n	322a <lwip_setsockopt+0xc2>
    321a:	1e6b      	subs	r3, r5, #1
    321c:	2b01      	cmp	r3, #1
    321e:	d8bc      	bhi.n	319a <lwip_setsockopt+0x32>
    3220:	e7c8      	b.n	31b4 <lwip_setsockopt+0x4c>
    3222:	2061      	movs	r0, #97	; 0x61
    3224:	e7f0      	b.n	3208 <lwip_setsockopt+0xa0>
    3226:	2016      	movs	r0, #22
    3228:	e7ee      	b.n	3208 <lwip_setsockopt+0xa0>
    322a:	2000      	movs	r0, #0
    322c:	e7a9      	b.n	3182 <lwip_setsockopt+0x1a>
    322e:	bf00      	nop
    3230:	00002b5d 	.word	0x00002b5d
    3234:	00003331 	.word	0x00003331
    3238:	00002cad 	.word	0x00002cad
    323c:	00001cf9 	.word	0x00001cf9

00003240 <tcpip_thread>:
    3240:	b507      	push	{r0, r1, r2, lr}
    3242:	4a1e      	ldr	r2, [pc, #120]	; (32bc <tcpip_thread+0x7c>)
    3244:	6813      	ldr	r3, [r2, #0]
    3246:	b10b      	cbz	r3, 324c <tcpip_thread+0xc>
    3248:	6850      	ldr	r0, [r2, #4]
    324a:	4798      	blx	r3
    324c:	4e1c      	ldr	r6, [pc, #112]	; (32c0 <tcpip_thread+0x80>)
    324e:	4d1d      	ldr	r5, [pc, #116]	; (32c4 <tcpip_thread+0x84>)
    3250:	4c1d      	ldr	r4, [pc, #116]	; (32c8 <tcpip_thread+0x88>)
    3252:	a901      	add	r1, sp, #4
    3254:	4630      	mov	r0, r6
    3256:	47a8      	blx	r5
    3258:	9b01      	ldr	r3, [sp, #4]
    325a:	781a      	ldrb	r2, [r3, #0]
    325c:	2a05      	cmp	r2, #5
    325e:	d8f8      	bhi.n	3252 <tcpip_thread+0x12>
    3260:	e8df f002 	tbb	[pc, r2]
    3264:	1e160803 	.word	0x1e160803
    3268:	2723      	.short	0x2723
    326a:	6898      	ldr	r0, [r3, #8]
    326c:	6803      	ldr	r3, [r0, #0]
    326e:	3004      	adds	r0, #4
    3270:	4798      	blx	r3
    3272:	e7ee      	b.n	3252 <tcpip_thread+0x12>
    3274:	68d9      	ldr	r1, [r3, #12]
    3276:	6898      	ldr	r0, [r3, #8]
    3278:	f891 202d 	ldrb.w	r2, [r1, #45]	; 0x2d
    327c:	f012 0f60 	tst.w	r2, #96	; 0x60
    3280:	bf14      	ite	ne
    3282:	4b12      	ldrne	r3, [pc, #72]	; (32cc <tcpip_thread+0x8c>)
    3284:	4b12      	ldreq	r3, [pc, #72]	; (32d0 <tcpip_thread+0x90>)
    3286:	4798      	blx	r3
    3288:	9901      	ldr	r1, [sp, #4]
    328a:	2009      	movs	r0, #9
    328c:	47a0      	blx	r4
    328e:	e7e0      	b.n	3252 <tcpip_thread+0x12>
    3290:	f103 0008 	add.w	r0, r3, #8
    3294:	c807      	ldmia	r0, {r0, r1, r2}
    3296:	4b0f      	ldr	r3, [pc, #60]	; (32d4 <tcpip_thread+0x94>)
    3298:	4798      	blx	r3
    329a:	9901      	ldr	r1, [sp, #4]
    329c:	2008      	movs	r0, #8
    329e:	e7f5      	b.n	328c <tcpip_thread+0x4c>
    32a0:	6919      	ldr	r1, [r3, #16]
    32a2:	68d8      	ldr	r0, [r3, #12]
    32a4:	4b0c      	ldr	r3, [pc, #48]	; (32d8 <tcpip_thread+0x98>)
    32a6:	4798      	blx	r3
    32a8:	e7f7      	b.n	329a <tcpip_thread+0x5a>
    32aa:	689a      	ldr	r2, [r3, #8]
    32ac:	68d8      	ldr	r0, [r3, #12]
    32ae:	4790      	blx	r2
    32b0:	e7f3      	b.n	329a <tcpip_thread+0x5a>
    32b2:	689a      	ldr	r2, [r3, #8]
    32b4:	68d8      	ldr	r0, [r3, #12]
    32b6:	4790      	blx	r2
    32b8:	e7cb      	b.n	3252 <tcpip_thread+0x12>
    32ba:	bf00      	nop
    32bc:	200015dc 	.word	0x200015dc
    32c0:	200015e4 	.word	0x200015e4
    32c4:	00007329 	.word	0x00007329
    32c8:	00004559 	.word	0x00004559
    32cc:	00007bcd 	.word	0x00007bcd
    32d0:	000037fd 	.word	0x000037fd
    32d4:	00007191 	.word	0x00007191
    32d8:	000072dd 	.word	0x000072dd

000032dc <tcpip_input>:
    32dc:	b570      	push	{r4, r5, r6, lr}
    32de:	4b0f      	ldr	r3, [pc, #60]	; (331c <tcpip_input+0x40>)
    32e0:	4606      	mov	r6, r0
    32e2:	480f      	ldr	r0, [pc, #60]	; (3320 <tcpip_input+0x44>)
    32e4:	460d      	mov	r5, r1
    32e6:	4798      	blx	r3
    32e8:	b1a0      	cbz	r0, 3314 <tcpip_input+0x38>
    32ea:	2009      	movs	r0, #9
    32ec:	4b0d      	ldr	r3, [pc, #52]	; (3324 <tcpip_input+0x48>)
    32ee:	4798      	blx	r3
    32f0:	4604      	mov	r4, r0
    32f2:	b160      	cbz	r0, 330e <tcpip_input+0x32>
    32f4:	2301      	movs	r3, #1
    32f6:	7003      	strb	r3, [r0, #0]
    32f8:	6086      	str	r6, [r0, #8]
    32fa:	60c5      	str	r5, [r0, #12]
    32fc:	4601      	mov	r1, r0
    32fe:	4b0a      	ldr	r3, [pc, #40]	; (3328 <tcpip_input+0x4c>)
    3300:	4807      	ldr	r0, [pc, #28]	; (3320 <tcpip_input+0x44>)
    3302:	4798      	blx	r3
    3304:	b128      	cbz	r0, 3312 <tcpip_input+0x36>
    3306:	4621      	mov	r1, r4
    3308:	2009      	movs	r0, #9
    330a:	4b08      	ldr	r3, [pc, #32]	; (332c <tcpip_input+0x50>)
    330c:	4798      	blx	r3
    330e:	f04f 30ff 	mov.w	r0, #4294967295
    3312:	bd70      	pop	{r4, r5, r6, pc}
    3314:	f06f 0005 	mvn.w	r0, #5
    3318:	bd70      	pop	{r4, r5, r6, pc}
    331a:	bf00      	nop
    331c:	00001eb5 	.word	0x00001eb5
    3320:	200015e4 	.word	0x200015e4
    3324:	00004539 	.word	0x00004539
    3328:	00001dbd 	.word	0x00001dbd
    332c:	00004559 	.word	0x00004559

00003330 <tcpip_callback_with_block>:
    3330:	b5f8      	push	{r3, r4, r5, r6, r7, lr}
    3332:	4607      	mov	r7, r0
    3334:	4b11      	ldr	r3, [pc, #68]	; (337c <tcpip_callback_with_block+0x4c>)
    3336:	4812      	ldr	r0, [pc, #72]	; (3380 <tcpip_callback_with_block+0x50>)
    3338:	460e      	mov	r6, r1
    333a:	4615      	mov	r5, r2
    333c:	4798      	blx	r3
    333e:	b1c8      	cbz	r0, 3374 <tcpip_callback_with_block+0x44>
    3340:	2008      	movs	r0, #8
    3342:	4b10      	ldr	r3, [pc, #64]	; (3384 <tcpip_callback_with_block+0x54>)
    3344:	4798      	blx	r3
    3346:	4604      	mov	r4, r0
    3348:	b188      	cbz	r0, 336e <tcpip_callback_with_block+0x3e>
    334a:	2304      	movs	r3, #4
    334c:	7003      	strb	r3, [r0, #0]
    334e:	6087      	str	r7, [r0, #8]
    3350:	60c6      	str	r6, [r0, #12]
    3352:	4601      	mov	r1, r0
    3354:	480a      	ldr	r0, [pc, #40]	; (3380 <tcpip_callback_with_block+0x50>)
    3356:	b11d      	cbz	r5, 3360 <tcpip_callback_with_block+0x30>
    3358:	4b0b      	ldr	r3, [pc, #44]	; (3388 <tcpip_callback_with_block+0x58>)
    335a:	4798      	blx	r3
    335c:	2000      	movs	r0, #0
    335e:	bdf8      	pop	{r3, r4, r5, r6, r7, pc}
    3360:	4b0a      	ldr	r3, [pc, #40]	; (338c <tcpip_callback_with_block+0x5c>)
    3362:	4798      	blx	r3
    3364:	b128      	cbz	r0, 3372 <tcpip_callback_with_block+0x42>
    3366:	4621      	mov	r1, r4
    3368:	2008      	movs	r0, #8
    336a:	4b09      	ldr	r3, [pc, #36]	; (3390 <tcpip_callback_with_block+0x60>)
    336c:	4798      	blx	r3
    336e:	f04f 30ff 	mov.w	r0, #4294967295
    3372:	bdf8      	pop	{r3, r4, r5, r6, r7, pc}
    3374:	f06f 0005 	mvn.w	r0, #5
    3378:	bdf8      	pop	{r3, r4, r5, r6, r7, pc}
    337a:	bf00      	nop
    337c:	00001eb5 	.word	0x00001eb5
    3380:	200015e4 	.word	0x200015e4
    3384:	00004539 	.word	0x00004539
    3388:	00001d99 	.word	0x00001d99
    338c:	00001dbd 	.word	0x00001dbd
    3390:	00004559 	.word	0x00004559

00003394 <tcpip_apimsg>:
    3394:	b530      	push	{r4, r5, lr}
    3396:	4b0d      	ldr	r3, [pc, #52]	; (33cc <tcpip_apimsg+0x38>)
    3398:	b087      	sub	sp, #28
    339a:	4604      	mov	r4, r0
    339c:	480c      	ldr	r0, [pc, #48]	; (33d0 <tcpip_apimsg+0x3c>)
    339e:	4798      	blx	r3
    33a0:	b180      	cbz	r0, 33c4 <tcpip_apimsg+0x30>
    33a2:	2500      	movs	r5, #0
    33a4:	a901      	add	r1, sp, #4
    33a6:	480a      	ldr	r0, [pc, #40]	; (33d0 <tcpip_apimsg+0x3c>)
    33a8:	4b0a      	ldr	r3, [pc, #40]	; (33d4 <tcpip_apimsg+0x40>)
    33aa:	f88d 5004 	strb.w	r5, [sp, #4]
    33ae:	9403      	str	r4, [sp, #12]
    33b0:	4798      	blx	r3
    33b2:	6860      	ldr	r0, [r4, #4]
    33b4:	4b08      	ldr	r3, [pc, #32]	; (33d8 <tcpip_apimsg+0x44>)
    33b6:	4629      	mov	r1, r5
    33b8:	300c      	adds	r0, #12
    33ba:	4798      	blx	r3
    33bc:	f994 0008 	ldrsb.w	r0, [r4, #8]
    33c0:	b007      	add	sp, #28
    33c2:	bd30      	pop	{r4, r5, pc}
    33c4:	f06f 0005 	mvn.w	r0, #5
    33c8:	e7fa      	b.n	33c0 <tcpip_apimsg+0x2c>
    33ca:	bf00      	nop
    33cc:	00001eb5 	.word	0x00001eb5
    33d0:	200015e4 	.word	0x200015e4
    33d4:	00001d99 	.word	0x00001d99
    33d8:	00001cf9 	.word	0x00001cf9

000033dc <tcpip_init>:
    33dc:	b537      	push	{r0, r1, r2, r4, r5, lr}
    33de:	4b0b      	ldr	r3, [pc, #44]	; (340c <tcpip_init+0x30>)
    33e0:	4605      	mov	r5, r0
    33e2:	460c      	mov	r4, r1
    33e4:	4798      	blx	r3
    33e6:	480a      	ldr	r0, [pc, #40]	; (3410 <tcpip_init+0x34>)
    33e8:	4b0a      	ldr	r3, [pc, #40]	; (3414 <tcpip_init+0x38>)
    33ea:	6005      	str	r5, [r0, #0]
    33ec:	6044      	str	r4, [r0, #4]
    33ee:	2110      	movs	r1, #16
    33f0:	3008      	adds	r0, #8
    33f2:	4798      	blx	r3
    33f4:	2301      	movs	r3, #1
    33f6:	9300      	str	r3, [sp, #0]
    33f8:	2200      	movs	r2, #0
    33fa:	f44f 6383 	mov.w	r3, #1048	; 0x418
    33fe:	4906      	ldr	r1, [pc, #24]	; (3418 <tcpip_init+0x3c>)
    3400:	4c06      	ldr	r4, [pc, #24]	; (341c <tcpip_init+0x40>)
    3402:	4807      	ldr	r0, [pc, #28]	; (3420 <tcpip_init+0x44>)
    3404:	47a0      	blx	r4
    3406:	b003      	add	sp, #12
    3408:	bd30      	pop	{r4, r5, pc}
    340a:	bf00      	nop
    340c:	0000343d 	.word	0x0000343d
    3410:	200015dc 	.word	0x200015dc
    3414:	00001d5d 	.word	0x00001d5d
    3418:	00003241 	.word	0x00003241
    341c:	00001ec1 	.word	0x00001ec1
    3420:	0000ba0c 	.word	0x0000ba0c

00003424 <lwip_htons>:
    3424:	ba40      	rev16	r0, r0
    3426:	b280      	uxth	r0, r0
    3428:	4770      	bx	lr

0000342a <lwip_ntohs>:
    342a:	ba40      	rev16	r0, r0
    342c:	b280      	uxth	r0, r0
    342e:	4770      	bx	lr

00003430 <lwip_htonl>:
    3430:	ba00      	rev	r0, r0
    3432:	4770      	bx	lr

00003434 <lwip_ntohl>:
    3434:	4b00      	ldr	r3, [pc, #0]	; (3438 <lwip_ntohl+0x4>)
    3436:	4718      	bx	r3
    3438:	00003431 	.word	0x00003431

0000343c <lwip_init>:
    343c:	b510      	push	{r4, lr}
    343e:	4b09      	ldr	r3, [pc, #36]	; (3464 <lwip_init+0x28>)
    3440:	4798      	blx	r3
    3442:	4b09      	ldr	r3, [pc, #36]	; (3468 <lwip_init+0x2c>)
    3444:	4798      	blx	r3
    3446:	4b09      	ldr	r3, [pc, #36]	; (346c <lwip_init+0x30>)
    3448:	4798      	blx	r3
    344a:	4b09      	ldr	r3, [pc, #36]	; (3470 <lwip_init+0x34>)
    344c:	4798      	blx	r3
    344e:	4b09      	ldr	r3, [pc, #36]	; (3474 <lwip_init+0x38>)
    3450:	4798      	blx	r3
    3452:	4b09      	ldr	r3, [pc, #36]	; (3478 <lwip_init+0x3c>)
    3454:	4798      	blx	r3
    3456:	4b09      	ldr	r3, [pc, #36]	; (347c <lwip_init+0x40>)
    3458:	4798      	blx	r3
    345a:	4b09      	ldr	r3, [pc, #36]	; (3480 <lwip_init+0x44>)
    345c:	e8bd 4010 	ldmia.w	sp!, {r4, lr}
    3460:	4718      	bx	r3
    3462:	bf00      	nop
    3464:	00001c6d 	.word	0x00001c6d
    3468:	00004275 	.word	0x00004275
    346c:	000044e5 	.word	0x000044e5
    3470:	00004571 	.word	0x00004571
    3474:	00002d59 	.word	0x00002d59
    3478:	00007395 	.word	0x00007395
    347c:	00004add 	.word	0x00004add
    3480:	00007269 	.word	0x00007269

00003484 <icmp_send_response.isra.0>:
    3484:	e92d 41ff 	stmdb	sp!, {r0, r1, r2, r3, r4, r5, r6, r7, r8, lr}
    3488:	4604      	mov	r4, r0
    348a:	4688      	mov	r8, r1
    348c:	4616      	mov	r6, r2
    348e:	2124      	movs	r1, #36	; 0x24
    3490:	2200      	movs	r2, #0
    3492:	2001      	movs	r0, #1
    3494:	4b19      	ldr	r3, [pc, #100]	; (34fc <icmp_send_response.isra.0+0x78>)
    3496:	4798      	blx	r3
    3498:	4605      	mov	r5, r0
    349a:	b358      	cbz	r0, 34f4 <icmp_send_response.isra.0+0x70>
    349c:	6827      	ldr	r7, [r4, #0]
    349e:	6844      	ldr	r4, [r0, #4]
    34a0:	2300      	movs	r3, #0
    34a2:	7123      	strb	r3, [r4, #4]
    34a4:	7163      	strb	r3, [r4, #5]
    34a6:	71a3      	strb	r3, [r4, #6]
    34a8:	71e3      	strb	r3, [r4, #7]
    34aa:	f884 8000 	strb.w	r8, [r4]
    34ae:	7066      	strb	r6, [r4, #1]
    34b0:	463b      	mov	r3, r7
    34b2:	f104 0208 	add.w	r2, r4, #8
    34b6:	f107 011c 	add.w	r1, r7, #28
    34ba:	f853 0b04 	ldr.w	r0, [r3], #4
    34be:	f842 0b04 	str.w	r0, [r2], #4
    34c2:	428b      	cmp	r3, r1
    34c4:	d1f9      	bne.n	34ba <icmp_send_response.isra.0+0x36>
    34c6:	2600      	movs	r6, #0
    34c8:	70a6      	strb	r6, [r4, #2]
    34ca:	70e6      	strb	r6, [r4, #3]
    34cc:	8969      	ldrh	r1, [r5, #10]
    34ce:	4b0c      	ldr	r3, [pc, #48]	; (3500 <icmp_send_response.isra.0+0x7c>)
    34d0:	4620      	mov	r0, r4
    34d2:	4798      	blx	r3
    34d4:	aa04      	add	r2, sp, #16
    34d6:	8060      	strh	r0, [r4, #2]
    34d8:	68fb      	ldr	r3, [r7, #12]
    34da:	f842 3d04 	str.w	r3, [r2, #-4]!
    34de:	2301      	movs	r3, #1
    34e0:	9301      	str	r3, [sp, #4]
    34e2:	9600      	str	r6, [sp, #0]
    34e4:	23ff      	movs	r3, #255	; 0xff
    34e6:	4631      	mov	r1, r6
    34e8:	4628      	mov	r0, r5
    34ea:	4c06      	ldr	r4, [pc, #24]	; (3504 <icmp_send_response.isra.0+0x80>)
    34ec:	47a0      	blx	r4
    34ee:	4628      	mov	r0, r5
    34f0:	4b05      	ldr	r3, [pc, #20]	; (3508 <icmp_send_response.isra.0+0x84>)
    34f2:	4798      	blx	r3
    34f4:	b004      	add	sp, #16
    34f6:	e8bd 81f0 	ldmia.w	sp!, {r4, r5, r6, r7, r8, pc}
    34fa:	bf00      	nop
    34fc:	000047dd 	.word	0x000047dd
    3500:	00003765 	.word	0x00003765
    3504:	00003a81 	.word	0x00003a81
    3508:	00004785 	.word	0x00004785

0000350c <icmp_input>:
    350c:	e92d 4ff0 	stmdb	sp!, {r4, r5, r6, r7, r8, r9, sl, fp, lr}
    3510:	6846      	ldr	r6, [r0, #4]
    3512:	4f46      	ldr	r7, [pc, #280]	; (362c <icmp_input+0x120>)
    3514:	7835      	ldrb	r5, [r6, #0]
    3516:	f8df 8138 	ldr.w	r8, [pc, #312]	; 3650 <icmp_input+0x144>
    351a:	f005 050f 	and.w	r5, r5, #15
    351e:	00ad      	lsls	r5, r5, #2
    3520:	f1c5 0b00 	rsb	fp, r5, #0
    3524:	fa0f fb8b 	sxth.w	fp, fp
    3528:	b087      	sub	sp, #28
    352a:	4689      	mov	r9, r1
    352c:	4659      	mov	r1, fp
    352e:	4604      	mov	r4, r0
    3530:	47b8      	blx	r7
    3532:	b9b0      	cbnz	r0, 3562 <icmp_input+0x56>
    3534:	8923      	ldrh	r3, [r4, #8]
    3536:	2b03      	cmp	r3, #3
    3538:	d913      	bls.n	3562 <icmp_input+0x56>
    353a:	6863      	ldr	r3, [r4, #4]
    353c:	781b      	ldrb	r3, [r3, #0]
    353e:	2b08      	cmp	r3, #8
    3540:	d10f      	bne.n	3562 <icmp_input+0x56>
    3542:	f8df a104 	ldr.w	sl, [pc, #260]	; 3648 <icmp_input+0x13c>
    3546:	4a3a      	ldr	r2, [pc, #232]	; (3630 <icmp_input+0x124>)
    3548:	f8da 0000 	ldr.w	r0, [sl]
    354c:	4649      	mov	r1, r9
    354e:	f000 03f0 	and.w	r3, r0, #240	; 0xf0
    3552:	9305      	str	r3, [sp, #20]
    3554:	4790      	blx	r2
    3556:	f8cd a010 	str.w	sl, [sp, #16]
    355a:	b910      	cbnz	r0, 3562 <icmp_input+0x56>
    355c:	9b05      	ldr	r3, [sp, #20]
    355e:	2be0      	cmp	r3, #224	; 0xe0
    3560:	d105      	bne.n	356e <icmp_input+0x62>
    3562:	4620      	mov	r0, r4
    3564:	4643      	mov	r3, r8
    3566:	b007      	add	sp, #28
    3568:	e8bd 4ff0 	ldmia.w	sp!, {r4, r5, r6, r7, r8, r9, sl, fp, lr}
    356c:	4718      	bx	r3
    356e:	8923      	ldrh	r3, [r4, #8]
    3570:	2b07      	cmp	r3, #7
    3572:	d9f6      	bls.n	3562 <icmp_input+0x56>
    3574:	4620      	mov	r0, r4
    3576:	4b2f      	ldr	r3, [pc, #188]	; (3634 <icmp_input+0x128>)
    3578:	4798      	blx	r3
    357a:	2800      	cmp	r0, #0
    357c:	d1f1      	bne.n	3562 <icmp_input+0x56>
    357e:	2124      	movs	r1, #36	; 0x24
    3580:	4620      	mov	r0, r4
    3582:	b22d      	sxth	r5, r5
    3584:	47b8      	blx	r7
    3586:	2800      	cmp	r0, #0
    3588:	d049      	beq.n	361e <icmp_input+0x112>
    358a:	4629      	mov	r1, r5
    358c:	4620      	mov	r0, r4
    358e:	47b8      	blx	r7
    3590:	4602      	mov	r2, r0
    3592:	2800      	cmp	r0, #0
    3594:	d1e5      	bne.n	3562 <icmp_input+0x56>
    3596:	8921      	ldrh	r1, [r4, #8]
    3598:	4b27      	ldr	r3, [pc, #156]	; (3638 <icmp_input+0x12c>)
    359a:	2002      	movs	r0, #2
    359c:	4798      	blx	r3
    359e:	4682      	mov	sl, r0
    35a0:	2800      	cmp	r0, #0
    35a2:	d0de      	beq.n	3562 <icmp_input+0x56>
    35a4:	4621      	mov	r1, r4
    35a6:	4a25      	ldr	r2, [pc, #148]	; (363c <icmp_input+0x130>)
    35a8:	4790      	blx	r2
    35aa:	2800      	cmp	r0, #0
    35ac:	d1d9      	bne.n	3562 <icmp_input+0x56>
    35ae:	4659      	mov	r1, fp
    35b0:	4650      	mov	r0, sl
    35b2:	f8da 6004 	ldr.w	r6, [sl, #4]
    35b6:	47b8      	blx	r7
    35b8:	2800      	cmp	r0, #0
    35ba:	d1d2      	bne.n	3562 <icmp_input+0x56>
    35bc:	4620      	mov	r0, r4
    35be:	47c0      	blx	r8
    35c0:	4654      	mov	r4, sl
    35c2:	9b04      	ldr	r3, [sp, #16]
    35c4:	6862      	ldr	r2, [r4, #4]
    35c6:	681b      	ldr	r3, [r3, #0]
    35c8:	60f3      	str	r3, [r6, #12]
    35ca:	4b1d      	ldr	r3, [pc, #116]	; (3640 <icmp_input+0x134>)
    35cc:	681b      	ldr	r3, [r3, #0]
    35ce:	6133      	str	r3, [r6, #16]
    35d0:	2300      	movs	r3, #0
    35d2:	7013      	strb	r3, [r2, #0]
    35d4:	8853      	ldrh	r3, [r2, #2]
    35d6:	f64f 71f6 	movw	r1, #65526	; 0xfff6
    35da:	428b      	cmp	r3, r1
    35dc:	bf8c      	ite	hi
    35de:	3309      	addhi	r3, #9
    35e0:	3308      	addls	r3, #8
    35e2:	8053      	strh	r3, [r2, #2]
    35e4:	f04f 0aff 	mov.w	sl, #255	; 0xff
    35e8:	2300      	movs	r3, #0
    35ea:	72b3      	strb	r3, [r6, #10]
    35ec:	72f3      	strb	r3, [r6, #11]
    35ee:	2114      	movs	r1, #20
    35f0:	4b14      	ldr	r3, [pc, #80]	; (3644 <icmp_input+0x138>)
    35f2:	f886 a008 	strb.w	sl, [r6, #8]
    35f6:	4630      	mov	r0, r6
    35f8:	4798      	blx	r3
    35fa:	4629      	mov	r1, r5
    35fc:	8170      	strh	r0, [r6, #10]
    35fe:	4620      	mov	r0, r4
    3600:	47b8      	blx	r7
    3602:	4602      	mov	r2, r0
    3604:	2800      	cmp	r0, #0
    3606:	d1ac      	bne.n	3562 <icmp_input+0x56>
    3608:	2301      	movs	r3, #1
    360a:	e88d 000c 	stmia.w	sp, {r2, r3}
    360e:	f8cd 9008 	str.w	r9, [sp, #8]
    3612:	4653      	mov	r3, sl
    3614:	490c      	ldr	r1, [pc, #48]	; (3648 <icmp_input+0x13c>)
    3616:	4d0d      	ldr	r5, [pc, #52]	; (364c <icmp_input+0x140>)
    3618:	4620      	mov	r0, r4
    361a:	47a8      	blx	r5
    361c:	e7a1      	b.n	3562 <icmp_input+0x56>
    361e:	f06f 0123 	mvn.w	r1, #35	; 0x23
    3622:	4620      	mov	r0, r4
    3624:	47b8      	blx	r7
    3626:	2800      	cmp	r0, #0
    3628:	d19b      	bne.n	3562 <icmp_input+0x56>
    362a:	e7ca      	b.n	35c2 <icmp_input+0xb6>
    362c:	0000472b 	.word	0x0000472b
    3630:	00003ac1 	.word	0x00003ac1
    3634:	00003775 	.word	0x00003775
    3638:	000047dd 	.word	0x000047dd
    363c:	00004999 	.word	0x00004999
    3640:	20012990 	.word	0x20012990
    3644:	00003765 	.word	0x00003765
    3648:	20012998 	.word	0x20012998
    364c:	00003985 	.word	0x00003985
    3650:	00004785 	.word	0x00004785

00003654 <icmp_dest_unreach>:
    3654:	460a      	mov	r2, r1
    3656:	3004      	adds	r0, #4
    3658:	2103      	movs	r1, #3
    365a:	4b01      	ldr	r3, [pc, #4]	; (3660 <icmp_dest_unreach+0xc>)
    365c:	4718      	bx	r3
    365e:	bf00      	nop
    3660:	00003485 	.word	0x00003485

00003664 <icmp_time_exceeded>:
    3664:	460a      	mov	r2, r1
    3666:	3004      	adds	r0, #4
    3668:	210b      	movs	r1, #11
    366a:	4b01      	ldr	r3, [pc, #4]	; (3670 <icmp_time_exceeded+0xc>)
    366c:	4718      	bx	r3
    366e:	bf00      	nop
    3670:	00003485 	.word	0x00003485

00003674 <lwip_standard_chksum>:
    3674:	b513      	push	{r0, r1, r4, lr}
    3676:	2300      	movs	r3, #0
    3678:	f010 0201 	ands.w	r2, r0, #1
    367c:	f8ad 3006 	strh.w	r3, [sp, #6]
    3680:	d01f      	beq.n	36c2 <lwip_standard_chksum+0x4e>
    3682:	4299      	cmp	r1, r3
    3684:	dd24      	ble.n	36d0 <lwip_standard_chksum+0x5c>
    3686:	1c43      	adds	r3, r0, #1
    3688:	7800      	ldrb	r0, [r0, #0]
    368a:	f88d 0007 	strb.w	r0, [sp, #7]
    368e:	3901      	subs	r1, #1
    3690:	2000      	movs	r0, #0
    3692:	2901      	cmp	r1, #1
    3694:	dc17      	bgt.n	36c6 <lwip_standard_chksum+0x52>
    3696:	d102      	bne.n	369e <lwip_standard_chksum+0x2a>
    3698:	781b      	ldrb	r3, [r3, #0]
    369a:	f88d 3006 	strb.w	r3, [sp, #6]
    369e:	f8bd 3006 	ldrh.w	r3, [sp, #6]
    36a2:	4403      	add	r3, r0
    36a4:	b298      	uxth	r0, r3
    36a6:	eb00 4313 	add.w	r3, r0, r3, lsr #16
    36aa:	b298      	uxth	r0, r3
    36ac:	eb00 4013 	add.w	r0, r0, r3, lsr #16
    36b0:	b122      	cbz	r2, 36bc <lwip_standard_chksum+0x48>
    36b2:	0203      	lsls	r3, r0, #8
    36b4:	b29b      	uxth	r3, r3
    36b6:	f3c0 2007 	ubfx	r0, r0, #8, #8
    36ba:	4318      	orrs	r0, r3
    36bc:	b280      	uxth	r0, r0
    36be:	b002      	add	sp, #8
    36c0:	bd10      	pop	{r4, pc}
    36c2:	4603      	mov	r3, r0
    36c4:	e7e4      	b.n	3690 <lwip_standard_chksum+0x1c>
    36c6:	f833 4b02 	ldrh.w	r4, [r3], #2
    36ca:	3902      	subs	r1, #2
    36cc:	4420      	add	r0, r4
    36ce:	e7e0      	b.n	3692 <lwip_standard_chksum+0x1e>
    36d0:	4618      	mov	r0, r3
    36d2:	e7e4      	b.n	369e <lwip_standard_chksum+0x2a>

000036d4 <inet_chksum_pseudo>:
    36d4:	e92d 47f0 	stmdb	sp!, {r4, r5, r6, r7, r8, r9, sl, lr}
    36d8:	2500      	movs	r5, #0
    36da:	f8df a084 	ldr.w	sl, [pc, #132]	; 3760 <inet_chksum_pseudo+0x8c>
    36de:	4606      	mov	r6, r0
    36e0:	4688      	mov	r8, r1
    36e2:	4691      	mov	r9, r2
    36e4:	461f      	mov	r7, r3
    36e6:	462c      	mov	r4, r5
    36e8:	bb1e      	cbnz	r6, 3732 <inet_chksum_pseudo+0x5e>
    36ea:	b125      	cbz	r5, 36f6 <inet_chksum_pseudo+0x22>
    36ec:	0221      	lsls	r1, r4, #8
    36ee:	b289      	uxth	r1, r1
    36f0:	f3c4 2407 	ubfx	r4, r4, #8, #8
    36f4:	430c      	orrs	r4, r1
    36f6:	f8d9 2000 	ldr.w	r2, [r9]
    36fa:	f8d8 3000 	ldr.w	r3, [r8]
    36fe:	4d17      	ldr	r5, [pc, #92]	; (375c <inet_chksum_pseudo+0x88>)
    3700:	0c10      	lsrs	r0, r2, #16
    3702:	fa10 f082 	uxtah	r0, r0, r2
    3706:	fa10 f083 	uxtah	r0, r0, r3
    370a:	eb00 4013 	add.w	r0, r0, r3, lsr #16
    370e:	4404      	add	r4, r0
    3710:	4638      	mov	r0, r7
    3712:	47a8      	blx	r5
    3714:	4404      	add	r4, r0
    3716:	f8bd 0020 	ldrh.w	r0, [sp, #32]
    371a:	47a8      	blx	r5
    371c:	4420      	add	r0, r4
    371e:	b284      	uxth	r4, r0
    3720:	eb04 4410 	add.w	r4, r4, r0, lsr #16
    3724:	b2a0      	uxth	r0, r4
    3726:	eb00 4014 	add.w	r0, r0, r4, lsr #16
    372a:	43c0      	mvns	r0, r0
    372c:	b280      	uxth	r0, r0
    372e:	e8bd 87f0 	ldmia.w	sp!, {r4, r5, r6, r7, r8, r9, sl, pc}
    3732:	8971      	ldrh	r1, [r6, #10]
    3734:	6870      	ldr	r0, [r6, #4]
    3736:	47d0      	blx	sl
    3738:	8973      	ldrh	r3, [r6, #10]
    373a:	4404      	add	r4, r0
    373c:	b2a0      	uxth	r0, r4
    373e:	07db      	lsls	r3, r3, #31
    3740:	eb00 4414 	add.w	r4, r0, r4, lsr #16
    3744:	d507      	bpl.n	3756 <inet_chksum_pseudo+0x82>
    3746:	0223      	lsls	r3, r4, #8
    3748:	f1c5 0501 	rsb	r5, r5, #1
    374c:	b29b      	uxth	r3, r3
    374e:	f3c4 2407 	ubfx	r4, r4, #8, #8
    3752:	b2ed      	uxtb	r5, r5
    3754:	431c      	orrs	r4, r3
    3756:	6836      	ldr	r6, [r6, #0]
    3758:	e7c6      	b.n	36e8 <inet_chksum_pseudo+0x14>
    375a:	bf00      	nop
    375c:	00003425 	.word	0x00003425
    3760:	00003675 	.word	0x00003675

00003764 <inet_chksum>:
    3764:	b508      	push	{r3, lr}
    3766:	4b02      	ldr	r3, [pc, #8]	; (3770 <inet_chksum+0xc>)
    3768:	4798      	blx	r3
    376a:	43c0      	mvns	r0, r0
    376c:	b280      	uxth	r0, r0
    376e:	bd08      	pop	{r3, pc}
    3770:	00003675 	.word	0x00003675

00003774 <inet_chksum_pbuf>:
    3774:	b5f8      	push	{r3, r4, r5, r6, r7, lr}
    3776:	2500      	movs	r5, #0
    3778:	4f10      	ldr	r7, [pc, #64]	; (37bc <inet_chksum_pbuf+0x48>)
    377a:	4606      	mov	r6, r0
    377c:	462c      	mov	r4, r5
    377e:	b946      	cbnz	r6, 3792 <inet_chksum_pbuf+0x1e>
    3780:	b125      	cbz	r5, 378c <inet_chksum_pbuf+0x18>
    3782:	0223      	lsls	r3, r4, #8
    3784:	b29b      	uxth	r3, r3
    3786:	f3c4 2407 	ubfx	r4, r4, #8, #8
    378a:	431c      	orrs	r4, r3
    378c:	43e0      	mvns	r0, r4
    378e:	b280      	uxth	r0, r0
    3790:	bdf8      	pop	{r3, r4, r5, r6, r7, pc}
    3792:	8971      	ldrh	r1, [r6, #10]
    3794:	6870      	ldr	r0, [r6, #4]
    3796:	47b8      	blx	r7
    3798:	8973      	ldrh	r3, [r6, #10]
    379a:	4420      	add	r0, r4
    379c:	b284      	uxth	r4, r0
    379e:	07db      	lsls	r3, r3, #31
    37a0:	eb04 4410 	add.w	r4, r4, r0, lsr #16
    37a4:	d507      	bpl.n	37b6 <inet_chksum_pbuf+0x42>
    37a6:	0223      	lsls	r3, r4, #8
    37a8:	f1c5 0501 	rsb	r5, r5, #1
    37ac:	b29b      	uxth	r3, r3
    37ae:	f3c4 2407 	ubfx	r4, r4, #8, #8
    37b2:	b2ed      	uxtb	r5, r5
    37b4:	431c      	orrs	r4, r3
    37b6:	6836      	ldr	r6, [r6, #0]
    37b8:	e7e1      	b.n	377e <inet_chksum_pbuf+0xa>
    37ba:	bf00      	nop
    37bc:	00003675 	.word	0x00003675

000037c0 <ip_route>:
    37c0:	4b0c      	ldr	r3, [pc, #48]	; (37f4 <ip_route+0x34>)
    37c2:	681b      	ldr	r3, [r3, #0]
    37c4:	b94b      	cbnz	r3, 37da <ip_route+0x1a>
    37c6:	4a0c      	ldr	r2, [pc, #48]	; (37f8 <ip_route+0x38>)
    37c8:	6812      	ldr	r2, [r2, #0]
    37ca:	b182      	cbz	r2, 37ee <ip_route+0x2e>
    37cc:	f892 102d 	ldrb.w	r1, [r2, #45]	; 0x2d
    37d0:	f011 0f01 	tst.w	r1, #1
    37d4:	bf18      	it	ne
    37d6:	4613      	movne	r3, r2
    37d8:	e009      	b.n	37ee <ip_route+0x2e>
    37da:	f893 202d 	ldrb.w	r2, [r3, #45]	; 0x2d
    37de:	07d2      	lsls	r2, r2, #31
    37e0:	d5ef      	bpl.n	37c2 <ip_route+0x2>
    37e2:	6859      	ldr	r1, [r3, #4]
    37e4:	6802      	ldr	r2, [r0, #0]
    37e6:	404a      	eors	r2, r1
    37e8:	6899      	ldr	r1, [r3, #8]
    37ea:	420a      	tst	r2, r1
    37ec:	d1e9      	bne.n	37c2 <ip_route+0x2>
    37ee:	4618      	mov	r0, r3
    37f0:	4770      	bx	lr
    37f2:	bf00      	nop
    37f4:	200161b4 	.word	0x200161b4
    37f8:	200161b8 	.word	0x200161b8

000037fc <ip_input>:
    37fc:	e92d 4ff7 	stmdb	sp!, {r0, r1, r2, r4, r5, r6, r7, r8, r9, sl, fp, lr}
    3800:	6846      	ldr	r6, [r0, #4]
    3802:	7835      	ldrb	r5, [r6, #0]
    3804:	092b      	lsrs	r3, r5, #4
    3806:	2b04      	cmp	r3, #4
    3808:	4604      	mov	r4, r0
    380a:	460f      	mov	r7, r1
    380c:	d006      	beq.n	381c <ip_input+0x20>
    380e:	4620      	mov	r0, r4
    3810:	4b4d      	ldr	r3, [pc, #308]	; (3948 <ip_input+0x14c>)
    3812:	4798      	blx	r3
    3814:	2000      	movs	r0, #0
    3816:	b003      	add	sp, #12
    3818:	e8bd 8ff0 	ldmia.w	sp!, {r4, r5, r6, r7, r8, r9, sl, fp, pc}
    381c:	4b4b      	ldr	r3, [pc, #300]	; (394c <ip_input+0x150>)
    381e:	8870      	ldrh	r0, [r6, #2]
    3820:	4798      	blx	r3
    3822:	f005 050f 	and.w	r5, r5, #15
    3826:	8963      	ldrh	r3, [r4, #10]
    3828:	00ad      	lsls	r5, r5, #2
    382a:	42ab      	cmp	r3, r5
    382c:	4680      	mov	r8, r0
    382e:	d3ee      	bcc.n	380e <ip_input+0x12>
    3830:	8923      	ldrh	r3, [r4, #8]
    3832:	4283      	cmp	r3, r0
    3834:	d3eb      	bcc.n	380e <ip_input+0x12>
    3836:	4629      	mov	r1, r5
    3838:	4630      	mov	r0, r6
    383a:	4b45      	ldr	r3, [pc, #276]	; (3950 <ip_input+0x154>)
    383c:	4798      	blx	r3
    383e:	2800      	cmp	r0, #0
    3840:	d1e5      	bne.n	380e <ip_input+0x12>
    3842:	4641      	mov	r1, r8
    3844:	4b43      	ldr	r3, [pc, #268]	; (3954 <ip_input+0x158>)
    3846:	f8df b138 	ldr.w	fp, [pc, #312]	; 3980 <ip_input+0x184>
    384a:	4620      	mov	r0, r4
    384c:	4798      	blx	r3
    384e:	4a42      	ldr	r2, [pc, #264]	; (3958 <ip_input+0x15c>)
    3850:	6933      	ldr	r3, [r6, #16]
    3852:	6013      	str	r3, [r2, #0]
    3854:	4b41      	ldr	r3, [pc, #260]	; (395c <ip_input+0x160>)
    3856:	68f1      	ldr	r1, [r6, #12]
    3858:	6019      	str	r1, [r3, #0]
    385a:	4699      	mov	r9, r3
    385c:	4b40      	ldr	r3, [pc, #256]	; (3960 <ip_input+0x164>)
    385e:	463d      	mov	r5, r7
    3860:	f04f 0a01 	mov.w	sl, #1
    3864:	4690      	mov	r8, r2
    3866:	f895 202d 	ldrb.w	r2, [r5, #45]	; 0x2d
    386a:	07d2      	lsls	r2, r2, #31
    386c:	d404      	bmi.n	3878 <ip_input+0x7c>
    386e:	f1ba 0f00 	cmp.w	sl, #0
    3872:	d139      	bne.n	38e8 <ip_input+0xec>
    3874:	682d      	ldr	r5, [r5, #0]
    3876:	e039      	b.n	38ec <ip_input+0xf0>
    3878:	686a      	ldr	r2, [r5, #4]
    387a:	2a00      	cmp	r2, #0
    387c:	d0f7      	beq.n	386e <ip_input+0x72>
    387e:	f8d8 0000 	ldr.w	r0, [r8]
    3882:	4282      	cmp	r2, r0
    3884:	d005      	beq.n	3892 <ip_input+0x96>
    3886:	4629      	mov	r1, r5
    3888:	9301      	str	r3, [sp, #4]
    388a:	4798      	blx	r3
    388c:	9b01      	ldr	r3, [sp, #4]
    388e:	2800      	cmp	r0, #0
    3890:	d0ed      	beq.n	386e <ip_input+0x72>
    3892:	4639      	mov	r1, r7
    3894:	f8d9 0000 	ldr.w	r0, [r9]
    3898:	f8df b0c4 	ldr.w	fp, [pc, #196]	; 3960 <ip_input+0x164>
    389c:	47d8      	blx	fp
    389e:	2800      	cmp	r0, #0
    38a0:	d1b5      	bne.n	380e <ip_input+0x12>
    38a2:	f8d9 3000 	ldr.w	r3, [r9]
    38a6:	f003 03f0 	and.w	r3, r3, #240	; 0xf0
    38aa:	2be0      	cmp	r3, #224	; 0xe0
    38ac:	d0af      	beq.n	380e <ip_input+0x12>
    38ae:	2d00      	cmp	r5, #0
    38b0:	d0ad      	beq.n	380e <ip_input+0x12>
    38b2:	88f3      	ldrh	r3, [r6, #6]
    38b4:	f023 03c0 	bic.w	r3, r3, #192	; 0xc0
    38b8:	b133      	cbz	r3, 38c8 <ip_input+0xcc>
    38ba:	4620      	mov	r0, r4
    38bc:	4b29      	ldr	r3, [pc, #164]	; (3964 <ip_input+0x168>)
    38be:	4798      	blx	r3
    38c0:	4604      	mov	r4, r0
    38c2:	2800      	cmp	r0, #0
    38c4:	d0a6      	beq.n	3814 <ip_input+0x18>
    38c6:	6846      	ldr	r6, [r0, #4]
    38c8:	7a73      	ldrb	r3, [r6, #9]
    38ca:	4a27      	ldr	r2, [pc, #156]	; (3968 <ip_input+0x16c>)
    38cc:	4d27      	ldr	r5, [pc, #156]	; (396c <ip_input+0x170>)
    38ce:	6017      	str	r7, [r2, #0]
    38d0:	2b06      	cmp	r3, #6
    38d2:	602e      	str	r6, [r5, #0]
    38d4:	4692      	mov	sl, r2
    38d6:	d01e      	beq.n	3916 <ip_input+0x11a>
    38d8:	2b11      	cmp	r3, #17
    38da:	d00f      	beq.n	38fc <ip_input+0x100>
    38dc:	2b01      	cmp	r3, #1
    38de:	d11e      	bne.n	391e <ip_input+0x122>
    38e0:	4639      	mov	r1, r7
    38e2:	4620      	mov	r0, r4
    38e4:	4b22      	ldr	r3, [pc, #136]	; (3970 <ip_input+0x174>)
    38e6:	e00c      	b.n	3902 <ip_input+0x106>
    38e8:	f8db 5000 	ldr.w	r5, [fp]
    38ec:	42bd      	cmp	r5, r7
    38ee:	bf08      	it	eq
    38f0:	682d      	ldreq	r5, [r5, #0]
    38f2:	f04f 0a00 	mov.w	sl, #0
    38f6:	2d00      	cmp	r5, #0
    38f8:	d1b5      	bne.n	3866 <ip_input+0x6a>
    38fa:	e7ca      	b.n	3892 <ip_input+0x96>
    38fc:	4b1d      	ldr	r3, [pc, #116]	; (3974 <ip_input+0x178>)
    38fe:	4639      	mov	r1, r7
    3900:	4620      	mov	r0, r4
    3902:	4798      	blx	r3
    3904:	2300      	movs	r3, #0
    3906:	f8ca 3000 	str.w	r3, [sl]
    390a:	602b      	str	r3, [r5, #0]
    390c:	f8c9 3000 	str.w	r3, [r9]
    3910:	f8c8 3000 	str.w	r3, [r8]
    3914:	e77e      	b.n	3814 <ip_input+0x18>
    3916:	4639      	mov	r1, r7
    3918:	4620      	mov	r0, r4
    391a:	4b17      	ldr	r3, [pc, #92]	; (3978 <ip_input+0x17c>)
    391c:	e7f1      	b.n	3902 <ip_input+0x106>
    391e:	4639      	mov	r1, r7
    3920:	f8d8 0000 	ldr.w	r0, [r8]
    3924:	47d8      	blx	fp
    3926:	b950      	cbnz	r0, 393e <ip_input+0x142>
    3928:	f8d8 3000 	ldr.w	r3, [r8]
    392c:	f003 03f0 	and.w	r3, r3, #240	; 0xf0
    3930:	2be0      	cmp	r3, #224	; 0xe0
    3932:	d004      	beq.n	393e <ip_input+0x142>
    3934:	6066      	str	r6, [r4, #4]
    3936:	2102      	movs	r1, #2
    3938:	4620      	mov	r0, r4
    393a:	4b10      	ldr	r3, [pc, #64]	; (397c <ip_input+0x180>)
    393c:	4798      	blx	r3
    393e:	4620      	mov	r0, r4
    3940:	4b01      	ldr	r3, [pc, #4]	; (3948 <ip_input+0x14c>)
    3942:	4798      	blx	r3
    3944:	e7de      	b.n	3904 <ip_input+0x108>
    3946:	bf00      	nop
    3948:	00004785 	.word	0x00004785
    394c:	0000342b 	.word	0x0000342b
    3950:	00003765 	.word	0x00003765
    3954:	000048f5 	.word	0x000048f5
    3958:	20012998 	.word	0x20012998
    395c:	20012990 	.word	0x20012990
    3960:	00003ac1 	.word	0x00003ac1
    3964:	00003df1 	.word	0x00003df1
    3968:	20012994 	.word	0x20012994
    396c:	2001299c 	.word	0x2001299c
    3970:	0000350d 	.word	0x0000350d
    3974:	00007399 	.word	0x00007399
    3978:	00005ddd 	.word	0x00005ddd
    397c:	00003655 	.word	0x00003655
    3980:	200161b4 	.word	0x200161b4

00003984 <ip_output_if>:
    3984:	e92d 4ff0 	stmdb	sp!, {r4, r5, r6, r7, r8, r9, sl, fp, lr}
    3988:	b087      	sub	sp, #28
    398a:	461c      	mov	r4, r3
    398c:	f89d 3044 	ldrb.w	r3, [sp, #68]	; 0x44
    3990:	f89d 8040 	ldrb.w	r8, [sp, #64]	; 0x40
    3994:	9302      	str	r3, [sp, #8]
    3996:	4607      	mov	r7, r0
    3998:	468b      	mov	fp, r1
    399a:	f8dd 9048 	ldr.w	r9, [sp, #72]	; 0x48
    399e:	4616      	mov	r6, r2
    39a0:	2a00      	cmp	r2, #0
    39a2:	d055      	beq.n	3a50 <ip_output_if+0xcc>
    39a4:	2114      	movs	r1, #20
    39a6:	4a32      	ldr	r2, [pc, #200]	; (3a70 <ip_output_if+0xec>)
    39a8:	4790      	blx	r2
    39aa:	9001      	str	r0, [sp, #4]
    39ac:	2800      	cmp	r0, #0
    39ae:	d15b      	bne.n	3a68 <ip_output_if+0xe4>
    39b0:	687d      	ldr	r5, [r7, #4]
    39b2:	9b02      	ldr	r3, [sp, #8]
    39b4:	722c      	strb	r4, [r5, #8]
    39b6:	726b      	strb	r3, [r5, #9]
    39b8:	6830      	ldr	r0, [r6, #0]
    39ba:	6128      	str	r0, [r5, #16]
    39bc:	b281      	uxth	r1, r0
    39be:	ea4f 4a10 	mov.w	sl, r0, lsr #16
    39c2:	2045      	movs	r0, #69	; 0x45
    39c4:	f885 8001 	strb.w	r8, [r5, #1]
    39c8:	7028      	strb	r0, [r5, #0]
    39ca:	ea4f 2808 	mov.w	r8, r8, lsl #8
    39ce:	ea48 0800 	orr.w	r8, r8, r0
    39d2:	ea44 2403 	orr.w	r4, r4, r3, lsl #8
    39d6:	8938      	ldrh	r0, [r7, #8]
    39d8:	4b26      	ldr	r3, [pc, #152]	; (3a74 <ip_output_if+0xf0>)
    39da:	9103      	str	r1, [sp, #12]
    39dc:	9302      	str	r3, [sp, #8]
    39de:	4798      	blx	r3
    39e0:	9a01      	ldr	r2, [sp, #4]
    39e2:	71aa      	strb	r2, [r5, #6]
    39e4:	71ea      	strb	r2, [r5, #7]
    39e6:	4a24      	ldr	r2, [pc, #144]	; (3a78 <ip_output_if+0xf4>)
    39e8:	8068      	strh	r0, [r5, #2]
    39ea:	9b02      	ldr	r3, [sp, #8]
    39ec:	9201      	str	r2, [sp, #4]
    39ee:	4444      	add	r4, r8
    39f0:	4680      	mov	r8, r0
    39f2:	8810      	ldrh	r0, [r2, #0]
    39f4:	4798      	blx	r3
    39f6:	9a01      	ldr	r2, [sp, #4]
    39f8:	80a8      	strh	r0, [r5, #4]
    39fa:	8813      	ldrh	r3, [r2, #0]
    39fc:	9903      	ldr	r1, [sp, #12]
    39fe:	3301      	adds	r3, #1
    3a00:	8013      	strh	r3, [r2, #0]
    3a02:	f1bb 0f00 	cmp.w	fp, #0
    3a06:	d002      	beq.n	3a0e <ip_output_if+0x8a>
    3a08:	f8db 3000 	ldr.w	r3, [fp]
    3a0c:	b90b      	cbnz	r3, 3a12 <ip_output_if+0x8e>
    3a0e:	f8d9 3004 	ldr.w	r3, [r9, #4]
    3a12:	60eb      	str	r3, [r5, #12]
    3a14:	68eb      	ldr	r3, [r5, #12]
    3a16:	fa14 f483 	uxtah	r4, r4, r3
    3a1a:	eb04 4413 	add.w	r4, r4, r3, lsr #16
    3a1e:	4421      	add	r1, r4
    3a20:	448a      	add	sl, r1
    3a22:	44c2      	add	sl, r8
    3a24:	4450      	add	r0, sl
    3a26:	b283      	uxth	r3, r0
    3a28:	eb03 4010 	add.w	r0, r3, r0, lsr #16
    3a2c:	eb00 4010 	add.w	r0, r0, r0, lsr #16
    3a30:	43c0      	mvns	r0, r0
    3a32:	8168      	strh	r0, [r5, #10]
    3a34:	f8b9 3024 	ldrh.w	r3, [r9, #36]	; 0x24
    3a38:	b183      	cbz	r3, 3a5c <ip_output_if+0xd8>
    3a3a:	893a      	ldrh	r2, [r7, #8]
    3a3c:	429a      	cmp	r2, r3
    3a3e:	d90d      	bls.n	3a5c <ip_output_if+0xd8>
    3a40:	4b0e      	ldr	r3, [pc, #56]	; (3a7c <ip_output_if+0xf8>)
    3a42:	4632      	mov	r2, r6
    3a44:	4649      	mov	r1, r9
    3a46:	4638      	mov	r0, r7
    3a48:	4798      	blx	r3
    3a4a:	b007      	add	sp, #28
    3a4c:	e8bd 8ff0 	ldmia.w	sp!, {r4, r5, r6, r7, r8, r9, sl, fp, pc}
    3a50:	6843      	ldr	r3, [r0, #4]
    3a52:	ae06      	add	r6, sp, #24
    3a54:	691b      	ldr	r3, [r3, #16]
    3a56:	f846 3d04 	str.w	r3, [r6, #-4]!
    3a5a:	e7eb      	b.n	3a34 <ip_output_if+0xb0>
    3a5c:	f8d9 3014 	ldr.w	r3, [r9, #20]
    3a60:	4632      	mov	r2, r6
    3a62:	4639      	mov	r1, r7
    3a64:	4648      	mov	r0, r9
    3a66:	e7ef      	b.n	3a48 <ip_output_if+0xc4>
    3a68:	f06f 0001 	mvn.w	r0, #1
    3a6c:	e7ed      	b.n	3a4a <ip_output_if+0xc6>
    3a6e:	bf00      	nop
    3a70:	0000472b 	.word	0x0000472b
    3a74:	00003425 	.word	0x00003425
    3a78:	200015e8 	.word	0x200015e8
    3a7c:	000040d9 	.word	0x000040d9

00003a80 <ip_output>:
    3a80:	b5f0      	push	{r4, r5, r6, r7, lr}
    3a82:	4605      	mov	r5, r0
    3a84:	b085      	sub	sp, #20
    3a86:	461f      	mov	r7, r3
    3a88:	4610      	mov	r0, r2
    3a8a:	4b0b      	ldr	r3, [pc, #44]	; (3ab8 <ip_output+0x38>)
    3a8c:	460e      	mov	r6, r1
    3a8e:	4614      	mov	r4, r2
    3a90:	4798      	blx	r3
    3a92:	b170      	cbz	r0, 3ab2 <ip_output+0x32>
    3a94:	f89d 302c 	ldrb.w	r3, [sp, #44]	; 0x2c
    3a98:	9301      	str	r3, [sp, #4]
    3a9a:	f89d 3028 	ldrb.w	r3, [sp, #40]	; 0x28
    3a9e:	9002      	str	r0, [sp, #8]
    3aa0:	9300      	str	r3, [sp, #0]
    3aa2:	4622      	mov	r2, r4
    3aa4:	463b      	mov	r3, r7
    3aa6:	4631      	mov	r1, r6
    3aa8:	4628      	mov	r0, r5
    3aaa:	4c04      	ldr	r4, [pc, #16]	; (3abc <ip_output+0x3c>)
    3aac:	47a0      	blx	r4
    3aae:	b005      	add	sp, #20
    3ab0:	bdf0      	pop	{r4, r5, r6, r7, pc}
    3ab2:	f06f 0003 	mvn.w	r0, #3
    3ab6:	e7fa      	b.n	3aae <ip_output+0x2e>
    3ab8:	000037c1 	.word	0x000037c1
    3abc:	00003985 	.word	0x00003985

00003ac0 <ip4_addr_isbroadcast>:
    3ac0:	1e43      	subs	r3, r0, #1
    3ac2:	3303      	adds	r3, #3
    3ac4:	d811      	bhi.n	3aea <ip4_addr_isbroadcast+0x2a>
    3ac6:	f891 302d 	ldrb.w	r3, [r1, #45]	; 0x2d
    3aca:	f013 0302 	ands.w	r3, r3, #2
    3ace:	d00e      	beq.n	3aee <ip4_addr_isbroadcast+0x2e>
    3ad0:	684a      	ldr	r2, [r1, #4]
    3ad2:	4290      	cmp	r0, r2
    3ad4:	d00b      	beq.n	3aee <ip4_addr_isbroadcast+0x2e>
    3ad6:	688b      	ldr	r3, [r1, #8]
    3ad8:	4042      	eors	r2, r0
    3ada:	421a      	tst	r2, r3
    3adc:	d107      	bne.n	3aee <ip4_addr_isbroadcast+0x2e>
    3ade:	43db      	mvns	r3, r3
    3ae0:	4383      	bics	r3, r0
    3ae2:	bf0c      	ite	eq
    3ae4:	2001      	moveq	r0, #1
    3ae6:	2000      	movne	r0, #0
    3ae8:	4770      	bx	lr
    3aea:	2001      	movs	r0, #1
    3aec:	4770      	bx	lr
    3aee:	2000      	movs	r0, #0
    3af0:	4770      	bx	lr
	...

00003af4 <ipaddr_aton>:
    3af4:	e92d 41ff 	stmdb	sp!, {r0, r1, r2, r3, r4, r5, r6, r7, r8, lr}
    3af8:	7803      	ldrb	r3, [r0, #0]
    3afa:	460c      	mov	r4, r1
    3afc:	466a      	mov	r2, sp
    3afe:	466f      	mov	r7, sp
    3b00:	f10d 0e0c 	add.w	lr, sp, #12
    3b04:	f1a3 0130 	sub.w	r1, r3, #48	; 0x30
    3b08:	2909      	cmp	r1, #9
    3b0a:	d86f      	bhi.n	3bec <ipaddr_aton+0xf8>
    3b0c:	2b30      	cmp	r3, #48	; 0x30
    3b0e:	d118      	bne.n	3b42 <ipaddr_aton+0x4e>
    3b10:	7843      	ldrb	r3, [r0, #1]
    3b12:	f003 01df 	and.w	r1, r3, #223	; 0xdf
    3b16:	2958      	cmp	r1, #88	; 0x58
    3b18:	bf0d      	iteet	eq
    3b1a:	7883      	ldrbeq	r3, [r0, #2]
    3b1c:	3001      	addne	r0, #1
    3b1e:	2608      	movne	r6, #8
    3b20:	3002      	addeq	r0, #2
    3b22:	bf08      	it	eq
    3b24:	2610      	moveq	r6, #16
    3b26:	1c45      	adds	r5, r0, #1
    3b28:	2000      	movs	r0, #0
    3b2a:	f1a3 0130 	sub.w	r1, r3, #48	; 0x30
    3b2e:	2909      	cmp	r1, #9
    3b30:	f105 38ff 	add.w	r8, r5, #4294967295
    3b34:	d807      	bhi.n	3b46 <ipaddr_aton+0x52>
    3b36:	fb00 3006 	mla	r0, r0, r6, r3
    3b3a:	3830      	subs	r0, #48	; 0x30
    3b3c:	782b      	ldrb	r3, [r5, #0]
    3b3e:	3501      	adds	r5, #1
    3b40:	e7f3      	b.n	3b2a <ipaddr_aton+0x36>
    3b42:	260a      	movs	r6, #10
    3b44:	e7ef      	b.n	3b26 <ipaddr_aton+0x32>
    3b46:	2e10      	cmp	r6, #16
    3b48:	d114      	bne.n	3b74 <ipaddr_aton+0x80>
    3b4a:	f023 0120 	bic.w	r1, r3, #32
    3b4e:	3941      	subs	r1, #65	; 0x41
    3b50:	b2c9      	uxtb	r1, r1
    3b52:	f1a3 0c61 	sub.w	ip, r3, #97	; 0x61
    3b56:	2905      	cmp	r1, #5
    3b58:	fa5f fc8c 	uxtb.w	ip, ip
    3b5c:	d80a      	bhi.n	3b74 <ipaddr_aton+0x80>
    3b5e:	f1bc 0f1a 	cmp.w	ip, #26
    3b62:	f103 030a 	add.w	r3, r3, #10
    3b66:	bf34      	ite	cc
    3b68:	2161      	movcc	r1, #97	; 0x61
    3b6a:	2141      	movcs	r1, #65	; 0x41
    3b6c:	1a5b      	subs	r3, r3, r1
    3b6e:	ea43 1000 	orr.w	r0, r3, r0, lsl #4
    3b72:	e7e3      	b.n	3b3c <ipaddr_aton+0x48>
    3b74:	2b2e      	cmp	r3, #46	; 0x2e
    3b76:	d108      	bne.n	3b8a <ipaddr_aton+0x96>
    3b78:	4572      	cmp	r2, lr
    3b7a:	d037      	beq.n	3bec <ipaddr_aton+0xf8>
    3b7c:	f842 0b04 	str.w	r0, [r2], #4
    3b80:	f898 3001 	ldrb.w	r3, [r8, #1]
    3b84:	f108 0001 	add.w	r0, r8, #1
    3b88:	e7bc      	b.n	3b04 <ipaddr_aton+0x10>
    3b8a:	f013 0fdf 	tst.w	r3, #223	; 0xdf
    3b8e:	d002      	beq.n	3b96 <ipaddr_aton+0xa2>
    3b90:	3b09      	subs	r3, #9
    3b92:	2b04      	cmp	r3, #4
    3b94:	d82a      	bhi.n	3bec <ipaddr_aton+0xf8>
    3b96:	1bd2      	subs	r2, r2, r7
    3b98:	1092      	asrs	r2, r2, #2
    3b9a:	3201      	adds	r2, #1
    3b9c:	2a04      	cmp	r2, #4
    3b9e:	d80a      	bhi.n	3bb6 <ipaddr_aton+0xc2>
    3ba0:	e8df f002 	tbb	[pc, r2]
    3ba4:	0f030925 	.word	0x0f030925
    3ba8:	19          	.byte	0x19
    3ba9:	00          	.byte	0x00
    3baa:	f1b0 7f80 	cmp.w	r0, #16777216	; 0x1000000
    3bae:	d21d      	bcs.n	3bec <ipaddr_aton+0xf8>
    3bb0:	9b00      	ldr	r3, [sp, #0]
    3bb2:	ea40 6003 	orr.w	r0, r0, r3, lsl #24
    3bb6:	b114      	cbz	r4, 3bbe <ipaddr_aton+0xca>
    3bb8:	4b0f      	ldr	r3, [pc, #60]	; (3bf8 <ipaddr_aton+0x104>)
    3bba:	4798      	blx	r3
    3bbc:	6020      	str	r0, [r4, #0]
    3bbe:	2201      	movs	r2, #1
    3bc0:	e015      	b.n	3bee <ipaddr_aton+0xfa>
    3bc2:	f5b0 3f80 	cmp.w	r0, #65536	; 0x10000
    3bc6:	d211      	bcs.n	3bec <ipaddr_aton+0xf8>
    3bc8:	9b01      	ldr	r3, [sp, #4]
    3bca:	9a00      	ldr	r2, [sp, #0]
    3bcc:	041b      	lsls	r3, r3, #16
    3bce:	ea43 6302 	orr.w	r3, r3, r2, lsl #24
    3bd2:	4318      	orrs	r0, r3
    3bd4:	e7ef      	b.n	3bb6 <ipaddr_aton+0xc2>
    3bd6:	28ff      	cmp	r0, #255	; 0xff
    3bd8:	d808      	bhi.n	3bec <ipaddr_aton+0xf8>
    3bda:	9b01      	ldr	r3, [sp, #4]
    3bdc:	9a00      	ldr	r2, [sp, #0]
    3bde:	041b      	lsls	r3, r3, #16
    3be0:	ea43 6302 	orr.w	r3, r3, r2, lsl #24
    3be4:	9a02      	ldr	r2, [sp, #8]
    3be6:	ea43 2302 	orr.w	r3, r3, r2, lsl #8
    3bea:	e7f2      	b.n	3bd2 <ipaddr_aton+0xde>
    3bec:	2200      	movs	r2, #0
    3bee:	4610      	mov	r0, r2
    3bf0:	b004      	add	sp, #16
    3bf2:	e8bd 81f0 	ldmia.w	sp!, {r4, r5, r6, r7, r8, pc}
    3bf6:	bf00      	nop
    3bf8:	00003431 	.word	0x00003431

00003bfc <ipaddr_ntoa_r>:
    3bfc:	e92d 47f3 	stmdb	sp!, {r0, r1, r4, r5, r6, r7, r8, r9, sl, lr}
    3c00:	6803      	ldr	r3, [r0, #0]
    3c02:	9301      	str	r3, [sp, #4]
    3c04:	f10d 0003 	add.w	r0, sp, #3
    3c08:	f10d 0c07 	add.w	ip, sp, #7
    3c0c:	460f      	mov	r7, r1
    3c0e:	2500      	movs	r5, #0
    3c10:	f04f 0e0a 	mov.w	lr, #10
    3c14:	f04f 082e 	mov.w	r8, #46	; 0x2e
    3c18:	7844      	ldrb	r4, [r0, #1]
    3c1a:	2300      	movs	r3, #0
    3c1c:	f10d 0a08 	add.w	sl, sp, #8
    3c20:	fbb4 f6fe 	udiv	r6, r4, lr
    3c24:	449a      	add	sl, r3
    3c26:	fb0e 4416 	mls	r4, lr, r6, r4
    3c2a:	3430      	adds	r4, #48	; 0x30
    3c2c:	f103 0901 	add.w	r9, r3, #1
    3c30:	f80a 4c08 	strb.w	r4, [sl, #-8]
    3c34:	f016 04ff 	ands.w	r4, r6, #255	; 0xff
    3c38:	fa5f f989 	uxtb.w	r9, r9
    3c3c:	d117      	bne.n	3c6e <ipaddr_ntoa_r+0x72>
    3c3e:	f800 4f01 	strb.w	r4, [r0, #1]!
    3c42:	1bed      	subs	r5, r5, r7
    3c44:	463c      	mov	r4, r7
    3c46:	2bff      	cmp	r3, #255	; 0xff
    3c48:	eb04 0605 	add.w	r6, r4, r5
    3c4c:	d111      	bne.n	3c72 <ipaddr_ntoa_r+0x76>
    3c4e:	4296      	cmp	r6, r2
    3c50:	f106 0501 	add.w	r5, r6, #1
    3c54:	da19      	bge.n	3c8a <ipaddr_ntoa_r+0x8e>
    3c56:	4560      	cmp	r0, ip
    3c58:	f104 0701 	add.w	r7, r4, #1
    3c5c:	f884 8000 	strb.w	r8, [r4]
    3c60:	d1da      	bne.n	3c18 <ipaddr_ntoa_r+0x1c>
    3c62:	2300      	movs	r3, #0
    3c64:	7023      	strb	r3, [r4, #0]
    3c66:	4608      	mov	r0, r1
    3c68:	b002      	add	sp, #8
    3c6a:	e8bd 87f0 	ldmia.w	sp!, {r4, r5, r6, r7, r8, r9, sl, pc}
    3c6e:	464b      	mov	r3, r9
    3c70:	e7d4      	b.n	3c1c <ipaddr_ntoa_r+0x20>
    3c72:	1e5f      	subs	r7, r3, #1
    3c74:	4296      	cmp	r6, r2
    3c76:	b2ff      	uxtb	r7, r7
    3c78:	da07      	bge.n	3c8a <ipaddr_ntoa_r+0x8e>
    3c7a:	ae02      	add	r6, sp, #8
    3c7c:	4433      	add	r3, r6
    3c7e:	f813 3c08 	ldrb.w	r3, [r3, #-8]
    3c82:	f804 3b01 	strb.w	r3, [r4], #1
    3c86:	463b      	mov	r3, r7
    3c88:	e7dd      	b.n	3c46 <ipaddr_ntoa_r+0x4a>
    3c8a:	2000      	movs	r0, #0
    3c8c:	e7ec      	b.n	3c68 <ipaddr_ntoa_r+0x6c>
	...

00003c90 <ipfrag_free_pbuf_custom>:
    3c90:	b510      	push	{r4, lr}
    3c92:	4604      	mov	r4, r0
    3c94:	6940      	ldr	r0, [r0, #20]
    3c96:	b108      	cbz	r0, 3c9c <ipfrag_free_pbuf_custom+0xc>
    3c98:	4b03      	ldr	r3, [pc, #12]	; (3ca8 <ipfrag_free_pbuf_custom+0x18>)
    3c9a:	4798      	blx	r3
    3c9c:	4621      	mov	r1, r4
    3c9e:	2005      	movs	r0, #5
    3ca0:	4b02      	ldr	r3, [pc, #8]	; (3cac <ipfrag_free_pbuf_custom+0x1c>)
    3ca2:	e8bd 4010 	ldmia.w	sp!, {r4, lr}
    3ca6:	4718      	bx	r3
    3ca8:	00004785 	.word	0x00004785
    3cac:	00004559 	.word	0x00004559

00003cb0 <ip_reass_free_complete_datagram>:
    3cb0:	e92d 47f0 	stmdb	sp!, {r4, r5, r6, r7, r8, r9, sl, lr}
    3cb4:	6846      	ldr	r6, [r0, #4]
    3cb6:	6873      	ldr	r3, [r6, #4]
    3cb8:	889a      	ldrh	r2, [r3, #4]
    3cba:	4604      	mov	r4, r0
    3cbc:	460f      	mov	r7, r1
    3cbe:	2a00      	cmp	r2, #0
    3cc0:	d12d      	bne.n	3d1e <ip_reass_free_complete_datagram+0x6e>
    3cc2:	681a      	ldr	r2, [r3, #0]
    3cc4:	6042      	str	r2, [r0, #4]
    3cc6:	f100 011c 	add.w	r1, r0, #28
    3cca:	f100 0208 	add.w	r2, r0, #8
    3cce:	f852 0b04 	ldr.w	r0, [r2], #4
    3cd2:	f843 0b04 	str.w	r0, [r3], #4
    3cd6:	428a      	cmp	r2, r1
    3cd8:	d1f9      	bne.n	3cce <ip_reass_free_complete_datagram+0x1e>
    3cda:	2101      	movs	r1, #1
    3cdc:	4630      	mov	r0, r6
    3cde:	4b16      	ldr	r3, [pc, #88]	; (3d38 <ip_reass_free_complete_datagram+0x88>)
    3ce0:	4798      	blx	r3
    3ce2:	4b16      	ldr	r3, [pc, #88]	; (3d3c <ip_reass_free_complete_datagram+0x8c>)
    3ce4:	4630      	mov	r0, r6
    3ce6:	4798      	blx	r3
    3ce8:	4b15      	ldr	r3, [pc, #84]	; (3d40 <ip_reass_free_complete_datagram+0x90>)
    3cea:	b285      	uxth	r5, r0
    3cec:	4630      	mov	r0, r6
    3cee:	4798      	blx	r3
    3cf0:	6866      	ldr	r6, [r4, #4]
    3cf2:	f8df 8048 	ldr.w	r8, [pc, #72]	; 3d3c <ip_reass_free_complete_datagram+0x8c>
    3cf6:	f8df 9048 	ldr.w	r9, [pc, #72]	; 3d40 <ip_reass_free_complete_datagram+0x90>
    3cfa:	b996      	cbnz	r6, 3d22 <ip_reass_free_complete_datagram+0x72>
    3cfc:	4e11      	ldr	r6, [pc, #68]	; (3d44 <ip_reass_free_complete_datagram+0x94>)
    3cfe:	6833      	ldr	r3, [r6, #0]
    3d00:	429c      	cmp	r4, r3
    3d02:	6823      	ldr	r3, [r4, #0]
    3d04:	bf0c      	ite	eq
    3d06:	6033      	streq	r3, [r6, #0]
    3d08:	603b      	strne	r3, [r7, #0]
    3d0a:	4621      	mov	r1, r4
    3d0c:	2004      	movs	r0, #4
    3d0e:	4b0e      	ldr	r3, [pc, #56]	; (3d48 <ip_reass_free_complete_datagram+0x98>)
    3d10:	4798      	blx	r3
    3d12:	88b3      	ldrh	r3, [r6, #4]
    3d14:	1b5b      	subs	r3, r3, r5
    3d16:	80b3      	strh	r3, [r6, #4]
    3d18:	4628      	mov	r0, r5
    3d1a:	e8bd 87f0 	ldmia.w	sp!, {r4, r5, r6, r7, r8, r9, sl, pc}
    3d1e:	2500      	movs	r5, #0
    3d20:	e7e6      	b.n	3cf0 <ip_reass_free_complete_datagram+0x40>
    3d22:	6873      	ldr	r3, [r6, #4]
    3d24:	4630      	mov	r0, r6
    3d26:	f8d3 a000 	ldr.w	sl, [r3]
    3d2a:	47c0      	blx	r8
    3d2c:	4405      	add	r5, r0
    3d2e:	4630      	mov	r0, r6
    3d30:	b2ad      	uxth	r5, r5
    3d32:	47c8      	blx	r9
    3d34:	4656      	mov	r6, sl
    3d36:	e7e0      	b.n	3cfa <ip_reass_free_complete_datagram+0x4a>
    3d38:	00003665 	.word	0x00003665
    3d3c:	00004949 	.word	0x00004949
    3d40:	00004785 	.word	0x00004785
    3d44:	200015ec 	.word	0x200015ec
    3d48:	00004559 	.word	0x00004559

00003d4c <ip_reass_remove_oldest_datagram>:
    3d4c:	e92d 43f8 	stmdb	sp!, {r3, r4, r5, r6, r7, r8, r9, lr}
    3d50:	f8df 8068 	ldr.w	r8, [pc, #104]	; 3dbc <ip_reass_remove_oldest_datagram+0x70>
    3d54:	f8df 9068 	ldr.w	r9, [pc, #104]	; 3dc0 <ip_reass_remove_oldest_datagram+0x74>
    3d58:	4606      	mov	r6, r0
    3d5a:	460f      	mov	r7, r1
    3d5c:	2500      	movs	r5, #0
    3d5e:	2400      	movs	r4, #0
    3d60:	f8d8 3000 	ldr.w	r3, [r8]
    3d64:	4621      	mov	r1, r4
    3d66:	4620      	mov	r0, r4
    3d68:	b94b      	cbnz	r3, 3d7e <ip_reass_remove_oldest_datagram+0x32>
    3d6a:	b108      	cbz	r0, 3d70 <ip_reass_remove_oldest_datagram+0x24>
    3d6c:	47c8      	blx	r9
    3d6e:	4405      	add	r5, r0
    3d70:	42bd      	cmp	r5, r7
    3d72:	da01      	bge.n	3d78 <ip_reass_remove_oldest_datagram+0x2c>
    3d74:	2c01      	cmp	r4, #1
    3d76:	dcf2      	bgt.n	3d5e <ip_reass_remove_oldest_datagram+0x12>
    3d78:	4628      	mov	r0, r5
    3d7a:	e8bd 83f8 	ldmia.w	sp!, {r3, r4, r5, r6, r7, r8, r9, pc}
    3d7e:	f8d6 e00c 	ldr.w	lr, [r6, #12]
    3d82:	695a      	ldr	r2, [r3, #20]
    3d84:	4572      	cmp	r2, lr
    3d86:	d109      	bne.n	3d9c <ip_reass_remove_oldest_datagram+0x50>
    3d88:	f8d6 e010 	ldr.w	lr, [r6, #16]
    3d8c:	699a      	ldr	r2, [r3, #24]
    3d8e:	4572      	cmp	r2, lr
    3d90:	d104      	bne.n	3d9c <ip_reass_remove_oldest_datagram+0x50>
    3d92:	f8b3 e00c 	ldrh.w	lr, [r3, #12]
    3d96:	88b2      	ldrh	r2, [r6, #4]
    3d98:	4596      	cmp	lr, r2
    3d9a:	d007      	beq.n	3dac <ip_reass_remove_oldest_datagram+0x60>
    3d9c:	3401      	adds	r4, #1
    3d9e:	b158      	cbz	r0, 3db8 <ip_reass_remove_oldest_datagram+0x6c>
    3da0:	f893 e01f 	ldrb.w	lr, [r3, #31]
    3da4:	7fc2      	ldrb	r2, [r0, #31]
    3da6:	4596      	cmp	lr, r2
    3da8:	bf98      	it	ls
    3daa:	4618      	movls	r0, r3
    3dac:	681a      	ldr	r2, [r3, #0]
    3dae:	2a00      	cmp	r2, #0
    3db0:	bf18      	it	ne
    3db2:	4619      	movne	r1, r3
    3db4:	4613      	mov	r3, r2
    3db6:	e7d7      	b.n	3d68 <ip_reass_remove_oldest_datagram+0x1c>
    3db8:	4618      	mov	r0, r3
    3dba:	e7f7      	b.n	3dac <ip_reass_remove_oldest_datagram+0x60>
    3dbc:	200015ec 	.word	0x200015ec
    3dc0:	00003cb1 	.word	0x00003cb1

00003dc4 <ip_reass_tmr>:
    3dc4:	4b08      	ldr	r3, [pc, #32]	; (3de8 <ip_reass_tmr+0x24>)
    3dc6:	b570      	push	{r4, r5, r6, lr}
    3dc8:	6818      	ldr	r0, [r3, #0]
    3dca:	4e08      	ldr	r6, [pc, #32]	; (3dec <ip_reass_tmr+0x28>)
    3dcc:	2400      	movs	r4, #0
    3dce:	b900      	cbnz	r0, 3dd2 <ip_reass_tmr+0xe>
    3dd0:	bd70      	pop	{r4, r5, r6, pc}
    3dd2:	7fc3      	ldrb	r3, [r0, #31]
    3dd4:	6805      	ldr	r5, [r0, #0]
    3dd6:	b123      	cbz	r3, 3de2 <ip_reass_tmr+0x1e>
    3dd8:	3b01      	subs	r3, #1
    3dda:	77c3      	strb	r3, [r0, #31]
    3ddc:	4604      	mov	r4, r0
    3dde:	4628      	mov	r0, r5
    3de0:	e7f5      	b.n	3dce <ip_reass_tmr+0xa>
    3de2:	4621      	mov	r1, r4
    3de4:	47b0      	blx	r6
    3de6:	e7fa      	b.n	3dde <ip_reass_tmr+0x1a>
    3de8:	200015ec 	.word	0x200015ec
    3dec:	00003cb1 	.word	0x00003cb1

00003df0 <ip_reass>:
    3df0:	e92d 4ff0 	stmdb	sp!, {r4, r5, r6, r7, r8, r9, sl, fp, lr}
    3df4:	6844      	ldr	r4, [r0, #4]
    3df6:	7823      	ldrb	r3, [r4, #0]
    3df8:	f003 030f 	and.w	r3, r3, #15
    3dfc:	2b05      	cmp	r3, #5
    3dfe:	b085      	sub	sp, #20
    3e00:	4605      	mov	r5, r0
    3e02:	f040 808e 	bne.w	3f22 <ip_reass+0x132>
    3e06:	4ea8      	ldr	r6, [pc, #672]	; (40a8 <ip_reass+0x2b8>)
    3e08:	88e0      	ldrh	r0, [r4, #6]
    3e0a:	4fa8      	ldr	r7, [pc, #672]	; (40ac <ip_reass+0x2bc>)
    3e0c:	47b0      	blx	r6
    3e0e:	9001      	str	r0, [sp, #4]
    3e10:	8860      	ldrh	r0, [r4, #2]
    3e12:	47b0      	blx	r6
    3e14:	7823      	ldrb	r3, [r4, #0]
    3e16:	9002      	str	r0, [sp, #8]
    3e18:	4628      	mov	r0, r5
    3e1a:	9303      	str	r3, [sp, #12]
    3e1c:	47b8      	blx	r7
    3e1e:	4aa4      	ldr	r2, [pc, #656]	; (40b0 <ip_reass+0x2c0>)
    3e20:	9700      	str	r7, [sp, #0]
    3e22:	8893      	ldrh	r3, [r2, #4]
    3e24:	4403      	add	r3, r0
    3e26:	2b0a      	cmp	r3, #10
    3e28:	4680      	mov	r8, r0
    3e2a:	4617      	mov	r7, r2
    3e2c:	dc70      	bgt.n	3f10 <ip_reass+0x120>
    3e2e:	f8d7 9000 	ldr.w	r9, [r7]
    3e32:	f04f 0a00 	mov.w	sl, #0
    3e36:	f1b9 0f00 	cmp.w	r9, #0
    3e3a:	d177      	bne.n	3f2c <ip_reass+0x13c>
    3e3c:	2004      	movs	r0, #4
    3e3e:	f8df b290 	ldr.w	fp, [pc, #656]	; 40d0 <ip_reass+0x2e0>
    3e42:	47d8      	blx	fp
    3e44:	4681      	mov	r9, r0
    3e46:	b950      	cbnz	r0, 3e5e <ip_reass+0x6e>
    3e48:	4641      	mov	r1, r8
    3e4a:	4620      	mov	r0, r4
    3e4c:	4b99      	ldr	r3, [pc, #612]	; (40b4 <ip_reass+0x2c4>)
    3e4e:	4798      	blx	r3
    3e50:	4580      	cmp	r8, r0
    3e52:	dc66      	bgt.n	3f22 <ip_reass+0x132>
    3e54:	2004      	movs	r0, #4
    3e56:	47d8      	blx	fp
    3e58:	4681      	mov	r9, r0
    3e5a:	2800      	cmp	r0, #0
    3e5c:	d061      	beq.n	3f22 <ip_reass+0x132>
    3e5e:	2220      	movs	r2, #32
    3e60:	2100      	movs	r1, #0
    3e62:	4648      	mov	r0, r9
    3e64:	4b94      	ldr	r3, [pc, #592]	; (40b8 <ip_reass+0x2c8>)
    3e66:	4798      	blx	r3
    3e68:	2203      	movs	r2, #3
    3e6a:	f889 201f 	strb.w	r2, [r9, #31]
    3e6e:	683a      	ldr	r2, [r7, #0]
    3e70:	f8c9 2000 	str.w	r2, [r9]
    3e74:	f8c7 9000 	str.w	r9, [r7]
    3e78:	4622      	mov	r2, r4
    3e7a:	f109 0108 	add.w	r1, r9, #8
    3e7e:	f104 0014 	add.w	r0, r4, #20
    3e82:	f852 7b04 	ldr.w	r7, [r2], #4
    3e86:	f841 7b04 	str.w	r7, [r1], #4
    3e8a:	4282      	cmp	r2, r0
    3e8c:	d1f9      	bne.n	3e82 <ip_reass+0x92>
    3e8e:	4a88      	ldr	r2, [pc, #544]	; (40b0 <ip_reass+0x2c0>)
    3e90:	8891      	ldrh	r1, [r2, #4]
    3e92:	4488      	add	r8, r1
    3e94:	f8a2 8004 	strh.w	r8, [r2, #4]
    3e98:	88e1      	ldrh	r1, [r4, #6]
    3e9a:	f011 0f20 	tst.w	r1, #32
    3e9e:	4614      	mov	r4, r2
    3ea0:	d110      	bne.n	3ec4 <ip_reass+0xd4>
    3ea2:	f899 201e 	ldrb.w	r2, [r9, #30]
    3ea6:	9b03      	ldr	r3, [sp, #12]
    3ea8:	f042 0201 	orr.w	r2, r2, #1
    3eac:	f889 201e 	strb.w	r2, [r9, #30]
    3eb0:	f003 020f 	and.w	r2, r3, #15
    3eb4:	9b02      	ldr	r3, [sp, #8]
    3eb6:	eba3 0282 	sub.w	r2, r3, r2, lsl #2
    3eba:	9b01      	ldr	r3, [sp, #4]
    3ebc:	eb02 02c3 	add.w	r2, r2, r3, lsl #3
    3ec0:	f8a9 201c 	strh.w	r2, [r9, #28]
    3ec4:	f8d5 8004 	ldr.w	r8, [r5, #4]
    3ec8:	f8b8 0002 	ldrh.w	r0, [r8, #2]
    3ecc:	47b0      	blx	r6
    3ece:	f898 7000 	ldrb.w	r7, [r8]
    3ed2:	f007 070f 	and.w	r7, r7, #15
    3ed6:	eba0 0787 	sub.w	r7, r0, r7, lsl #2
    3eda:	f8b8 0006 	ldrh.w	r0, [r8, #6]
    3ede:	47b0      	blx	r6
    3ee0:	f3c0 000c 	ubfx	r0, r0, #0, #13
    3ee4:	00c0      	lsls	r0, r0, #3
    3ee6:	b2bf      	uxth	r7, r7
    3ee8:	6869      	ldr	r1, [r5, #4]
    3eea:	f8d9 6004 	ldr.w	r6, [r9, #4]
    3eee:	8088      	strh	r0, [r1, #4]
    3ef0:	4407      	add	r7, r0
    3ef2:	2200      	movs	r2, #0
    3ef4:	b2bf      	uxth	r7, r7
    3ef6:	700a      	strb	r2, [r1, #0]
    3ef8:	704a      	strb	r2, [r1, #1]
    3efa:	708a      	strb	r2, [r1, #2]
    3efc:	70ca      	strb	r2, [r1, #3]
    3efe:	80cf      	strh	r7, [r1, #6]
    3f00:	2301      	movs	r3, #1
    3f02:	bb3e      	cbnz	r6, 3f54 <ip_reass+0x164>
    3f04:	2a00      	cmp	r2, #0
    3f06:	f040 8091 	bne.w	402c <ip_reass+0x23c>
    3f0a:	f8c9 5004 	str.w	r5, [r9, #4]
    3f0e:	e030      	b.n	3f72 <ip_reass+0x182>
    3f10:	4601      	mov	r1, r0
    3f12:	4b68      	ldr	r3, [pc, #416]	; (40b4 <ip_reass+0x2c4>)
    3f14:	4620      	mov	r0, r4
    3f16:	4798      	blx	r3
    3f18:	b118      	cbz	r0, 3f22 <ip_reass+0x132>
    3f1a:	88bb      	ldrh	r3, [r7, #4]
    3f1c:	4443      	add	r3, r8
    3f1e:	2b0a      	cmp	r3, #10
    3f20:	dd85      	ble.n	3e2e <ip_reass+0x3e>
    3f22:	4628      	mov	r0, r5
    3f24:	4b65      	ldr	r3, [pc, #404]	; (40bc <ip_reass+0x2cc>)
    3f26:	4798      	blx	r3
    3f28:	2500      	movs	r5, #0
    3f2a:	e06d      	b.n	4008 <ip_reass+0x218>
    3f2c:	68e2      	ldr	r2, [r4, #12]
    3f2e:	f8d9 1014 	ldr.w	r1, [r9, #20]
    3f32:	4291      	cmp	r1, r2
    3f34:	d10a      	bne.n	3f4c <ip_reass+0x15c>
    3f36:	6922      	ldr	r2, [r4, #16]
    3f38:	f8d9 1018 	ldr.w	r1, [r9, #24]
    3f3c:	4291      	cmp	r1, r2
    3f3e:	d105      	bne.n	3f4c <ip_reass+0x15c>
    3f40:	f8b9 100c 	ldrh.w	r1, [r9, #12]
    3f44:	88a2      	ldrh	r2, [r4, #4]
    3f46:	4291      	cmp	r1, r2
    3f48:	f000 8092 	beq.w	4070 <ip_reass+0x280>
    3f4c:	46ca      	mov	sl, r9
    3f4e:	f8d9 9000 	ldr.w	r9, [r9]
    3f52:	e770      	b.n	3e36 <ip_reass+0x46>
    3f54:	f8d6 c004 	ldr.w	ip, [r6, #4]
    3f58:	f8bc 8004 	ldrh.w	r8, [ip, #4]
    3f5c:	4540      	cmp	r0, r8
    3f5e:	d257      	bcs.n	4010 <ip_reass+0x220>
    3f60:	600e      	str	r6, [r1, #0]
    3f62:	2a00      	cmp	r2, #0
    3f64:	d0d1      	beq.n	3f0a <ip_reass+0x11a>
    3f66:	88d6      	ldrh	r6, [r2, #6]
    3f68:	4286      	cmp	r6, r0
    3f6a:	d86e      	bhi.n	404a <ip_reass+0x25a>
    3f6c:	4547      	cmp	r7, r8
    3f6e:	d86c      	bhi.n	404a <ip_reass+0x25a>
    3f70:	6015      	str	r5, [r2, #0]
    3f72:	f899 201e 	ldrb.w	r2, [r9, #30]
    3f76:	f012 0501 	ands.w	r5, r2, #1
    3f7a:	d045      	beq.n	4008 <ip_reass+0x218>
    3f7c:	2b00      	cmp	r3, #0
    3f7e:	d0d3      	beq.n	3f28 <ip_reass+0x138>
    3f80:	f8d9 2004 	ldr.w	r2, [r9, #4]
    3f84:	6855      	ldr	r5, [r2, #4]
    3f86:	88aa      	ldrh	r2, [r5, #4]
    3f88:	2a00      	cmp	r2, #0
    3f8a:	d1cd      	bne.n	3f28 <ip_reass+0x138>
    3f8c:	680a      	ldr	r2, [r1, #0]
    3f8e:	2a00      	cmp	r2, #0
    3f90:	d152      	bne.n	4038 <ip_reass+0x248>
    3f92:	f8b9 201c 	ldrh.w	r2, [r9, #28]
    3f96:	682e      	ldr	r6, [r5, #0]
    3f98:	3214      	adds	r2, #20
    3f9a:	f8a9 201c 	strh.w	r2, [r9, #28]
    3f9e:	4629      	mov	r1, r5
    3fa0:	f109 0208 	add.w	r2, r9, #8
    3fa4:	f109 001c 	add.w	r0, r9, #28
    3fa8:	f852 7b04 	ldr.w	r7, [r2], #4
    3fac:	f841 7b04 	str.w	r7, [r1], #4
    3fb0:	4282      	cmp	r2, r0
    3fb2:	d1f9      	bne.n	3fa8 <ip_reass+0x1b8>
    3fb4:	4a42      	ldr	r2, [pc, #264]	; (40c0 <ip_reass+0x2d0>)
    3fb6:	f8b9 001c 	ldrh.w	r0, [r9, #28]
    3fba:	4f42      	ldr	r7, [pc, #264]	; (40c4 <ip_reass+0x2d4>)
    3fbc:	f8df 8114 	ldr.w	r8, [pc, #276]	; 40d4 <ip_reass+0x2e4>
    3fc0:	4790      	blx	r2
    3fc2:	2200      	movs	r2, #0
    3fc4:	8068      	strh	r0, [r5, #2]
    3fc6:	71aa      	strb	r2, [r5, #6]
    3fc8:	71ea      	strb	r2, [r5, #7]
    3fca:	72aa      	strb	r2, [r5, #10]
    3fcc:	72ea      	strb	r2, [r5, #11]
    3fce:	4628      	mov	r0, r5
    3fd0:	2114      	movs	r1, #20
    3fd2:	4a3d      	ldr	r2, [pc, #244]	; (40c8 <ip_reass+0x2d8>)
    3fd4:	4790      	blx	r2
    3fd6:	8168      	strh	r0, [r5, #10]
    3fd8:	f8d9 5004 	ldr.w	r5, [r9, #4]
    3fdc:	2e00      	cmp	r6, #0
    3fde:	d13b      	bne.n	4058 <ip_reass+0x268>
    3fe0:	6822      	ldr	r2, [r4, #0]
    3fe2:	4b3a      	ldr	r3, [pc, #232]	; (40cc <ip_reass+0x2dc>)
    3fe4:	4591      	cmp	r9, r2
    3fe6:	f8d9 2000 	ldr.w	r2, [r9]
    3fea:	bf18      	it	ne
    3fec:	f8ca 2000 	strne.w	r2, [sl]
    3ff0:	4649      	mov	r1, r9
    3ff2:	f04f 0004 	mov.w	r0, #4
    3ff6:	bf08      	it	eq
    3ff8:	6022      	streq	r2, [r4, #0]
    3ffa:	4798      	blx	r3
    3ffc:	9b00      	ldr	r3, [sp, #0]
    3ffe:	4628      	mov	r0, r5
    4000:	4798      	blx	r3
    4002:	88a3      	ldrh	r3, [r4, #4]
    4004:	1a18      	subs	r0, r3, r0
    4006:	80a0      	strh	r0, [r4, #4]
    4008:	4628      	mov	r0, r5
    400a:	b005      	add	sp, #20
    400c:	e8bd 8ff0 	ldmia.w	sp!, {r4, r5, r6, r7, r8, r9, sl, fp, pc}
    4010:	d01b      	beq.n	404a <ip_reass+0x25a>
    4012:	f8bc 6006 	ldrh.w	r6, [ip, #6]
    4016:	4286      	cmp	r6, r0
    4018:	d817      	bhi.n	404a <ip_reass+0x25a>
    401a:	b11a      	cbz	r2, 4024 <ip_reass+0x234>
    401c:	88d2      	ldrh	r2, [r2, #6]
    401e:	4542      	cmp	r2, r8
    4020:	bf18      	it	ne
    4022:	2300      	movne	r3, #0
    4024:	f8dc 6000 	ldr.w	r6, [ip]
    4028:	4662      	mov	r2, ip
    402a:	e76a      	b.n	3f02 <ip_reass+0x112>
    402c:	6015      	str	r5, [r2, #0]
    402e:	88d2      	ldrh	r2, [r2, #6]
    4030:	4282      	cmp	r2, r0
    4032:	bf18      	it	ne
    4034:	2300      	movne	r3, #0
    4036:	e79c      	b.n	3f72 <ip_reass+0x182>
    4038:	6850      	ldr	r0, [r2, #4]
    403a:	88c9      	ldrh	r1, [r1, #6]
    403c:	8882      	ldrh	r2, [r0, #4]
    403e:	4291      	cmp	r1, r2
    4040:	f47f af72 	bne.w	3f28 <ip_reass+0x138>
    4044:	6802      	ldr	r2, [r0, #0]
    4046:	4601      	mov	r1, r0
    4048:	e7a1      	b.n	3f8e <ip_reass+0x19e>
    404a:	9b00      	ldr	r3, [sp, #0]
    404c:	4628      	mov	r0, r5
    404e:	4798      	blx	r3
    4050:	88a3      	ldrh	r3, [r4, #4]
    4052:	1a18      	subs	r0, r3, r0
    4054:	80a0      	strh	r0, [r4, #4]
    4056:	e764      	b.n	3f22 <ip_reass+0x132>
    4058:	f8d6 b004 	ldr.w	fp, [r6, #4]
    405c:	f06f 0113 	mvn.w	r1, #19
    4060:	4630      	mov	r0, r6
    4062:	47b8      	blx	r7
    4064:	4631      	mov	r1, r6
    4066:	4628      	mov	r0, r5
    4068:	47c0      	blx	r8
    406a:	f8db 6000 	ldr.w	r6, [fp]
    406e:	e7b5      	b.n	3fdc <ip_reass+0x1ec>
    4070:	88e0      	ldrh	r0, [r4, #6]
    4072:	47b0      	blx	r6
    4074:	f3c0 000c 	ubfx	r0, r0, #0, #13
    4078:	2800      	cmp	r0, #0
    407a:	f47f af08 	bne.w	3e8e <ip_reass+0x9e>
    407e:	f8b9 000e 	ldrh.w	r0, [r9, #14]
    4082:	47b0      	blx	r6
    4084:	f3c0 000c 	ubfx	r0, r0, #0, #13
    4088:	2800      	cmp	r0, #0
    408a:	f43f af00 	beq.w	3e8e <ip_reass+0x9e>
    408e:	4622      	mov	r2, r4
    4090:	f109 0108 	add.w	r1, r9, #8
    4094:	f104 0014 	add.w	r0, r4, #20
    4098:	f852 7b04 	ldr.w	r7, [r2], #4
    409c:	f841 7b04 	str.w	r7, [r1], #4
    40a0:	4282      	cmp	r2, r0
    40a2:	d1f9      	bne.n	4098 <ip_reass+0x2a8>
    40a4:	e6f3      	b.n	3e8e <ip_reass+0x9e>
    40a6:	bf00      	nop
    40a8:	0000342b 	.word	0x0000342b
    40ac:	00004949 	.word	0x00004949
    40b0:	200015ec 	.word	0x200015ec
    40b4:	00003d4d 	.word	0x00003d4d
    40b8:	0000a8a5 	.word	0x0000a8a5
    40bc:	00004785 	.word	0x00004785
    40c0:	00003425 	.word	0x00003425
    40c4:	0000472b 	.word	0x0000472b
    40c8:	00003765 	.word	0x00003765
    40cc:	00004559 	.word	0x00004559
    40d0:	00004539 	.word	0x00004539
    40d4:	00004963 	.word	0x00004963

000040d8 <ip_frag>:
    40d8:	e92d 4ff0 	stmdb	sp!, {r4, r5, r6, r7, r8, r9, sl, fp, lr}
    40dc:	b08f      	sub	sp, #60	; 0x3c
    40de:	8c8b      	ldrh	r3, [r1, #36]	; 0x24
    40e0:	9308      	str	r3, [sp, #32]
    40e2:	6843      	ldr	r3, [r0, #4]
    40e4:	920c      	str	r2, [sp, #48]	; 0x30
    40e6:	9306      	str	r3, [sp, #24]
    40e8:	9107      	str	r1, [sp, #28]
    40ea:	4605      	mov	r5, r0
    40ec:	88d8      	ldrh	r0, [r3, #6]
    40ee:	4b56      	ldr	r3, [pc, #344]	; (4248 <ip_frag+0x170>)
    40f0:	4798      	blx	r3
    40f2:	892c      	ldrh	r4, [r5, #8]
    40f4:	f3c0 030c 	ubfx	r3, r0, #0, #13
    40f8:	9305      	str	r3, [sp, #20]
    40fa:	3c14      	subs	r4, #20
    40fc:	f400 5300 	and.w	r3, r0, #8192	; 0x2000
    4100:	930a      	str	r3, [sp, #40]	; 0x28
    4102:	b2a3      	uxth	r3, r4
    4104:	9303      	str	r3, [sp, #12]
    4106:	9b08      	ldr	r3, [sp, #32]
    4108:	2208      	movs	r2, #8
    410a:	3b14      	subs	r3, #20
    410c:	fb93 f3f2 	sdiv	r3, r3, r2
    4110:	b29b      	uxth	r3, r3
    4112:	9309      	str	r3, [sp, #36]	; 0x24
    4114:	00db      	lsls	r3, r3, #3
    4116:	b29b      	uxth	r3, r3
    4118:	930b      	str	r3, [sp, #44]	; 0x2c
    411a:	2600      	movs	r6, #0
    411c:	2714      	movs	r7, #20
    411e:	9b03      	ldr	r3, [sp, #12]
    4120:	b91b      	cbnz	r3, 412a <ip_frag+0x52>
    4122:	4618      	mov	r0, r3
    4124:	b00f      	add	sp, #60	; 0x3c
    4126:	e8bd 8ff0 	ldmia.w	sp!, {r4, r5, r6, r7, r8, r9, sl, fp, pc}
    412a:	9b05      	ldr	r3, [sp, #20]
    412c:	9a03      	ldr	r2, [sp, #12]
    412e:	f3c3 0a0c 	ubfx	sl, r3, #0, #13
    4132:	9b0a      	ldr	r3, [sp, #40]	; 0x28
    4134:	ea43 0a0a 	orr.w	sl, r3, sl
    4138:	9b08      	ldr	r3, [sp, #32]
    413a:	3b13      	subs	r3, #19
    413c:	4293      	cmp	r3, r2
    413e:	bfd4      	ite	le
    4140:	9b0b      	ldrle	r3, [sp, #44]	; 0x2c
    4142:	9b03      	ldrgt	r3, [sp, #12]
    4144:	9304      	str	r3, [sp, #16]
    4146:	f04f 0200 	mov.w	r2, #0
    414a:	f04f 0114 	mov.w	r1, #20
    414e:	f04f 0002 	mov.w	r0, #2
    4152:	4b3e      	ldr	r3, [pc, #248]	; (424c <ip_frag+0x174>)
    4154:	bfd8      	it	le
    4156:	f44a 5a00 	orrle.w	sl, sl, #8192	; 0x2000
    415a:	4798      	blx	r3
    415c:	4680      	mov	r8, r0
    415e:	b320      	cbz	r0, 41aa <ip_frag+0xd2>
    4160:	9b06      	ldr	r3, [sp, #24]
    4162:	6842      	ldr	r2, [r0, #4]
    4164:	4619      	mov	r1, r3
    4166:	3114      	adds	r1, #20
    4168:	f853 0b04 	ldr.w	r0, [r3], #4
    416c:	f842 0b04 	str.w	r0, [r2], #4
    4170:	428b      	cmp	r3, r1
    4172:	d1f9      	bne.n	4168 <ip_frag+0x90>
    4174:	686b      	ldr	r3, [r5, #4]
    4176:	f8d8 9004 	ldr.w	r9, [r8, #4]
    417a:	443b      	add	r3, r7
    417c:	606b      	str	r3, [r5, #4]
    417e:	896b      	ldrh	r3, [r5, #10]
    4180:	1bdf      	subs	r7, r3, r7
    4182:	816f      	strh	r7, [r5, #10]
    4184:	9f04      	ldr	r7, [sp, #16]
    4186:	2f00      	cmp	r7, #0
    4188:	d032      	beq.n	41f0 <ip_frag+0x118>
    418a:	896e      	ldrh	r6, [r5, #10]
    418c:	42be      	cmp	r6, r7
    418e:	bf28      	it	cs
    4190:	463e      	movcs	r6, r7
    4192:	b2b6      	uxth	r6, r6
    4194:	b90e      	cbnz	r6, 419a <ip_frag+0xc2>
    4196:	682d      	ldr	r5, [r5, #0]
    4198:	e7f5      	b.n	4186 <ip_frag+0xae>
    419a:	2005      	movs	r0, #5
    419c:	4b2c      	ldr	r3, [pc, #176]	; (4250 <ip_frag+0x178>)
    419e:	4798      	blx	r3
    41a0:	4683      	mov	fp, r0
    41a2:	b928      	cbnz	r0, 41b0 <ip_frag+0xd8>
    41a4:	4640      	mov	r0, r8
    41a6:	4b2b      	ldr	r3, [pc, #172]	; (4254 <ip_frag+0x17c>)
    41a8:	4798      	blx	r3
    41aa:	f04f 30ff 	mov.w	r0, #4294967295
    41ae:	e7b9      	b.n	4124 <ip_frag+0x4c>
    41b0:	9601      	str	r6, [sp, #4]
    41b2:	686b      	ldr	r3, [r5, #4]
    41b4:	9300      	str	r3, [sp, #0]
    41b6:	2202      	movs	r2, #2
    41b8:	4603      	mov	r3, r0
    41ba:	4631      	mov	r1, r6
    41bc:	2003      	movs	r0, #3
    41be:	4c26      	ldr	r4, [pc, #152]	; (4258 <ip_frag+0x180>)
    41c0:	47a0      	blx	r4
    41c2:	b920      	cbnz	r0, 41ce <ip_frag+0xf6>
    41c4:	4659      	mov	r1, fp
    41c6:	2005      	movs	r0, #5
    41c8:	4b24      	ldr	r3, [pc, #144]	; (425c <ip_frag+0x184>)
    41ca:	4798      	blx	r3
    41cc:	e7ea      	b.n	41a4 <ip_frag+0xcc>
    41ce:	900d      	str	r0, [sp, #52]	; 0x34
    41d0:	4b23      	ldr	r3, [pc, #140]	; (4260 <ip_frag+0x188>)
    41d2:	4628      	mov	r0, r5
    41d4:	4798      	blx	r3
    41d6:	1bbf      	subs	r7, r7, r6
    41d8:	4b22      	ldr	r3, [pc, #136]	; (4264 <ip_frag+0x18c>)
    41da:	f8cb 3010 	str.w	r3, [fp, #16]
    41de:	f8cb 5014 	str.w	r5, [fp, #20]
    41e2:	990d      	ldr	r1, [sp, #52]	; 0x34
    41e4:	4b20      	ldr	r3, [pc, #128]	; (4268 <ip_frag+0x190>)
    41e6:	4640      	mov	r0, r8
    41e8:	b2bf      	uxth	r7, r7
    41ea:	4798      	blx	r3
    41ec:	2f00      	cmp	r7, #0
    41ee:	d1d2      	bne.n	4196 <ip_frag+0xbe>
    41f0:	4650      	mov	r0, sl
    41f2:	f8df a07c 	ldr.w	sl, [pc, #124]	; 4270 <ip_frag+0x198>
    41f6:	47d0      	blx	sl
    41f8:	9b04      	ldr	r3, [sp, #16]
    41fa:	f8a9 0006 	strh.w	r0, [r9, #6]
    41fe:	f103 0014 	add.w	r0, r3, #20
    4202:	b280      	uxth	r0, r0
    4204:	47d0      	blx	sl
    4206:	f889 700a 	strb.w	r7, [r9, #10]
    420a:	f8a9 0002 	strh.w	r0, [r9, #2]
    420e:	f889 700b 	strb.w	r7, [r9, #11]
    4212:	2114      	movs	r1, #20
    4214:	4b15      	ldr	r3, [pc, #84]	; (426c <ip_frag+0x194>)
    4216:	4648      	mov	r0, r9
    4218:	4798      	blx	r3
    421a:	9b07      	ldr	r3, [sp, #28]
    421c:	9a0c      	ldr	r2, [sp, #48]	; 0x30
    421e:	f8a9 000a 	strh.w	r0, [r9, #10]
    4222:	695b      	ldr	r3, [r3, #20]
    4224:	9807      	ldr	r0, [sp, #28]
    4226:	4641      	mov	r1, r8
    4228:	4798      	blx	r3
    422a:	4b0a      	ldr	r3, [pc, #40]	; (4254 <ip_frag+0x17c>)
    422c:	4640      	mov	r0, r8
    422e:	4798      	blx	r3
    4230:	9a03      	ldr	r2, [sp, #12]
    4232:	9b04      	ldr	r3, [sp, #16]
    4234:	1ad4      	subs	r4, r2, r3
    4236:	b2a3      	uxth	r3, r4
    4238:	9303      	str	r3, [sp, #12]
    423a:	9a09      	ldr	r2, [sp, #36]	; 0x24
    423c:	9b05      	ldr	r3, [sp, #20]
    423e:	4413      	add	r3, r2
    4240:	b29b      	uxth	r3, r3
    4242:	9305      	str	r3, [sp, #20]
    4244:	4637      	mov	r7, r6
    4246:	e76a      	b.n	411e <ip_frag+0x46>
    4248:	0000342b 	.word	0x0000342b
    424c:	000047dd 	.word	0x000047dd
    4250:	00004539 	.word	0x00004539
    4254:	00004785 	.word	0x00004785
    4258:	000046dd 	.word	0x000046dd
    425c:	00004559 	.word	0x00004559
    4260:	00004959 	.word	0x00004959
    4264:	00003c91 	.word	0x00003c91
    4268:	00004963 	.word	0x00004963
    426c:	00003765 	.word	0x00003765
    4270:	00003425 	.word	0x00003425

00004274 <mem_init>:
    4274:	4b0b      	ldr	r3, [pc, #44]	; (42a4 <mem_init+0x30>)
    4276:	480c      	ldr	r0, [pc, #48]	; (42a8 <mem_init+0x34>)
    4278:	f023 0303 	bic.w	r3, r3, #3
    427c:	b410      	push	{r4}
    427e:	2200      	movs	r2, #0
    4280:	f44f 5460 	mov.w	r4, #14336	; 0x3800
    4284:	711a      	strb	r2, [r3, #4]
    4286:	805a      	strh	r2, [r3, #2]
    4288:	191a      	adds	r2, r3, r4
    428a:	2101      	movs	r1, #1
    428c:	801c      	strh	r4, [r3, #0]
    428e:	7111      	strb	r1, [r2, #4]
    4290:	6003      	str	r3, [r0, #0]
    4292:	6083      	str	r3, [r0, #8]
    4294:	6042      	str	r2, [r0, #4]
    4296:	8014      	strh	r4, [r2, #0]
    4298:	8054      	strh	r4, [r2, #2]
    429a:	300c      	adds	r0, #12
    429c:	4b03      	ldr	r3, [pc, #12]	; (42ac <mem_init+0x38>)
    429e:	f85d 4b04 	ldr.w	r4, [sp], #4
    42a2:	4718      	bx	r3
    42a4:	200129a3 	.word	0x200129a3
    42a8:	200015f4 	.word	0x200015f4
    42ac:	00001c79 	.word	0x00001c79

000042b0 <mem_free>:
    42b0:	b570      	push	{r4, r5, r6, lr}
    42b2:	4605      	mov	r5, r0
    42b4:	2800      	cmp	r0, #0
    42b6:	d041      	beq.n	433c <mem_free+0x8c>
    42b8:	4c21      	ldr	r4, [pc, #132]	; (4340 <mem_free+0x90>)
    42ba:	6823      	ldr	r3, [r4, #0]
    42bc:	4298      	cmp	r0, r3
    42be:	d33d      	bcc.n	433c <mem_free+0x8c>
    42c0:	6863      	ldr	r3, [r4, #4]
    42c2:	4298      	cmp	r0, r3
    42c4:	d23a      	bcs.n	433c <mem_free+0x8c>
    42c6:	2100      	movs	r1, #0
    42c8:	4b1e      	ldr	r3, [pc, #120]	; (4344 <mem_free+0x94>)
    42ca:	f104 000c 	add.w	r0, r4, #12
    42ce:	4798      	blx	r3
    42d0:	2300      	movs	r3, #0
    42d2:	f805 3c04 	strb.w	r3, [r5, #-4]
    42d6:	68a3      	ldr	r3, [r4, #8]
    42d8:	f835 0c08 	ldrh.w	r0, [r5, #-8]
    42dc:	f1a5 0208 	sub.w	r2, r5, #8
    42e0:	429a      	cmp	r2, r3
    42e2:	6823      	ldr	r3, [r4, #0]
    42e4:	bf38      	it	cc
    42e6:	60a2      	strcc	r2, [r4, #8]
    42e8:	1819      	adds	r1, r3, r0
    42ea:	428a      	cmp	r2, r1
    42ec:	d00f      	beq.n	430e <mem_free+0x5e>
    42ee:	790e      	ldrb	r6, [r1, #4]
    42f0:	b96e      	cbnz	r6, 430e <mem_free+0x5e>
    42f2:	6866      	ldr	r6, [r4, #4]
    42f4:	42b1      	cmp	r1, r6
    42f6:	d00a      	beq.n	430e <mem_free+0x5e>
    42f8:	68a6      	ldr	r6, [r4, #8]
    42fa:	42b1      	cmp	r1, r6
    42fc:	5a19      	ldrh	r1, [r3, r0]
    42fe:	f825 1c08 	strh.w	r1, [r5, #-8]
    4302:	5a19      	ldrh	r1, [r3, r0]
    4304:	bf08      	it	eq
    4306:	60a2      	streq	r2, [r4, #8]
    4308:	4419      	add	r1, r3
    430a:	1ad0      	subs	r0, r2, r3
    430c:	8048      	strh	r0, [r1, #2]
    430e:	f835 1c06 	ldrh.w	r1, [r5, #-6]
    4312:	1858      	adds	r0, r3, r1
    4314:	4282      	cmp	r2, r0
    4316:	d00c      	beq.n	4332 <mem_free+0x82>
    4318:	7906      	ldrb	r6, [r0, #4]
    431a:	b956      	cbnz	r6, 4332 <mem_free+0x82>
    431c:	68a6      	ldr	r6, [r4, #8]
    431e:	42b2      	cmp	r2, r6
    4320:	f835 2c08 	ldrh.w	r2, [r5, #-8]
    4324:	525a      	strh	r2, [r3, r1]
    4326:	f835 2c08 	ldrh.w	r2, [r5, #-8]
    432a:	bf08      	it	eq
    432c:	60a0      	streq	r0, [r4, #8]
    432e:	4413      	add	r3, r2
    4330:	8059      	strh	r1, [r3, #2]
    4332:	4805      	ldr	r0, [pc, #20]	; (4348 <mem_free+0x98>)
    4334:	4b05      	ldr	r3, [pc, #20]	; (434c <mem_free+0x9c>)
    4336:	e8bd 4070 	ldmia.w	sp!, {r4, r5, r6, lr}
    433a:	4718      	bx	r3
    433c:	bd70      	pop	{r4, r5, r6, pc}
    433e:	bf00      	nop
    4340:	200015f4 	.word	0x200015f4
    4344:	00001cf9 	.word	0x00001cf9
    4348:	20001600 	.word	0x20001600
    434c:	00001cd9 	.word	0x00001cd9

00004350 <mem_trim>:
    4350:	e92d 41f0 	stmdb	sp!, {r4, r5, r6, r7, r8, lr}
    4354:	3103      	adds	r1, #3
    4356:	f64f 74fc 	movw	r4, #65532	; 0xfffc
    435a:	400c      	ands	r4, r1
    435c:	2c0b      	cmp	r4, #11
    435e:	4605      	mov	r5, r0
    4360:	d904      	bls.n	436c <mem_trim+0x1c>
    4362:	f5b4 5f60 	cmp.w	r4, #14336	; 0x3800
    4366:	d902      	bls.n	436e <mem_trim+0x1e>
    4368:	2500      	movs	r5, #0
    436a:	e048      	b.n	43fe <mem_trim+0xae>
    436c:	240c      	movs	r4, #12
    436e:	4f25      	ldr	r7, [pc, #148]	; (4404 <mem_trim+0xb4>)
    4370:	683b      	ldr	r3, [r7, #0]
    4372:	42ab      	cmp	r3, r5
    4374:	d843      	bhi.n	43fe <mem_trim+0xae>
    4376:	687a      	ldr	r2, [r7, #4]
    4378:	4295      	cmp	r5, r2
    437a:	d240      	bcs.n	43fe <mem_trim+0xae>
    437c:	f1a5 0608 	sub.w	r6, r5, #8
    4380:	f835 8c08 	ldrh.w	r8, [r5, #-8]
    4384:	1af6      	subs	r6, r6, r3
    4386:	b2b6      	uxth	r6, r6
    4388:	f1a8 0808 	sub.w	r8, r8, #8
    438c:	eba8 0806 	sub.w	r8, r8, r6
    4390:	fa1f f888 	uxth.w	r8, r8
    4394:	45a0      	cmp	r8, r4
    4396:	d3e7      	bcc.n	4368 <mem_trim+0x18>
    4398:	d031      	beq.n	43fe <mem_trim+0xae>
    439a:	2100      	movs	r1, #0
    439c:	4b1a      	ldr	r3, [pc, #104]	; (4408 <mem_trim+0xb8>)
    439e:	f107 000c 	add.w	r0, r7, #12
    43a2:	4798      	blx	r3
    43a4:	683b      	ldr	r3, [r7, #0]
    43a6:	f835 1c08 	ldrh.w	r1, [r5, #-8]
    43aa:	1858      	adds	r0, r3, r1
    43ac:	7902      	ldrb	r2, [r0, #4]
    43ae:	b95a      	cbnz	r2, 43c8 <mem_trim+0x78>
    43b0:	f106 0208 	add.w	r2, r6, #8
    43b4:	4414      	add	r4, r2
    43b6:	68ba      	ldr	r2, [r7, #8]
    43b8:	5a59      	ldrh	r1, [r3, r1]
    43ba:	b2a4      	uxth	r4, r4
    43bc:	4290      	cmp	r0, r2
    43be:	eb03 0204 	add.w	r2, r3, r4
    43c2:	d10d      	bne.n	43e0 <mem_trim+0x90>
    43c4:	60ba      	str	r2, [r7, #8]
    43c6:	e00b      	b.n	43e0 <mem_trim+0x90>
    43c8:	f104 0214 	add.w	r2, r4, #20
    43cc:	4542      	cmp	r2, r8
    43ce:	d813      	bhi.n	43f8 <mem_trim+0xa8>
    43d0:	f106 0208 	add.w	r2, r6, #8
    43d4:	4414      	add	r4, r2
    43d6:	b2a4      	uxth	r4, r4
    43d8:	68b8      	ldr	r0, [r7, #8]
    43da:	191a      	adds	r2, r3, r4
    43dc:	4282      	cmp	r2, r0
    43de:	d3f1      	bcc.n	43c4 <mem_trim+0x74>
    43e0:	2000      	movs	r0, #0
    43e2:	7110      	strb	r0, [r2, #4]
    43e4:	5319      	strh	r1, [r3, r4]
    43e6:	8056      	strh	r6, [r2, #2]
    43e8:	f825 4c08 	strh.w	r4, [r5, #-8]
    43ec:	5b1a      	ldrh	r2, [r3, r4]
    43ee:	f5b2 5f60 	cmp.w	r2, #14336	; 0x3800
    43f2:	bf1c      	itt	ne
    43f4:	189b      	addne	r3, r3, r2
    43f6:	805c      	strhne	r4, [r3, #2]
    43f8:	4804      	ldr	r0, [pc, #16]	; (440c <mem_trim+0xbc>)
    43fa:	4b05      	ldr	r3, [pc, #20]	; (4410 <mem_trim+0xc0>)
    43fc:	4798      	blx	r3
    43fe:	4628      	mov	r0, r5
    4400:	e8bd 81f0 	ldmia.w	sp!, {r4, r5, r6, r7, r8, pc}
    4404:	200015f4 	.word	0x200015f4
    4408:	00001cf9 	.word	0x00001cf9
    440c:	20001600 	.word	0x20001600
    4410:	00001cd9 	.word	0x00001cd9

00004414 <mem_malloc>:
    4414:	e92d 41f0 	stmdb	sp!, {r4, r5, r6, r7, r8, lr}
    4418:	b148      	cbz	r0, 442e <mem_malloc+0x1a>
    441a:	3003      	adds	r0, #3
    441c:	f64f 74fc 	movw	r4, #65532	; 0xfffc
    4420:	4004      	ands	r4, r0
    4422:	2c0b      	cmp	r4, #11
    4424:	d905      	bls.n	4432 <mem_malloc+0x1e>
    4426:	f5b4 5f60 	cmp.w	r4, #14336	; 0x3800
    442a:	d903      	bls.n	4434 <mem_malloc+0x20>
    442c:	2000      	movs	r0, #0
    442e:	e8bd 81f0 	ldmia.w	sp!, {r4, r5, r6, r7, r8, pc}
    4432:	240c      	movs	r4, #12
    4434:	4d27      	ldr	r5, [pc, #156]	; (44d4 <mem_malloc+0xc0>)
    4436:	4b28      	ldr	r3, [pc, #160]	; (44d8 <mem_malloc+0xc4>)
    4438:	2100      	movs	r1, #0
    443a:	f105 000c 	add.w	r0, r5, #12
    443e:	4798      	blx	r3
    4440:	68ae      	ldr	r6, [r5, #8]
    4442:	682a      	ldr	r2, [r5, #0]
    4444:	1ab3      	subs	r3, r6, r2
    4446:	b29b      	uxth	r3, r3
    4448:	4628      	mov	r0, r5
    444a:	f5c4 5c60 	rsb	ip, r4, #14336	; 0x3800
    444e:	f06f 0807 	mvn.w	r8, #7
    4452:	4563      	cmp	r3, ip
    4454:	db03      	blt.n	445e <mem_malloc+0x4a>
    4456:	4821      	ldr	r0, [pc, #132]	; (44dc <mem_malloc+0xc8>)
    4458:	4b21      	ldr	r3, [pc, #132]	; (44e0 <mem_malloc+0xcc>)
    445a:	4798      	blx	r3
    445c:	e7e6      	b.n	442c <mem_malloc+0x18>
    445e:	18d5      	adds	r5, r2, r3
    4460:	5ad7      	ldrh	r7, [r2, r3]
    4462:	f895 e004 	ldrb.w	lr, [r5, #4]
    4466:	f1be 0f00 	cmp.w	lr, #0
    446a:	d130      	bne.n	44ce <mem_malloc+0xba>
    446c:	eba8 0103 	sub.w	r1, r8, r3
    4470:	4439      	add	r1, r7
    4472:	42a1      	cmp	r1, r4
    4474:	d32b      	bcc.n	44ce <mem_malloc+0xba>
    4476:	f104 0c14 	add.w	ip, r4, #20
    447a:	4561      	cmp	r1, ip
    447c:	d321      	bcc.n	44c2 <mem_malloc+0xae>
    447e:	3408      	adds	r4, #8
    4480:	441c      	add	r4, r3
    4482:	b2a4      	uxth	r4, r4
    4484:	1911      	adds	r1, r2, r4
    4486:	f881 e004 	strb.w	lr, [r1, #4]
    448a:	5317      	strh	r7, [r2, r4]
    448c:	804b      	strh	r3, [r1, #2]
    448e:	2301      	movs	r3, #1
    4490:	802c      	strh	r4, [r5, #0]
    4492:	712b      	strb	r3, [r5, #4]
    4494:	5b13      	ldrh	r3, [r2, r4]
    4496:	f5b3 5f60 	cmp.w	r3, #14336	; 0x3800
    449a:	d001      	beq.n	44a0 <mem_malloc+0x8c>
    449c:	441a      	add	r2, r3
    449e:	8054      	strh	r4, [r2, #2]
    44a0:	42ae      	cmp	r6, r5
    44a2:	d107      	bne.n	44b4 <mem_malloc+0xa0>
    44a4:	e890 0006 	ldmia.w	r0, {r1, r2}
    44a8:	462b      	mov	r3, r5
    44aa:	791c      	ldrb	r4, [r3, #4]
    44ac:	b10c      	cbz	r4, 44b2 <mem_malloc+0x9e>
    44ae:	4293      	cmp	r3, r2
    44b0:	d10a      	bne.n	44c8 <mem_malloc+0xb4>
    44b2:	6083      	str	r3, [r0, #8]
    44b4:	4809      	ldr	r0, [pc, #36]	; (44dc <mem_malloc+0xc8>)
    44b6:	4b0a      	ldr	r3, [pc, #40]	; (44e0 <mem_malloc+0xcc>)
    44b8:	4798      	blx	r3
    44ba:	f105 0008 	add.w	r0, r5, #8
    44be:	e8bd 81f0 	ldmia.w	sp!, {r4, r5, r6, r7, r8, pc}
    44c2:	2301      	movs	r3, #1
    44c4:	712b      	strb	r3, [r5, #4]
    44c6:	e7eb      	b.n	44a0 <mem_malloc+0x8c>
    44c8:	881b      	ldrh	r3, [r3, #0]
    44ca:	440b      	add	r3, r1
    44cc:	e7ed      	b.n	44aa <mem_malloc+0x96>
    44ce:	463b      	mov	r3, r7
    44d0:	e7bf      	b.n	4452 <mem_malloc+0x3e>
    44d2:	bf00      	nop
    44d4:	200015f4 	.word	0x200015f4
    44d8:	00001cf9 	.word	0x00001cf9
    44dc:	20001600 	.word	0x20001600
    44e0:	00001cd9 	.word	0x00001cd9

000044e4 <memp_init>:
    44e4:	e92d 43f0 	stmdb	sp!, {r4, r5, r6, r7, r8, r9, lr}
    44e8:	4a10      	ldr	r2, [pc, #64]	; (452c <memp_init+0x48>)
    44ea:	4811      	ldr	r0, [pc, #68]	; (4530 <memp_init+0x4c>)
    44ec:	4c11      	ldr	r4, [pc, #68]	; (4534 <memp_init+0x50>)
    44ee:	2300      	movs	r3, #0
    44f0:	f022 0203 	bic.w	r2, r2, #3
    44f4:	469e      	mov	lr, r3
    44f6:	4605      	mov	r5, r0
    44f8:	f104 0c1a 	add.w	ip, r4, #26
    44fc:	f840 e023 	str.w	lr, [r0, r3, lsl #2]
    4500:	f834 8013 	ldrh.w	r8, [r4, r3, lsl #1]
    4504:	009e      	lsls	r6, r3, #2
    4506:	ea4f 0943 	mov.w	r9, r3, lsl #1
    450a:	2100      	movs	r1, #0
    450c:	b28f      	uxth	r7, r1
    450e:	45b8      	cmp	r8, r7
    4510:	d804      	bhi.n	451c <memp_init+0x38>
    4512:	3301      	adds	r3, #1
    4514:	2b0d      	cmp	r3, #13
    4516:	d1f1      	bne.n	44fc <memp_init+0x18>
    4518:	e8bd 83f0 	ldmia.w	sp!, {r4, r5, r6, r7, r8, r9, pc}
    451c:	59af      	ldr	r7, [r5, r6]
    451e:	6017      	str	r7, [r2, #0]
    4520:	f839 700c 	ldrh.w	r7, [r9, ip]
    4524:	51aa      	str	r2, [r5, r6]
    4526:	3101      	adds	r1, #1
    4528:	443a      	add	r2, r7
    452a:	e7ef      	b.n	450c <memp_init+0x28>
    452c:	20001607 	.word	0x20001607
    4530:	20008068 	.word	0x20008068
    4534:	0000ba1a 	.word	0x0000ba1a

00004538 <memp_malloc>:
    4538:	280c      	cmp	r0, #12
    453a:	d900      	bls.n	453e <memp_malloc+0x6>
    453c:	e7fe      	b.n	453c <memp_malloc+0x4>
    453e:	4b05      	ldr	r3, [pc, #20]	; (4554 <memp_malloc+0x1c>)
    4540:	eb03 0380 	add.w	r3, r3, r0, lsl #2
    4544:	f8d3 0494 	ldr.w	r0, [r3, #1172]	; 0x494
    4548:	b110      	cbz	r0, 4550 <memp_malloc+0x18>
    454a:	6802      	ldr	r2, [r0, #0]
    454c:	f8c3 2494 	str.w	r2, [r3, #1172]	; 0x494
    4550:	4770      	bx	lr
    4552:	bf00      	nop
    4554:	20007bd4 	.word	0x20007bd4

00004558 <memp_free>:
    4558:	b139      	cbz	r1, 456a <memp_free+0x12>
    455a:	4b04      	ldr	r3, [pc, #16]	; (456c <memp_free+0x14>)
    455c:	eb03 0080 	add.w	r0, r3, r0, lsl #2
    4560:	f8d0 3494 	ldr.w	r3, [r0, #1172]	; 0x494
    4564:	600b      	str	r3, [r1, #0]
    4566:	f8c0 1494 	str.w	r1, [r0, #1172]	; 0x494
    456a:	4770      	bx	lr
    456c:	20007bd4 	.word	0x20007bd4

00004570 <netif_init>:
    4570:	4770      	bx	lr
	...

00004574 <netif_set_ipaddr>:
    4574:	b5f8      	push	{r3, r4, r5, r6, r7, lr}
    4576:	4605      	mov	r5, r0
    4578:	460c      	mov	r4, r1
    457a:	b159      	cbz	r1, 4594 <netif_set_ipaddr+0x20>
    457c:	680a      	ldr	r2, [r1, #0]
    457e:	6843      	ldr	r3, [r0, #4]
    4580:	429a      	cmp	r2, r3
    4582:	d006      	beq.n	4592 <netif_set_ipaddr+0x1e>
    4584:	4b0d      	ldr	r3, [pc, #52]	; (45bc <netif_set_ipaddr+0x48>)
    4586:	4f0e      	ldr	r7, [pc, #56]	; (45c0 <netif_set_ipaddr+0x4c>)
    4588:	6818      	ldr	r0, [r3, #0]
    458a:	b928      	cbnz	r0, 4598 <netif_set_ipaddr+0x24>
    458c:	4b0d      	ldr	r3, [pc, #52]	; (45c4 <netif_set_ipaddr+0x50>)
    458e:	681b      	ldr	r3, [r3, #0]
    4590:	b953      	cbnz	r3, 45a8 <netif_set_ipaddr+0x34>
    4592:	6824      	ldr	r4, [r4, #0]
    4594:	606c      	str	r4, [r5, #4]
    4596:	bdf8      	pop	{r3, r4, r5, r6, r7, pc}
    4598:	6802      	ldr	r2, [r0, #0]
    459a:	686b      	ldr	r3, [r5, #4]
    459c:	68c6      	ldr	r6, [r0, #12]
    459e:	429a      	cmp	r2, r3
    45a0:	d100      	bne.n	45a4 <netif_set_ipaddr+0x30>
    45a2:	47b8      	blx	r7
    45a4:	4630      	mov	r0, r6
    45a6:	e7f0      	b.n	458a <netif_set_ipaddr+0x16>
    45a8:	681a      	ldr	r2, [r3, #0]
    45aa:	b122      	cbz	r2, 45b6 <netif_set_ipaddr+0x42>
    45ac:	6869      	ldr	r1, [r5, #4]
    45ae:	428a      	cmp	r2, r1
    45b0:	bf04      	itt	eq
    45b2:	6822      	ldreq	r2, [r4, #0]
    45b4:	601a      	streq	r2, [r3, #0]
    45b6:	68db      	ldr	r3, [r3, #12]
    45b8:	e7ea      	b.n	4590 <netif_set_ipaddr+0x1c>
    45ba:	bf00      	nop
    45bc:	200161c4 	.word	0x200161c4
    45c0:	000053d5 	.word	0x000053d5
    45c4:	200161cc 	.word	0x200161cc

000045c8 <netif_set_addr>:
    45c8:	b570      	push	{r4, r5, r6, lr}
    45ca:	4615      	mov	r5, r2
    45cc:	461c      	mov	r4, r3
    45ce:	4b05      	ldr	r3, [pc, #20]	; (45e4 <netif_set_addr+0x1c>)
    45d0:	4606      	mov	r6, r0
    45d2:	4798      	blx	r3
    45d4:	b105      	cbz	r5, 45d8 <netif_set_addr+0x10>
    45d6:	682d      	ldr	r5, [r5, #0]
    45d8:	60b5      	str	r5, [r6, #8]
    45da:	b104      	cbz	r4, 45de <netif_set_addr+0x16>
    45dc:	6824      	ldr	r4, [r4, #0]
    45de:	60f4      	str	r4, [r6, #12]
    45e0:	bd70      	pop	{r4, r5, r6, pc}
    45e2:	bf00      	nop
    45e4:	00004575 	.word	0x00004575

000045e8 <netif_add>:
    45e8:	b5f8      	push	{r3, r4, r5, r6, r7, lr}
    45ea:	4f11      	ldr	r7, [pc, #68]	; (4630 <netif_add+0x48>)
    45ec:	9e06      	ldr	r6, [sp, #24]
    45ee:	6206      	str	r6, [r0, #32]
    45f0:	783e      	ldrb	r6, [r7, #0]
    45f2:	f880 6030 	strb.w	r6, [r0, #48]	; 0x30
    45f6:	2500      	movs	r5, #0
    45f8:	f106 0e01 	add.w	lr, r6, #1
    45fc:	9e08      	ldr	r6, [sp, #32]
    45fe:	6106      	str	r6, [r0, #16]
    4600:	4604      	mov	r4, r0
    4602:	6045      	str	r5, [r0, #4]
    4604:	6085      	str	r5, [r0, #8]
    4606:	60c5      	str	r5, [r0, #12]
    4608:	f880 502d 	strb.w	r5, [r0, #45]	; 0x2d
    460c:	61c5      	str	r5, [r0, #28]
    460e:	4e09      	ldr	r6, [pc, #36]	; (4634 <netif_add+0x4c>)
    4610:	f887 e000 	strb.w	lr, [r7]
    4614:	47b0      	blx	r6
    4616:	4620      	mov	r0, r4
    4618:	9b07      	ldr	r3, [sp, #28]
    461a:	4798      	blx	r3
    461c:	b928      	cbnz	r0, 462a <netif_add+0x42>
    461e:	4b06      	ldr	r3, [pc, #24]	; (4638 <netif_add+0x50>)
    4620:	681a      	ldr	r2, [r3, #0]
    4622:	6022      	str	r2, [r4, #0]
    4624:	601c      	str	r4, [r3, #0]
    4626:	4620      	mov	r0, r4
    4628:	bdf8      	pop	{r3, r4, r5, r6, r7, pc}
    462a:	462c      	mov	r4, r5
    462c:	e7fb      	b.n	4626 <netif_add+0x3e>
    462e:	bf00      	nop
    4630:	2000809c 	.word	0x2000809c
    4634:	000045c9 	.word	0x000045c9
    4638:	200161b4 	.word	0x200161b4

0000463c <netif_set_default>:
    463c:	4b01      	ldr	r3, [pc, #4]	; (4644 <netif_set_default+0x8>)
    463e:	6018      	str	r0, [r3, #0]
    4640:	4770      	bx	lr
    4642:	bf00      	nop
    4644:	200161b8 	.word	0x200161b8

00004648 <netif_set_up>:
    4648:	b510      	push	{r4, lr}
    464a:	f890 302d 	ldrb.w	r3, [r0, #45]	; 0x2d
    464e:	07da      	lsls	r2, r3, #31
    4650:	4604      	mov	r4, r0
    4652:	d412      	bmi.n	467a <netif_set_up+0x32>
    4654:	f043 0301 	orr.w	r3, r3, #1
    4658:	f880 302d 	strb.w	r3, [r0, #45]	; 0x2d
    465c:	69c3      	ldr	r3, [r0, #28]
    465e:	b103      	cbz	r3, 4662 <netif_set_up+0x1a>
    4660:	4798      	blx	r3
    4662:	f894 302d 	ldrb.w	r3, [r4, #45]	; 0x2d
    4666:	f003 0330 	and.w	r3, r3, #48	; 0x30
    466a:	2b30      	cmp	r3, #48	; 0x30
    466c:	d105      	bne.n	467a <netif_set_up+0x32>
    466e:	1d21      	adds	r1, r4, #4
    4670:	4620      	mov	r0, r4
    4672:	4b02      	ldr	r3, [pc, #8]	; (467c <netif_set_up+0x34>)
    4674:	e8bd 4010 	ldmia.w	sp!, {r4, lr}
    4678:	4718      	bx	r3
    467a:	bd10      	pop	{r4, pc}
    467c:	000078b5 	.word	0x000078b5

00004680 <pbuf_free_ooseq_callback>:
    4680:	4b08      	ldr	r3, [pc, #32]	; (46a4 <pbuf_free_ooseq_callback+0x24>)
    4682:	2200      	movs	r2, #0
    4684:	b510      	push	{r4, lr}
    4686:	701a      	strb	r2, [r3, #0]
    4688:	4b07      	ldr	r3, [pc, #28]	; (46a8 <pbuf_free_ooseq_callback+0x28>)
    468a:	681c      	ldr	r4, [r3, #0]
    468c:	b904      	cbnz	r4, 4690 <pbuf_free_ooseq_callback+0x10>
    468e:	bd10      	pop	{r4, pc}
    4690:	6f60      	ldr	r0, [r4, #116]	; 0x74
    4692:	b120      	cbz	r0, 469e <pbuf_free_ooseq_callback+0x1e>
    4694:	4b05      	ldr	r3, [pc, #20]	; (46ac <pbuf_free_ooseq_callback+0x2c>)
    4696:	4798      	blx	r3
    4698:	2300      	movs	r3, #0
    469a:	6763      	str	r3, [r4, #116]	; 0x74
    469c:	bd10      	pop	{r4, pc}
    469e:	68e4      	ldr	r4, [r4, #12]
    46a0:	e7f4      	b.n	468c <pbuf_free_ooseq_callback+0xc>
    46a2:	bf00      	nop
    46a4:	200161bc 	.word	0x200161bc
    46a8:	200161c4 	.word	0x200161c4
    46ac:	00004bf5 	.word	0x00004bf5

000046b0 <pbuf_pool_is_empty>:
    46b0:	b538      	push	{r3, r4, r5, lr}
    46b2:	4c07      	ldr	r4, [pc, #28]	; (46d0 <pbuf_pool_is_empty+0x20>)
    46b4:	7823      	ldrb	r3, [r4, #0]
    46b6:	2201      	movs	r2, #1
    46b8:	7022      	strb	r2, [r4, #0]
    46ba:	f003 05ff 	and.w	r5, r3, #255	; 0xff
    46be:	b933      	cbnz	r3, 46ce <pbuf_pool_is_empty+0x1e>
    46c0:	462a      	mov	r2, r5
    46c2:	4629      	mov	r1, r5
    46c4:	4803      	ldr	r0, [pc, #12]	; (46d4 <pbuf_pool_is_empty+0x24>)
    46c6:	4b04      	ldr	r3, [pc, #16]	; (46d8 <pbuf_pool_is_empty+0x28>)
    46c8:	4798      	blx	r3
    46ca:	b100      	cbz	r0, 46ce <pbuf_pool_is_empty+0x1e>
    46cc:	7025      	strb	r5, [r4, #0]
    46ce:	bd38      	pop	{r3, r4, r5, pc}
    46d0:	200161bc 	.word	0x200161bc
    46d4:	00004681 	.word	0x00004681
    46d8:	00003331 	.word	0x00003331

000046dc <pbuf_alloced_custom>:
    46dc:	b570      	push	{r4, r5, r6, lr}
    46de:	9d04      	ldr	r5, [sp, #16]
    46e0:	2803      	cmp	r0, #3
    46e2:	d820      	bhi.n	4726 <pbuf_alloced_custom+0x4a>
    46e4:	e8df f000 	tbb	[pc, r0]
    46e8:	1917021b 	.word	0x1917021b
    46ec:	2024      	movs	r0, #36	; 0x24
    46ee:	f8bd 4014 	ldrh.w	r4, [sp, #20]
    46f2:	1846      	adds	r6, r0, r1
    46f4:	42a6      	cmp	r6, r4
    46f6:	f04f 0400 	mov.w	r4, #0
    46fa:	dc14      	bgt.n	4726 <pbuf_alloced_custom+0x4a>
    46fc:	601c      	str	r4, [r3, #0]
    46fe:	b185      	cbz	r5, 4722 <pbuf_alloced_custom+0x46>
    4700:	4428      	add	r0, r5
    4702:	6058      	str	r0, [r3, #4]
    4704:	2002      	movs	r0, #2
    4706:	731a      	strb	r2, [r3, #12]
    4708:	2201      	movs	r2, #1
    470a:	7358      	strb	r0, [r3, #13]
    470c:	8119      	strh	r1, [r3, #8]
    470e:	8159      	strh	r1, [r3, #10]
    4710:	81da      	strh	r2, [r3, #14]
    4712:	4618      	mov	r0, r3
    4714:	bd70      	pop	{r4, r5, r6, pc}
    4716:	2010      	movs	r0, #16
    4718:	e7e9      	b.n	46ee <pbuf_alloced_custom+0x12>
    471a:	2000      	movs	r0, #0
    471c:	e7e7      	b.n	46ee <pbuf_alloced_custom+0x12>
    471e:	2038      	movs	r0, #56	; 0x38
    4720:	e7e5      	b.n	46ee <pbuf_alloced_custom+0x12>
    4722:	605d      	str	r5, [r3, #4]
    4724:	e7ee      	b.n	4704 <pbuf_alloced_custom+0x28>
    4726:	2000      	movs	r0, #0
    4728:	bd70      	pop	{r4, r5, r6, pc}

0000472a <pbuf_header>:
    472a:	b510      	push	{r4, lr}
    472c:	b1d9      	cbz	r1, 4766 <pbuf_header+0x3c>
    472e:	b338      	cbz	r0, 4780 <pbuf_header+0x56>
    4730:	2900      	cmp	r1, #0
    4732:	da05      	bge.n	4740 <pbuf_header+0x16>
    4734:	424a      	negs	r2, r1
    4736:	8943      	ldrh	r3, [r0, #10]
    4738:	b292      	uxth	r2, r2
    473a:	4293      	cmp	r3, r2
    473c:	d201      	bcs.n	4742 <pbuf_header+0x18>
    473e:	e7fe      	b.n	473e <pbuf_header+0x14>
    4740:	b28a      	uxth	r2, r1
    4742:	7b04      	ldrb	r4, [r0, #12]
    4744:	6843      	ldr	r3, [r0, #4]
    4746:	b10c      	cbz	r4, 474c <pbuf_header+0x22>
    4748:	2c03      	cmp	r4, #3
    474a:	d10e      	bne.n	476a <pbuf_header+0x40>
    474c:	1a5b      	subs	r3, r3, r1
    474e:	f100 0210 	add.w	r2, r0, #16
    4752:	4293      	cmp	r3, r2
    4754:	d313      	bcc.n	477e <pbuf_header+0x54>
    4756:	6043      	str	r3, [r0, #4]
    4758:	8943      	ldrh	r3, [r0, #10]
    475a:	b289      	uxth	r1, r1
    475c:	440b      	add	r3, r1
    475e:	8143      	strh	r3, [r0, #10]
    4760:	8903      	ldrh	r3, [r0, #8]
    4762:	4419      	add	r1, r3
    4764:	8101      	strh	r1, [r0, #8]
    4766:	2000      	movs	r0, #0
    4768:	bd10      	pop	{r4, pc}
    476a:	3c01      	subs	r4, #1
    476c:	2c01      	cmp	r4, #1
    476e:	d806      	bhi.n	477e <pbuf_header+0x54>
    4770:	2900      	cmp	r1, #0
    4772:	da04      	bge.n	477e <pbuf_header+0x54>
    4774:	8944      	ldrh	r4, [r0, #10]
    4776:	4294      	cmp	r4, r2
    4778:	d301      	bcc.n	477e <pbuf_header+0x54>
    477a:	1a5b      	subs	r3, r3, r1
    477c:	e7eb      	b.n	4756 <pbuf_header+0x2c>
    477e:	2001      	movs	r0, #1
    4780:	bd10      	pop	{r4, pc}
	...

00004784 <pbuf_free>:
    4784:	b5f8      	push	{r3, r4, r5, r6, r7, lr}
    4786:	4601      	mov	r1, r0
    4788:	b310      	cbz	r0, 47d0 <pbuf_free+0x4c>
    478a:	4e12      	ldr	r6, [pc, #72]	; (47d4 <pbuf_free+0x50>)
    478c:	4d12      	ldr	r5, [pc, #72]	; (47d8 <pbuf_free+0x54>)
    478e:	2400      	movs	r4, #0
    4790:	b2e0      	uxtb	r0, r4
    4792:	b901      	cbnz	r1, 4796 <pbuf_free+0x12>
    4794:	bdf8      	pop	{r3, r4, r5, r6, r7, pc}
    4796:	89cb      	ldrh	r3, [r1, #14]
    4798:	3b01      	subs	r3, #1
    479a:	b29b      	uxth	r3, r3
    479c:	81cb      	strh	r3, [r1, #14]
    479e:	b9bb      	cbnz	r3, 47d0 <pbuf_free+0x4c>
    47a0:	7b4b      	ldrb	r3, [r1, #13]
    47a2:	680f      	ldr	r7, [r1, #0]
    47a4:	079b      	lsls	r3, r3, #30
    47a6:	d505      	bpl.n	47b4 <pbuf_free+0x30>
    47a8:	690b      	ldr	r3, [r1, #16]
    47aa:	4608      	mov	r0, r1
    47ac:	4798      	blx	r3
    47ae:	3401      	adds	r4, #1
    47b0:	4639      	mov	r1, r7
    47b2:	e7ed      	b.n	4790 <pbuf_free+0xc>
    47b4:	7b0b      	ldrb	r3, [r1, #12]
    47b6:	2b03      	cmp	r3, #3
    47b8:	d102      	bne.n	47c0 <pbuf_free+0x3c>
    47ba:	200c      	movs	r0, #12
    47bc:	47a8      	blx	r5
    47be:	e7f6      	b.n	47ae <pbuf_free+0x2a>
    47c0:	3b01      	subs	r3, #1
    47c2:	2b01      	cmp	r3, #1
    47c4:	d801      	bhi.n	47ca <pbuf_free+0x46>
    47c6:	200b      	movs	r0, #11
    47c8:	e7f8      	b.n	47bc <pbuf_free+0x38>
    47ca:	4608      	mov	r0, r1
    47cc:	47b0      	blx	r6
    47ce:	e7ee      	b.n	47ae <pbuf_free+0x2a>
    47d0:	bdf8      	pop	{r3, r4, r5, r6, r7, pc}
    47d2:	bf00      	nop
    47d4:	000042b1 	.word	0x000042b1
    47d8:	00004559 	.word	0x00004559

000047dc <pbuf_alloc>:
    47dc:	e92d 47f0 	stmdb	sp!, {r4, r5, r6, r7, r8, r9, sl, lr}
    47e0:	460e      	mov	r6, r1
    47e2:	4617      	mov	r7, r2
    47e4:	2803      	cmp	r0, #3
    47e6:	d841      	bhi.n	486c <pbuf_alloc+0x90>
    47e8:	e8df f000 	tbb	[pc, r0]
    47ec:	0b09020d 	.word	0x0b09020d
    47f0:	2524      	movs	r5, #36	; 0x24
    47f2:	2f03      	cmp	r7, #3
    47f4:	d83a      	bhi.n	486c <pbuf_alloc+0x90>
    47f6:	e8df f007 	tbb	[pc, r7]
    47fa:	6851      	.short	0x6851
    47fc:	0868      	.short	0x0868
    47fe:	2510      	movs	r5, #16
    4800:	e7f7      	b.n	47f2 <pbuf_alloc+0x16>
    4802:	2500      	movs	r5, #0
    4804:	e7f5      	b.n	47f2 <pbuf_alloc+0x16>
    4806:	2538      	movs	r5, #56	; 0x38
    4808:	e7f3      	b.n	47f2 <pbuf_alloc+0x16>
    480a:	4f36      	ldr	r7, [pc, #216]	; (48e4 <pbuf_alloc+0x108>)
    480c:	200c      	movs	r0, #12
    480e:	47b8      	blx	r7
    4810:	46b8      	mov	r8, r7
    4812:	4604      	mov	r4, r0
    4814:	b920      	cbnz	r0, 4820 <pbuf_alloc+0x44>
    4816:	4b34      	ldr	r3, [pc, #208]	; (48e8 <pbuf_alloc+0x10c>)
    4818:	4798      	blx	r3
    481a:	4620      	mov	r0, r4
    481c:	e8bd 87f0 	ldmia.w	sp!, {r4, r5, r6, r7, r8, r9, sl, pc}
    4820:	1943      	adds	r3, r0, r5
    4822:	f5c5 65bd 	rsb	r5, r5, #1512	; 0x5e8
    4826:	3504      	adds	r5, #4
    4828:	3313      	adds	r3, #19
    482a:	f023 0303 	bic.w	r3, r3, #3
    482e:	42b5      	cmp	r5, r6
    4830:	f04f 0203 	mov.w	r2, #3
    4834:	bfa8      	it	ge
    4836:	4635      	movge	r5, r6
    4838:	2700      	movs	r7, #0
    483a:	6043      	str	r3, [r0, #4]
    483c:	2301      	movs	r3, #1
    483e:	8145      	strh	r5, [r0, #10]
    4840:	7302      	strb	r2, [r0, #12]
    4842:	6007      	str	r7, [r0, #0]
    4844:	8106      	strh	r6, [r0, #8]
    4846:	81c3      	strh	r3, [r0, #14]
    4848:	1b75      	subs	r5, r6, r5
    484a:	4681      	mov	r9, r0
    484c:	4692      	mov	sl, r2
    484e:	2d00      	cmp	r5, #0
    4850:	dc04      	bgt.n	485c <pbuf_alloc+0x80>
    4852:	2301      	movs	r3, #1
    4854:	81e3      	strh	r3, [r4, #14]
    4856:	2300      	movs	r3, #0
    4858:	7363      	strb	r3, [r4, #13]
    485a:	e7de      	b.n	481a <pbuf_alloc+0x3e>
    485c:	200c      	movs	r0, #12
    485e:	47c0      	blx	r8
    4860:	b930      	cbnz	r0, 4870 <pbuf_alloc+0x94>
    4862:	4b21      	ldr	r3, [pc, #132]	; (48e8 <pbuf_alloc+0x10c>)
    4864:	4798      	blx	r3
    4866:	4620      	mov	r0, r4
    4868:	4b20      	ldr	r3, [pc, #128]	; (48ec <pbuf_alloc+0x110>)
    486a:	4798      	blx	r3
    486c:	2400      	movs	r4, #0
    486e:	e7d4      	b.n	481a <pbuf_alloc+0x3e>
    4870:	b2ab      	uxth	r3, r5
    4872:	f240 52ec 	movw	r2, #1516	; 0x5ec
    4876:	4293      	cmp	r3, r2
    4878:	f880 a00c 	strb.w	sl, [r0, #12]
    487c:	7347      	strb	r7, [r0, #13]
    487e:	6007      	str	r7, [r0, #0]
    4880:	f8c9 0000 	str.w	r0, [r9]
    4884:	8103      	strh	r3, [r0, #8]
    4886:	bf28      	it	cs
    4888:	4613      	movcs	r3, r2
    488a:	f100 0210 	add.w	r2, r0, #16
    488e:	6042      	str	r2, [r0, #4]
    4890:	2201      	movs	r2, #1
    4892:	8143      	strh	r3, [r0, #10]
    4894:	81c2      	strh	r2, [r0, #14]
    4896:	1aed      	subs	r5, r5, r3
    4898:	4681      	mov	r9, r0
    489a:	e7d8      	b.n	484e <pbuf_alloc+0x72>
    489c:	1cf3      	adds	r3, r6, #3
    489e:	f023 0303 	bic.w	r3, r3, #3
    48a2:	f105 0010 	add.w	r0, r5, #16
    48a6:	4418      	add	r0, r3
    48a8:	b280      	uxth	r0, r0
    48aa:	4b11      	ldr	r3, [pc, #68]	; (48f0 <pbuf_alloc+0x114>)
    48ac:	4798      	blx	r3
    48ae:	4604      	mov	r4, r0
    48b0:	2800      	cmp	r0, #0
    48b2:	d0db      	beq.n	486c <pbuf_alloc+0x90>
    48b4:	4405      	add	r5, r0
    48b6:	3513      	adds	r5, #19
    48b8:	2300      	movs	r3, #0
    48ba:	f025 0503 	bic.w	r5, r5, #3
    48be:	6045      	str	r5, [r0, #4]
    48c0:	8106      	strh	r6, [r0, #8]
    48c2:	8146      	strh	r6, [r0, #10]
    48c4:	6003      	str	r3, [r0, #0]
    48c6:	7303      	strb	r3, [r0, #12]
    48c8:	e7c3      	b.n	4852 <pbuf_alloc+0x76>
    48ca:	200b      	movs	r0, #11
    48cc:	4b05      	ldr	r3, [pc, #20]	; (48e4 <pbuf_alloc+0x108>)
    48ce:	4798      	blx	r3
    48d0:	4604      	mov	r4, r0
    48d2:	2800      	cmp	r0, #0
    48d4:	d0ca      	beq.n	486c <pbuf_alloc+0x90>
    48d6:	2300      	movs	r3, #0
    48d8:	6043      	str	r3, [r0, #4]
    48da:	8106      	strh	r6, [r0, #8]
    48dc:	8146      	strh	r6, [r0, #10]
    48de:	6003      	str	r3, [r0, #0]
    48e0:	7307      	strb	r7, [r0, #12]
    48e2:	e7b6      	b.n	4852 <pbuf_alloc+0x76>
    48e4:	00004539 	.word	0x00004539
    48e8:	000046b1 	.word	0x000046b1
    48ec:	00004785 	.word	0x00004785
    48f0:	00004415 	.word	0x00004415

000048f4 <pbuf_realloc>:
    48f4:	b538      	push	{r3, r4, r5, lr}
    48f6:	8903      	ldrh	r3, [r0, #8]
    48f8:	428b      	cmp	r3, r1
    48fa:	4604      	mov	r4, r0
    48fc:	d918      	bls.n	4930 <pbuf_realloc+0x3c>
    48fe:	460d      	mov	r5, r1
    4900:	1acb      	subs	r3, r1, r3
    4902:	8961      	ldrh	r1, [r4, #10]
    4904:	428d      	cmp	r5, r1
    4906:	d814      	bhi.n	4932 <pbuf_realloc+0x3e>
    4908:	7b23      	ldrb	r3, [r4, #12]
    490a:	b94b      	cbnz	r3, 4920 <pbuf_realloc+0x2c>
    490c:	428d      	cmp	r5, r1
    490e:	d007      	beq.n	4920 <pbuf_realloc+0x2c>
    4910:	6861      	ldr	r1, [r4, #4]
    4912:	4b0b      	ldr	r3, [pc, #44]	; (4940 <pbuf_realloc+0x4c>)
    4914:	1b09      	subs	r1, r1, r4
    4916:	4429      	add	r1, r5
    4918:	4620      	mov	r0, r4
    491a:	b289      	uxth	r1, r1
    491c:	4798      	blx	r3
    491e:	4604      	mov	r4, r0
    4920:	6820      	ldr	r0, [r4, #0]
    4922:	8165      	strh	r5, [r4, #10]
    4924:	8125      	strh	r5, [r4, #8]
    4926:	b108      	cbz	r0, 492c <pbuf_realloc+0x38>
    4928:	4b06      	ldr	r3, [pc, #24]	; (4944 <pbuf_realloc+0x50>)
    492a:	4798      	blx	r3
    492c:	2300      	movs	r3, #0
    492e:	6023      	str	r3, [r4, #0]
    4930:	bd38      	pop	{r3, r4, r5, pc}
    4932:	8922      	ldrh	r2, [r4, #8]
    4934:	1a6d      	subs	r5, r5, r1
    4936:	441a      	add	r2, r3
    4938:	8122      	strh	r2, [r4, #8]
    493a:	b2ad      	uxth	r5, r5
    493c:	6824      	ldr	r4, [r4, #0]
    493e:	e7e0      	b.n	4902 <pbuf_realloc+0xe>
    4940:	00004351 	.word	0x00004351
    4944:	00004785 	.word	0x00004785

00004948 <pbuf_clen>:
    4948:	4603      	mov	r3, r0
    494a:	2200      	movs	r2, #0
    494c:	b2d0      	uxtb	r0, r2
    494e:	3201      	adds	r2, #1
    4950:	b903      	cbnz	r3, 4954 <pbuf_clen+0xc>
    4952:	4770      	bx	lr
    4954:	681b      	ldr	r3, [r3, #0]
    4956:	e7f9      	b.n	494c <pbuf_clen+0x4>

00004958 <pbuf_ref>:
    4958:	b110      	cbz	r0, 4960 <pbuf_ref+0x8>
    495a:	89c3      	ldrh	r3, [r0, #14]
    495c:	3301      	adds	r3, #1
    495e:	81c3      	strh	r3, [r0, #14]
    4960:	4770      	bx	lr

00004962 <pbuf_cat>:
    4962:	b510      	push	{r4, lr}
    4964:	b100      	cbz	r0, 4968 <pbuf_cat+0x6>
    4966:	b909      	cbnz	r1, 496c <pbuf_cat+0xa>
    4968:	e7fe      	b.n	4968 <pbuf_cat+0x6>
    496a:	4620      	mov	r0, r4
    496c:	8903      	ldrh	r3, [r0, #8]
    496e:	890a      	ldrh	r2, [r1, #8]
    4970:	6804      	ldr	r4, [r0, #0]
    4972:	4413      	add	r3, r2
    4974:	8103      	strh	r3, [r0, #8]
    4976:	2c00      	cmp	r4, #0
    4978:	d1f7      	bne.n	496a <pbuf_cat+0x8>
    497a:	6001      	str	r1, [r0, #0]
    497c:	bd10      	pop	{r4, pc}
	...

00004980 <pbuf_chain>:
    4980:	b510      	push	{r4, lr}
    4982:	4b03      	ldr	r3, [pc, #12]	; (4990 <pbuf_chain+0x10>)
    4984:	4798      	blx	r3
    4986:	4b03      	ldr	r3, [pc, #12]	; (4994 <pbuf_chain+0x14>)
    4988:	4608      	mov	r0, r1
    498a:	e8bd 4010 	ldmia.w	sp!, {r4, lr}
    498e:	4718      	bx	r3
    4990:	00004963 	.word	0x00004963
    4994:	00004959 	.word	0x00004959

00004998 <pbuf_copy>:
    4998:	e92d 43f8 	stmdb	sp!, {r3, r4, r5, r6, r7, r8, r9, lr}
    499c:	460c      	mov	r4, r1
    499e:	4605      	mov	r5, r0
    49a0:	b120      	cbz	r0, 49ac <pbuf_copy+0x14>
    49a2:	b119      	cbz	r1, 49ac <pbuf_copy+0x14>
    49a4:	8902      	ldrh	r2, [r0, #8]
    49a6:	890b      	ldrh	r3, [r1, #8]
    49a8:	429a      	cmp	r2, r3
    49aa:	d200      	bcs.n	49ae <pbuf_copy+0x16>
    49ac:	e7fe      	b.n	49ac <pbuf_copy+0x14>
    49ae:	f04f 0800 	mov.w	r8, #0
    49b2:	f8df 9078 	ldr.w	r9, [pc, #120]	; 4a2c <pbuf_copy+0x94>
    49b6:	4647      	mov	r7, r8
    49b8:	8963      	ldrh	r3, [r4, #10]
    49ba:	896e      	ldrh	r6, [r5, #10]
    49bc:	6861      	ldr	r1, [r4, #4]
    49be:	6868      	ldr	r0, [r5, #4]
    49c0:	1bf6      	subs	r6, r6, r7
    49c2:	eba3 0308 	sub.w	r3, r3, r8
    49c6:	429e      	cmp	r6, r3
    49c8:	bfac      	ite	ge
    49ca:	b29e      	uxthge	r6, r3
    49cc:	b2b6      	uxthlt	r6, r6
    49ce:	4632      	mov	r2, r6
    49d0:	4441      	add	r1, r8
    49d2:	4438      	add	r0, r7
    49d4:	47c8      	blx	r9
    49d6:	4437      	add	r7, r6
    49d8:	8963      	ldrh	r3, [r4, #10]
    49da:	4446      	add	r6, r8
    49dc:	fa1f f886 	uxth.w	r8, r6
    49e0:	4543      	cmp	r3, r8
    49e2:	896b      	ldrh	r3, [r5, #10]
    49e4:	bf98      	it	ls
    49e6:	6824      	ldrls	r4, [r4, #0]
    49e8:	b2bf      	uxth	r7, r7
    49ea:	bf98      	it	ls
    49ec:	f04f 0800 	movls.w	r8, #0
    49f0:	42bb      	cmp	r3, r7
    49f2:	d110      	bne.n	4a16 <pbuf_copy+0x7e>
    49f4:	682d      	ldr	r5, [r5, #0]
    49f6:	b96d      	cbnz	r5, 4a14 <pbuf_copy+0x7c>
    49f8:	b14c      	cbz	r4, 4a0e <pbuf_copy+0x76>
    49fa:	e7fe      	b.n	49fa <pbuf_copy+0x62>
    49fc:	8962      	ldrh	r2, [r4, #10]
    49fe:	8923      	ldrh	r3, [r4, #8]
    4a00:	429a      	cmp	r2, r3
    4a02:	d10a      	bne.n	4a1a <pbuf_copy+0x82>
    4a04:	6823      	ldr	r3, [r4, #0]
    4a06:	b143      	cbz	r3, 4a1a <pbuf_copy+0x82>
    4a08:	e7fe      	b.n	4a08 <pbuf_copy+0x70>
    4a0a:	2c00      	cmp	r4, #0
    4a0c:	d1d4      	bne.n	49b8 <pbuf_copy+0x20>
    4a0e:	2000      	movs	r0, #0
    4a10:	e8bd 83f8 	ldmia.w	sp!, {r3, r4, r5, r6, r7, r8, r9, pc}
    4a14:	2700      	movs	r7, #0
    4a16:	2c00      	cmp	r4, #0
    4a18:	d1f0      	bne.n	49fc <pbuf_copy+0x64>
    4a1a:	896a      	ldrh	r2, [r5, #10]
    4a1c:	892b      	ldrh	r3, [r5, #8]
    4a1e:	429a      	cmp	r2, r3
    4a20:	d1f3      	bne.n	4a0a <pbuf_copy+0x72>
    4a22:	682b      	ldr	r3, [r5, #0]
    4a24:	2b00      	cmp	r3, #0
    4a26:	d0f0      	beq.n	4a0a <pbuf_copy+0x72>
    4a28:	e7fe      	b.n	4a28 <pbuf_copy+0x90>
    4a2a:	bf00      	nop
    4a2c:	0000a88f 	.word	0x0000a88f

00004a30 <pbuf_copy_partial>:
    4a30:	e92d 43f8 	stmdb	sp!, {r3, r4, r5, r6, r7, r8, r9, lr}
    4a34:	4688      	mov	r8, r1
    4a36:	4617      	mov	r7, r2
    4a38:	4605      	mov	r5, r0
    4a3a:	b900      	cbnz	r0, 4a3e <pbuf_copy_partial+0xe>
    4a3c:	e7fe      	b.n	4a3c <pbuf_copy_partial+0xc>
    4a3e:	b139      	cbz	r1, 4a50 <pbuf_copy_partial+0x20>
    4a40:	f8df 9044 	ldr.w	r9, [pc, #68]	; 4a88 <pbuf_copy_partial+0x58>
    4a44:	2600      	movs	r6, #0
    4a46:	b107      	cbz	r7, 4a4a <pbuf_copy_partial+0x1a>
    4a48:	b91d      	cbnz	r5, 4a52 <pbuf_copy_partial+0x22>
    4a4a:	4630      	mov	r0, r6
    4a4c:	e8bd 83f8 	ldmia.w	sp!, {r3, r4, r5, r6, r7, r8, r9, pc}
    4a50:	e7fe      	b.n	4a50 <pbuf_copy_partial+0x20>
    4a52:	b133      	cbz	r3, 4a62 <pbuf_copy_partial+0x32>
    4a54:	8969      	ldrh	r1, [r5, #10]
    4a56:	428b      	cmp	r3, r1
    4a58:	d303      	bcc.n	4a62 <pbuf_copy_partial+0x32>
    4a5a:	1a5b      	subs	r3, r3, r1
    4a5c:	b29b      	uxth	r3, r3
    4a5e:	682d      	ldr	r5, [r5, #0]
    4a60:	e7f1      	b.n	4a46 <pbuf_copy_partial+0x16>
    4a62:	896c      	ldrh	r4, [r5, #10]
    4a64:	6869      	ldr	r1, [r5, #4]
    4a66:	1ae4      	subs	r4, r4, r3
    4a68:	b2a4      	uxth	r4, r4
    4a6a:	42bc      	cmp	r4, r7
    4a6c:	bf28      	it	cs
    4a6e:	463c      	movcs	r4, r7
    4a70:	4622      	mov	r2, r4
    4a72:	4419      	add	r1, r3
    4a74:	eb08 0006 	add.w	r0, r8, r6
    4a78:	4426      	add	r6, r4
    4a7a:	1b3c      	subs	r4, r7, r4
    4a7c:	47c8      	blx	r9
    4a7e:	b2b6      	uxth	r6, r6
    4a80:	b2a7      	uxth	r7, r4
    4a82:	2300      	movs	r3, #0
    4a84:	e7eb      	b.n	4a5e <pbuf_copy_partial+0x2e>
    4a86:	bf00      	nop
    4a88:	0000a88f 	.word	0x0000a88f

00004a8c <tcp_new_port>:
    4a8c:	4a11      	ldr	r2, [pc, #68]	; (4ad4 <tcp_new_port+0x48>)
    4a8e:	b5f0      	push	{r4, r5, r6, r7, lr}
    4a90:	8810      	ldrh	r0, [r2, #0]
    4a92:	4e11      	ldr	r6, [pc, #68]	; (4ad8 <tcp_new_port+0x4c>)
    4a94:	f44f 4380 	mov.w	r3, #16384	; 0x4000
    4a98:	f64f 75ff 	movw	r5, #65535	; 0xffff
    4a9c:	42a8      	cmp	r0, r5
    4a9e:	bf1a      	itte	ne
    4aa0:	3001      	addne	r0, #1
    4aa2:	b280      	uxthne	r0, r0
    4aa4:	f44f 4040 	moveq.w	r0, #49152	; 0xc000
    4aa8:	2100      	movs	r1, #0
    4aaa:	f856 4021 	ldr.w	r4, [r6, r1, lsl #2]
    4aae:	6824      	ldr	r4, [r4, #0]
    4ab0:	b924      	cbnz	r4, 4abc <tcp_new_port+0x30>
    4ab2:	3101      	adds	r1, #1
    4ab4:	2904      	cmp	r1, #4
    4ab6:	d1f8      	bne.n	4aaa <tcp_new_port+0x1e>
    4ab8:	8010      	strh	r0, [r2, #0]
    4aba:	bdf0      	pop	{r4, r5, r6, r7, pc}
    4abc:	8b67      	ldrh	r7, [r4, #26]
    4abe:	4287      	cmp	r7, r0
    4ac0:	d106      	bne.n	4ad0 <tcp_new_port+0x44>
    4ac2:	3b01      	subs	r3, #1
    4ac4:	b29b      	uxth	r3, r3
    4ac6:	2b00      	cmp	r3, #0
    4ac8:	d1e8      	bne.n	4a9c <tcp_new_port+0x10>
    4aca:	8010      	strh	r0, [r2, #0]
    4acc:	4618      	mov	r0, r3
    4ace:	bdf0      	pop	{r4, r5, r6, r7, pc}
    4ad0:	68e4      	ldr	r4, [r4, #12]
    4ad2:	e7ed      	b.n	4ab0 <tcp_new_port+0x24>
    4ad4:	2000003c 	.word	0x2000003c
    4ad8:	0000ba50 	.word	0x0000ba50

00004adc <tcp_init>:
    4adc:	4770      	bx	lr
	...

00004ae0 <tcp_bind>:
    4ae0:	b5f8      	push	{r3, r4, r5, r6, r7, lr}
    4ae2:	7e03      	ldrb	r3, [r0, #24]
    4ae4:	4604      	mov	r4, r0
    4ae6:	460d      	mov	r5, r1
    4ae8:	b103      	cbz	r3, 4aec <tcp_bind+0xc>
    4aea:	e7fe      	b.n	4aea <tcp_bind+0xa>
    4aec:	b91a      	cbnz	r2, 4af6 <tcp_bind+0x16>
    4aee:	4b16      	ldr	r3, [pc, #88]	; (4b48 <tcp_bind+0x68>)
    4af0:	4798      	blx	r3
    4af2:	4602      	mov	r2, r0
    4af4:	b308      	cbz	r0, 4b3a <tcp_bind+0x5a>
    4af6:	4f15      	ldr	r7, [pc, #84]	; (4b4c <tcp_bind+0x6c>)
    4af8:	2100      	movs	r1, #0
    4afa:	f857 3021 	ldr.w	r3, [r7, r1, lsl #2]
    4afe:	681b      	ldr	r3, [r3, #0]
    4b00:	b97b      	cbnz	r3, 4b22 <tcp_bind+0x42>
    4b02:	3101      	adds	r1, #1
    4b04:	2904      	cmp	r1, #4
    4b06:	d1f8      	bne.n	4afa <tcp_bind+0x1a>
    4b08:	b115      	cbz	r5, 4b10 <tcp_bind+0x30>
    4b0a:	682b      	ldr	r3, [r5, #0]
    4b0c:	b103      	cbz	r3, 4b10 <tcp_bind+0x30>
    4b0e:	6023      	str	r3, [r4, #0]
    4b10:	4b0f      	ldr	r3, [pc, #60]	; (4b50 <tcp_bind+0x70>)
    4b12:	8362      	strh	r2, [r4, #26]
    4b14:	681a      	ldr	r2, [r3, #0]
    4b16:	60e2      	str	r2, [r4, #12]
    4b18:	601c      	str	r4, [r3, #0]
    4b1a:	4b0e      	ldr	r3, [pc, #56]	; (4b54 <tcp_bind+0x74>)
    4b1c:	4798      	blx	r3
    4b1e:	2000      	movs	r0, #0
    4b20:	bdf8      	pop	{r3, r4, r5, r6, r7, pc}
    4b22:	8b58      	ldrh	r0, [r3, #26]
    4b24:	4290      	cmp	r0, r2
    4b26:	d106      	bne.n	4b36 <tcp_bind+0x56>
    4b28:	681e      	ldr	r6, [r3, #0]
    4b2a:	b14e      	cbz	r6, 4b40 <tcp_bind+0x60>
    4b2c:	b145      	cbz	r5, 4b40 <tcp_bind+0x60>
    4b2e:	6828      	ldr	r0, [r5, #0]
    4b30:	b130      	cbz	r0, 4b40 <tcp_bind+0x60>
    4b32:	4286      	cmp	r6, r0
    4b34:	d004      	beq.n	4b40 <tcp_bind+0x60>
    4b36:	68db      	ldr	r3, [r3, #12]
    4b38:	e7e2      	b.n	4b00 <tcp_bind+0x20>
    4b3a:	f06f 0001 	mvn.w	r0, #1
    4b3e:	bdf8      	pop	{r3, r4, r5, r6, r7, pc}
    4b40:	f06f 0007 	mvn.w	r0, #7
    4b44:	bdf8      	pop	{r3, r4, r5, r6, r7, pc}
    4b46:	bf00      	nop
    4b48:	00004a8d 	.word	0x00004a8d
    4b4c:	0000ba50 	.word	0x0000ba50
    4b50:	200161d4 	.word	0x200161d4
    4b54:	000071f1 	.word	0x000071f1

00004b58 <tcp_update_rcv_ann_wnd>:
    4b58:	b570      	push	{r4, r5, r6, lr}
    4b5a:	6b01      	ldr	r1, [r0, #48]	; 0x30
    4b5c:	8d85      	ldrh	r5, [r0, #44]	; 0x2c
    4b5e:	6a84      	ldr	r4, [r0, #40]	; 0x28
    4b60:	4602      	mov	r2, r0
    4b62:	1a6b      	subs	r3, r5, r1
    4b64:	1918      	adds	r0, r3, r4
    4b66:	8ed3      	ldrh	r3, [r2, #54]	; 0x36
    4b68:	f640 3668 	movw	r6, #2920	; 0xb68
    4b6c:	42b3      	cmp	r3, r6
    4b6e:	bf94      	ite	ls
    4b70:	1ac3      	subls	r3, r0, r3
    4b72:	1b83      	subhi	r3, r0, r6
    4b74:	2b00      	cmp	r3, #0
    4b76:	db01      	blt.n	4b7c <tcp_update_rcv_ann_wnd+0x24>
    4b78:	85d5      	strh	r5, [r2, #46]	; 0x2e
    4b7a:	bd70      	pop	{r4, r5, r6, pc}
    4b7c:	1a63      	subs	r3, r4, r1
    4b7e:	2b00      	cmp	r3, #0
    4b80:	f04f 0000 	mov.w	r0, #0
    4b84:	bfd6      	itet	le
    4b86:	1b09      	suble	r1, r1, r4
    4b88:	85d0      	strhgt	r0, [r2, #46]	; 0x2e
    4b8a:	85d1      	strhle	r1, [r2, #46]	; 0x2e
    4b8c:	bd70      	pop	{r4, r5, r6, pc}
	...

00004b90 <tcp_recved>:
    4b90:	8d83      	ldrh	r3, [r0, #44]	; 0x2c
    4b92:	4419      	add	r1, r3
    4b94:	b289      	uxth	r1, r1
    4b96:	f241 63d0 	movw	r3, #5840	; 0x16d0
    4b9a:	4299      	cmp	r1, r3
    4b9c:	b510      	push	{r4, lr}
    4b9e:	bf8c      	ite	hi
    4ba0:	8583      	strhhi	r3, [r0, #44]	; 0x2c
    4ba2:	8581      	strhls	r1, [r0, #44]	; 0x2c
    4ba4:	4b08      	ldr	r3, [pc, #32]	; (4bc8 <tcp_recved+0x38>)
    4ba6:	4604      	mov	r4, r0
    4ba8:	4798      	blx	r3
    4baa:	f240 53b3 	movw	r3, #1459	; 0x5b3
    4bae:	4298      	cmp	r0, r3
    4bb0:	dd08      	ble.n	4bc4 <tcp_recved+0x34>
    4bb2:	7fa3      	ldrb	r3, [r4, #30]
    4bb4:	f043 0302 	orr.w	r3, r3, #2
    4bb8:	77a3      	strb	r3, [r4, #30]
    4bba:	4620      	mov	r0, r4
    4bbc:	4b03      	ldr	r3, [pc, #12]	; (4bcc <tcp_recved+0x3c>)
    4bbe:	e8bd 4010 	ldmia.w	sp!, {r4, lr}
    4bc2:	4718      	bx	r3
    4bc4:	bd10      	pop	{r4, pc}
    4bc6:	bf00      	nop
    4bc8:	00004b59 	.word	0x00004b59
    4bcc:	00006c3d 	.word	0x00006c3d

00004bd0 <tcp_seg_free>:
    4bd0:	b510      	push	{r4, lr}
    4bd2:	4604      	mov	r4, r0
    4bd4:	b148      	cbz	r0, 4bea <tcp_seg_free+0x1a>
    4bd6:	6840      	ldr	r0, [r0, #4]
    4bd8:	b108      	cbz	r0, 4bde <tcp_seg_free+0xe>
    4bda:	4b04      	ldr	r3, [pc, #16]	; (4bec <tcp_seg_free+0x1c>)
    4bdc:	4798      	blx	r3
    4bde:	4621      	mov	r1, r4
    4be0:	2003      	movs	r0, #3
    4be2:	4b03      	ldr	r3, [pc, #12]	; (4bf0 <tcp_seg_free+0x20>)
    4be4:	e8bd 4010 	ldmia.w	sp!, {r4, lr}
    4be8:	4718      	bx	r3
    4bea:	bd10      	pop	{r4, pc}
    4bec:	00004785 	.word	0x00004785
    4bf0:	00004559 	.word	0x00004559

00004bf4 <tcp_segs_free>:
    4bf4:	b538      	push	{r3, r4, r5, lr}
    4bf6:	4c03      	ldr	r4, [pc, #12]	; (4c04 <tcp_segs_free+0x10>)
    4bf8:	b900      	cbnz	r0, 4bfc <tcp_segs_free+0x8>
    4bfa:	bd38      	pop	{r3, r4, r5, pc}
    4bfc:	6805      	ldr	r5, [r0, #0]
    4bfe:	47a0      	blx	r4
    4c00:	4628      	mov	r0, r5
    4c02:	e7f9      	b.n	4bf8 <tcp_segs_free+0x4>
    4c04:	00004bd1 	.word	0x00004bd1

00004c08 <tcp_seg_copy>:
    4c08:	b538      	push	{r3, r4, r5, lr}
    4c0a:	4604      	mov	r4, r0
    4c0c:	4b09      	ldr	r3, [pc, #36]	; (4c34 <tcp_seg_copy+0x2c>)
    4c0e:	2003      	movs	r0, #3
    4c10:	4798      	blx	r3
    4c12:	4605      	mov	r5, r0
    4c14:	b160      	cbz	r0, 4c30 <tcp_seg_copy+0x28>
    4c16:	4620      	mov	r0, r4
    4c18:	462b      	mov	r3, r5
    4c1a:	f104 0210 	add.w	r2, r4, #16
    4c1e:	f850 1b04 	ldr.w	r1, [r0], #4
    4c22:	f843 1b04 	str.w	r1, [r3], #4
    4c26:	4290      	cmp	r0, r2
    4c28:	d1f9      	bne.n	4c1e <tcp_seg_copy+0x16>
    4c2a:	6868      	ldr	r0, [r5, #4]
    4c2c:	4b02      	ldr	r3, [pc, #8]	; (4c38 <tcp_seg_copy+0x30>)
    4c2e:	4798      	blx	r3
    4c30:	4628      	mov	r0, r5
    4c32:	bd38      	pop	{r3, r4, r5, pc}
    4c34:	00004539 	.word	0x00004539
    4c38:	00004959 	.word	0x00004959

00004c3c <tcp_arg>:
    4c3c:	6101      	str	r1, [r0, #16]
    4c3e:	4770      	bx	lr

00004c40 <tcp_recv>:
    4c40:	f8c0 1080 	str.w	r1, [r0, #128]	; 0x80
    4c44:	4770      	bx	lr

00004c46 <tcp_sent>:
    4c46:	67c1      	str	r1, [r0, #124]	; 0x7c
    4c48:	4770      	bx	lr

00004c4a <tcp_err>:
    4c4a:	f8c0 108c 	str.w	r1, [r0, #140]	; 0x8c
    4c4e:	4770      	bx	lr

00004c50 <tcp_accept>:
    4c50:	6141      	str	r1, [r0, #20]
    4c52:	4770      	bx	lr

00004c54 <tcp_poll>:
    4c54:	f8c0 1088 	str.w	r1, [r0, #136]	; 0x88
    4c58:	f880 2020 	strb.w	r2, [r0, #32]
    4c5c:	4770      	bx	lr
	...

00004c60 <tcp_pcb_purge>:
    4c60:	7e03      	ldrb	r3, [r0, #24]
    4c62:	2b01      	cmp	r3, #1
    4c64:	b570      	push	{r4, r5, r6, lr}
    4c66:	4604      	mov	r4, r0
    4c68:	d917      	bls.n	4c9a <tcp_pcb_purge+0x3a>
    4c6a:	2b0a      	cmp	r3, #10
    4c6c:	d015      	beq.n	4c9a <tcp_pcb_purge+0x3a>
    4c6e:	6f80      	ldr	r0, [r0, #120]	; 0x78
    4c70:	b118      	cbz	r0, 4c7a <tcp_pcb_purge+0x1a>
    4c72:	4b0a      	ldr	r3, [pc, #40]	; (4c9c <tcp_pcb_purge+0x3c>)
    4c74:	4798      	blx	r3
    4c76:	2300      	movs	r3, #0
    4c78:	67a3      	str	r3, [r4, #120]	; 0x78
    4c7a:	4e09      	ldr	r6, [pc, #36]	; (4ca0 <tcp_pcb_purge+0x40>)
    4c7c:	6f60      	ldr	r0, [r4, #116]	; 0x74
    4c7e:	47b0      	blx	r6
    4c80:	2500      	movs	r5, #0
    4c82:	f64f 73ff 	movw	r3, #65535	; 0xffff
    4c86:	86a3      	strh	r3, [r4, #52]	; 0x34
    4c88:	6ee0      	ldr	r0, [r4, #108]	; 0x6c
    4c8a:	6765      	str	r5, [r4, #116]	; 0x74
    4c8c:	47b0      	blx	r6
    4c8e:	6f20      	ldr	r0, [r4, #112]	; 0x70
    4c90:	47b0      	blx	r6
    4c92:	66e5      	str	r5, [r4, #108]	; 0x6c
    4c94:	6725      	str	r5, [r4, #112]	; 0x70
    4c96:	f8a4 506a 	strh.w	r5, [r4, #106]	; 0x6a
    4c9a:	bd70      	pop	{r4, r5, r6, pc}
    4c9c:	00004785 	.word	0x00004785
    4ca0:	00004bf5 	.word	0x00004bf5

00004ca4 <tcp_slowtmr>:
    4ca4:	e92d 4ff0 	stmdb	sp!, {r4, r5, r6, r7, r8, r9, sl, fp, lr}
    4ca8:	4dad      	ldr	r5, [pc, #692]	; (4f60 <tcp_slowtmr+0x2bc>)
    4caa:	4fae      	ldr	r7, [pc, #696]	; (4f64 <tcp_slowtmr+0x2c0>)
    4cac:	682b      	ldr	r3, [r5, #0]
    4cae:	f8df 92e4 	ldr.w	r9, [pc, #740]	; 4f94 <tcp_slowtmr+0x2f0>
    4cb2:	3301      	adds	r3, #1
    4cb4:	602b      	str	r3, [r5, #0]
    4cb6:	783b      	ldrb	r3, [r7, #0]
    4cb8:	b085      	sub	sp, #20
    4cba:	3301      	adds	r3, #1
    4cbc:	703b      	strb	r3, [r7, #0]
    4cbe:	9702      	str	r7, [sp, #8]
    4cc0:	4ba9      	ldr	r3, [pc, #676]	; (4f68 <tcp_slowtmr+0x2c4>)
    4cc2:	f8df b2d4 	ldr.w	fp, [pc, #724]	; 4f98 <tcp_slowtmr+0x2f4>
    4cc6:	681c      	ldr	r4, [r3, #0]
    4cc8:	2600      	movs	r6, #0
    4cca:	4698      	mov	r8, r3
    4ccc:	b95c      	cbnz	r4, 4ce6 <tcp_slowtmr+0x42>
    4cce:	4fa7      	ldr	r7, [pc, #668]	; (4f6c <tcp_slowtmr+0x2c8>)
    4cd0:	f8df 82c4 	ldr.w	r8, [pc, #708]	; 4f98 <tcp_slowtmr+0x2f4>
    4cd4:	683e      	ldr	r6, [r7, #0]
    4cd6:	f8df 92a4 	ldr.w	r9, [pc, #676]	; 4f7c <tcp_slowtmr+0x2d8>
    4cda:	2e00      	cmp	r6, #0
    4cdc:	f040 8129 	bne.w	4f32 <tcp_slowtmr+0x28e>
    4ce0:	b005      	add	sp, #20
    4ce2:	e8bd 8ff0 	ldmia.w	sp!, {r4, r5, r6, r7, r8, r9, sl, fp, pc}
    4ce6:	9b02      	ldr	r3, [sp, #8]
    4ce8:	f894 2021 	ldrb.w	r2, [r4, #33]	; 0x21
    4cec:	781b      	ldrb	r3, [r3, #0]
    4cee:	429a      	cmp	r2, r3
    4cf0:	d105      	bne.n	4cfe <tcp_slowtmr+0x5a>
    4cf2:	f8d4 a00c 	ldr.w	sl, [r4, #12]
    4cf6:	4634      	mov	r4, r6
    4cf8:	4626      	mov	r6, r4
    4cfa:	4654      	mov	r4, sl
    4cfc:	e7e6      	b.n	4ccc <tcp_slowtmr+0x28>
    4cfe:	7e21      	ldrb	r1, [r4, #24]
    4d00:	f884 3021 	strb.w	r3, [r4, #33]	; 0x21
    4d04:	2902      	cmp	r1, #2
    4d06:	f894 0046 	ldrb.w	r0, [r4, #70]	; 0x46
    4d0a:	d102      	bne.n	4d12 <tcp_slowtmr+0x6e>
    4d0c:	2806      	cmp	r0, #6
    4d0e:	f000 80cd 	beq.w	4eac <tcp_slowtmr+0x208>
    4d12:	280c      	cmp	r0, #12
    4d14:	f000 80ca 	beq.w	4eac <tcp_slowtmr+0x208>
    4d18:	f894 7095 	ldrb.w	r7, [r4, #149]	; 0x95
    4d1c:	2f00      	cmp	r7, #0
    4d1e:	f000 808e 	beq.w	4e3e <tcp_slowtmr+0x19a>
    4d22:	4993      	ldr	r1, [pc, #588]	; (4f70 <tcp_slowtmr+0x2cc>)
    4d24:	f894 2094 	ldrb.w	r2, [r4, #148]	; 0x94
    4d28:	4439      	add	r1, r7
    4d2a:	3201      	adds	r2, #1
    4d2c:	7bc9      	ldrb	r1, [r1, #15]
    4d2e:	b2d2      	uxtb	r2, r2
    4d30:	4291      	cmp	r1, r2
    4d32:	f884 2094 	strb.w	r2, [r4, #148]	; 0x94
    4d36:	d974      	bls.n	4e22 <tcp_slowtmr+0x17e>
    4d38:	2700      	movs	r7, #0
    4d3a:	7e22      	ldrb	r2, [r4, #24]
    4d3c:	2a06      	cmp	r2, #6
    4d3e:	d109      	bne.n	4d54 <tcp_slowtmr+0xb0>
    4d40:	7fa1      	ldrb	r1, [r4, #30]
    4d42:	06cb      	lsls	r3, r1, #27
    4d44:	d506      	bpl.n	4d54 <tcp_slowtmr+0xb0>
    4d46:	6829      	ldr	r1, [r5, #0]
    4d48:	6a60      	ldr	r0, [r4, #36]	; 0x24
    4d4a:	1a09      	subs	r1, r1, r0
    4d4c:	2928      	cmp	r1, #40	; 0x28
    4d4e:	bf84      	itt	hi
    4d50:	1c7b      	addhi	r3, r7, #1
    4d52:	b2df      	uxtbhi	r7, r3
    4d54:	f894 a008 	ldrb.w	sl, [r4, #8]
    4d58:	f01a 0a08 	ands.w	sl, sl, #8
    4d5c:	d018      	beq.n	4d90 <tcp_slowtmr+0xec>
    4d5e:	2a04      	cmp	r2, #4
    4d60:	d002      	beq.n	4d68 <tcp_slowtmr+0xc4>
    4d62:	2a07      	cmp	r2, #7
    4d64:	f040 80b5 	bne.w	4ed2 <tcp_slowtmr+0x22e>
    4d68:	6828      	ldr	r0, [r5, #0]
    4d6a:	6a62      	ldr	r2, [r4, #36]	; 0x24
    4d6c:	f8d4 3090 	ldr.w	r3, [r4, #144]	; 0x90
    4d70:	1a80      	subs	r0, r0, r2
    4d72:	f503 2124 	add.w	r1, r3, #671744	; 0xa4000
    4d76:	f601 41b8 	addw	r1, r1, #3256	; 0xcb8
    4d7a:	f44f 7efa 	mov.w	lr, #500	; 0x1f4
    4d7e:	fbb1 f1fe 	udiv	r1, r1, lr
    4d82:	4288      	cmp	r0, r1
    4d84:	f240 8094 	bls.w	4eb0 <tcp_slowtmr+0x20c>
    4d88:	1c7b      	adds	r3, r7, #1
    4d8a:	b2df      	uxtb	r7, r3
    4d8c:	f04f 0a01 	mov.w	sl, #1
    4d90:	6f60      	ldr	r0, [r4, #116]	; 0x74
    4d92:	b168      	cbz	r0, 4db0 <tcp_slowtmr+0x10c>
    4d94:	682a      	ldr	r2, [r5, #0]
    4d96:	6a61      	ldr	r1, [r4, #36]	; 0x24
    4d98:	1a51      	subs	r1, r2, r1
    4d9a:	f9b4 2044 	ldrsh.w	r2, [r4, #68]	; 0x44
    4d9e:	eb02 0242 	add.w	r2, r2, r2, lsl #1
    4da2:	ebb1 0f42 	cmp.w	r1, r2, lsl #1
    4da6:	d303      	bcc.n	4db0 <tcp_slowtmr+0x10c>
    4da8:	4a72      	ldr	r2, [pc, #456]	; (4f74 <tcp_slowtmr+0x2d0>)
    4daa:	4790      	blx	r2
    4dac:	2200      	movs	r2, #0
    4dae:	6762      	str	r2, [r4, #116]	; 0x74
    4db0:	7e22      	ldrb	r2, [r4, #24]
    4db2:	2a03      	cmp	r2, #3
    4db4:	f040 8090 	bne.w	4ed8 <tcp_slowtmr+0x234>
    4db8:	682a      	ldr	r2, [r5, #0]
    4dba:	6a61      	ldr	r1, [r4, #36]	; 0x24
    4dbc:	1a52      	subs	r2, r2, r1
    4dbe:	2a28      	cmp	r2, #40	; 0x28
    4dc0:	d802      	bhi.n	4dc8 <tcp_slowtmr+0x124>
    4dc2:	2f00      	cmp	r7, #0
    4dc4:	f000 8093 	beq.w	4eee <tcp_slowtmr+0x24a>
    4dc8:	4620      	mov	r0, r4
    4dca:	47d8      	blx	fp
    4dcc:	68e3      	ldr	r3, [r4, #12]
    4dce:	2e00      	cmp	r6, #0
    4dd0:	f000 808a 	beq.w	4ee8 <tcp_slowtmr+0x244>
    4dd4:	60f3      	str	r3, [r6, #12]
    4dd6:	f1ba 0f00 	cmp.w	sl, #0
    4dda:	d009      	beq.n	4df0 <tcp_slowtmr+0x14c>
    4ddc:	8ba3      	ldrh	r3, [r4, #28]
    4dde:	9301      	str	r3, [sp, #4]
    4de0:	8b63      	ldrh	r3, [r4, #26]
    4de2:	9300      	str	r3, [sp, #0]
    4de4:	4622      	mov	r2, r4
    4de6:	1d23      	adds	r3, r4, #4
    4de8:	6aa1      	ldr	r1, [r4, #40]	; 0x28
    4dea:	6d20      	ldr	r0, [r4, #80]	; 0x50
    4dec:	4f62      	ldr	r7, [pc, #392]	; (4f78 <tcp_slowtmr+0x2d4>)
    4dee:	47b8      	blx	r7
    4df0:	6922      	ldr	r2, [r4, #16]
    4df2:	f8d4 708c 	ldr.w	r7, [r4, #140]	; 0x8c
    4df6:	f8d4 a00c 	ldr.w	sl, [r4, #12]
    4dfa:	9203      	str	r2, [sp, #12]
    4dfc:	4621      	mov	r1, r4
    4dfe:	2001      	movs	r0, #1
    4e00:	4c5e      	ldr	r4, [pc, #376]	; (4f7c <tcp_slowtmr+0x2d8>)
    4e02:	47a0      	blx	r4
    4e04:	2100      	movs	r1, #0
    4e06:	f889 1000 	strb.w	r1, [r9]
    4e0a:	b127      	cbz	r7, 4e16 <tcp_slowtmr+0x172>
    4e0c:	9a03      	ldr	r2, [sp, #12]
    4e0e:	f06f 0109 	mvn.w	r1, #9
    4e12:	4610      	mov	r0, r2
    4e14:	47b8      	blx	r7
    4e16:	f899 3000 	ldrb.w	r3, [r9]
    4e1a:	2b00      	cmp	r3, #0
    4e1c:	f43f af6b 	beq.w	4cf6 <tcp_slowtmr+0x52>
    4e20:	e74e      	b.n	4cc0 <tcp_slowtmr+0x1c>
    4e22:	2f06      	cmp	r7, #6
    4e24:	bf98      	it	ls
    4e26:	1c7b      	addls	r3, r7, #1
    4e28:	f04f 0200 	mov.w	r2, #0
    4e2c:	bf98      	it	ls
    4e2e:	f884 3095 	strbls.w	r3, [r4, #149]	; 0x95
    4e32:	f884 2094 	strb.w	r2, [r4, #148]	; 0x94
    4e36:	4620      	mov	r0, r4
    4e38:	4b51      	ldr	r3, [pc, #324]	; (4f80 <tcp_slowtmr+0x2dc>)
    4e3a:	4798      	blx	r3
    4e3c:	e77c      	b.n	4d38 <tcp_slowtmr+0x94>
    4e3e:	f9b4 2034 	ldrsh.w	r2, [r4, #52]	; 0x34
    4e42:	2a00      	cmp	r2, #0
    4e44:	bfa4      	itt	ge
    4e46:	3201      	addge	r2, #1
    4e48:	86a2      	strhge	r2, [r4, #52]	; 0x34
    4e4a:	6f22      	ldr	r2, [r4, #112]	; 0x70
    4e4c:	2a00      	cmp	r2, #0
    4e4e:	f43f af73 	beq.w	4d38 <tcp_slowtmr+0x94>
    4e52:	f9b4 e034 	ldrsh.w	lr, [r4, #52]	; 0x34
    4e56:	f9b4 2044 	ldrsh.w	r2, [r4, #68]	; 0x44
    4e5a:	4596      	cmp	lr, r2
    4e5c:	f6ff af6c 	blt.w	4d38 <tcp_slowtmr+0x94>
    4e60:	2902      	cmp	r1, #2
    4e62:	d00b      	beq.n	4e7c <tcp_slowtmr+0x1d8>
    4e64:	f9b4 1040 	ldrsh.w	r1, [r4, #64]	; 0x40
    4e68:	f9b4 2042 	ldrsh.w	r2, [r4, #66]	; 0x42
    4e6c:	eb02 02e1 	add.w	r2, r2, r1, asr #3
    4e70:	493f      	ldr	r1, [pc, #252]	; (4f70 <tcp_slowtmr+0x2cc>)
    4e72:	4401      	add	r1, r0
    4e74:	7dc9      	ldrb	r1, [r1, #23]
    4e76:	408a      	lsls	r2, r1
    4e78:	f8a4 2044 	strh.w	r2, [r4, #68]	; 0x44
    4e7c:	2200      	movs	r2, #0
    4e7e:	f8b4 104c 	ldrh.w	r1, [r4, #76]	; 0x4c
    4e82:	86a2      	strh	r2, [r4, #52]	; 0x34
    4e84:	f8b4 2060 	ldrh.w	r2, [r4, #96]	; 0x60
    4e88:	428a      	cmp	r2, r1
    4e8a:	bf28      	it	cs
    4e8c:	460a      	movcs	r2, r1
    4e8e:	8ee1      	ldrh	r1, [r4, #54]	; 0x36
    4e90:	f8a4 104c 	strh.w	r1, [r4, #76]	; 0x4c
    4e94:	0048      	lsls	r0, r1, #1
    4e96:	0852      	lsrs	r2, r2, #1
    4e98:	4282      	cmp	r2, r0
    4e9a:	f8a4 204e 	strh.w	r2, [r4, #78]	; 0x4e
    4e9e:	bfb8      	it	lt
    4ea0:	f8a4 004e 	strhlt.w	r0, [r4, #78]	; 0x4e
    4ea4:	4a37      	ldr	r2, [pc, #220]	; (4f84 <tcp_slowtmr+0x2e0>)
    4ea6:	4620      	mov	r0, r4
    4ea8:	4790      	blx	r2
    4eaa:	e746      	b.n	4d3a <tcp_slowtmr+0x96>
    4eac:	2701      	movs	r7, #1
    4eae:	e744      	b.n	4d3a <tcp_slowtmr+0x96>
    4eb0:	f894 2096 	ldrb.w	r2, [r4, #150]	; 0x96
    4eb4:	4934      	ldr	r1, [pc, #208]	; (4f88 <tcp_slowtmr+0x2e4>)
    4eb6:	fb01 3202 	mla	r2, r1, r2, r3
    4eba:	fbb2 f2fe 	udiv	r2, r2, lr
    4ebe:	4290      	cmp	r0, r2
    4ec0:	d907      	bls.n	4ed2 <tcp_slowtmr+0x22e>
    4ec2:	4a32      	ldr	r2, [pc, #200]	; (4f8c <tcp_slowtmr+0x2e8>)
    4ec4:	4620      	mov	r0, r4
    4ec6:	4790      	blx	r2
    4ec8:	f894 2096 	ldrb.w	r2, [r4, #150]	; 0x96
    4ecc:	3201      	adds	r2, #1
    4ece:	f884 2096 	strb.w	r2, [r4, #150]	; 0x96
    4ed2:	f04f 0a00 	mov.w	sl, #0
    4ed6:	e75b      	b.n	4d90 <tcp_slowtmr+0xec>
    4ed8:	2a09      	cmp	r2, #9
    4eda:	f47f af72 	bne.w	4dc2 <tcp_slowtmr+0x11e>
    4ede:	682a      	ldr	r2, [r5, #0]
    4ee0:	6a61      	ldr	r1, [r4, #36]	; 0x24
    4ee2:	1a52      	subs	r2, r2, r1
    4ee4:	2af0      	cmp	r2, #240	; 0xf0
    4ee6:	e76b      	b.n	4dc0 <tcp_slowtmr+0x11c>
    4ee8:	f8c8 3000 	str.w	r3, [r8]
    4eec:	e773      	b.n	4dd6 <tcp_slowtmr+0x132>
    4eee:	7fe2      	ldrb	r2, [r4, #31]
    4ef0:	f894 1020 	ldrb.w	r1, [r4, #32]
    4ef4:	f8d4 a00c 	ldr.w	sl, [r4, #12]
    4ef8:	3201      	adds	r2, #1
    4efa:	b2d2      	uxtb	r2, r2
    4efc:	4291      	cmp	r1, r2
    4efe:	77e2      	strb	r2, [r4, #31]
    4f00:	f63f aefa 	bhi.w	4cf8 <tcp_slowtmr+0x54>
    4f04:	f8d4 2088 	ldr.w	r2, [r4, #136]	; 0x88
    4f08:	77e7      	strb	r7, [r4, #31]
    4f0a:	f889 7000 	strb.w	r7, [r9]
    4f0e:	b172      	cbz	r2, 4f2e <tcp_slowtmr+0x28a>
    4f10:	4621      	mov	r1, r4
    4f12:	6920      	ldr	r0, [r4, #16]
    4f14:	4790      	blx	r2
    4f16:	f899 3000 	ldrb.w	r3, [r9]
    4f1a:	2b00      	cmp	r3, #0
    4f1c:	f47f aed0 	bne.w	4cc0 <tcp_slowtmr+0x1c>
    4f20:	2800      	cmp	r0, #0
    4f22:	f47f aee9 	bne.w	4cf8 <tcp_slowtmr+0x54>
    4f26:	4620      	mov	r0, r4
    4f28:	4b19      	ldr	r3, [pc, #100]	; (4f90 <tcp_slowtmr+0x2ec>)
    4f2a:	4798      	blx	r3
    4f2c:	e6e4      	b.n	4cf8 <tcp_slowtmr+0x54>
    4f2e:	4638      	mov	r0, r7
    4f30:	e7f1      	b.n	4f16 <tcp_slowtmr+0x272>
    4f32:	682b      	ldr	r3, [r5, #0]
    4f34:	6a72      	ldr	r2, [r6, #36]	; 0x24
    4f36:	1a9b      	subs	r3, r3, r2
    4f38:	2bf0      	cmp	r3, #240	; 0xf0
    4f3a:	d80a      	bhi.n	4f52 <tcp_slowtmr+0x2ae>
    4f3c:	4634      	mov	r4, r6
    4f3e:	68f6      	ldr	r6, [r6, #12]
    4f40:	e6cb      	b.n	4cda <tcp_slowtmr+0x36>
    4f42:	60e3      	str	r3, [r4, #12]
    4f44:	f8d6 a00c 	ldr.w	sl, [r6, #12]
    4f48:	4631      	mov	r1, r6
    4f4a:	2001      	movs	r0, #1
    4f4c:	47c8      	blx	r9
    4f4e:	4656      	mov	r6, sl
    4f50:	e6c3      	b.n	4cda <tcp_slowtmr+0x36>
    4f52:	4630      	mov	r0, r6
    4f54:	47c0      	blx	r8
    4f56:	68f3      	ldr	r3, [r6, #12]
    4f58:	2c00      	cmp	r4, #0
    4f5a:	d1f2      	bne.n	4f42 <tcp_slowtmr+0x29e>
    4f5c:	603b      	str	r3, [r7, #0]
    4f5e:	e7f1      	b.n	4f44 <tcp_slowtmr+0x2a0>
    4f60:	200161c8 	.word	0x200161c8
    4f64:	2000809d 	.word	0x2000809d
    4f68:	200161c4 	.word	0x200161c4
    4f6c:	200161d8 	.word	0x200161d8
    4f70:	0000ba50 	.word	0x0000ba50
    4f74:	00004bf5 	.word	0x00004bf5
    4f78:	00006ecd 	.word	0x00006ecd
    4f7c:	00004559 	.word	0x00004559
    4f80:	000070cd 	.word	0x000070cd
    4f84:	00006f7d 	.word	0x00006f7d
    4f88:	000124f8 	.word	0x000124f8
    4f8c:	00007061 	.word	0x00007061
    4f90:	00006c3d 	.word	0x00006c3d
    4f94:	200161c0 	.word	0x200161c0
    4f98:	00004c61 	.word	0x00004c61

00004f9c <tcp_pcb_remove>:
    4f9c:	6803      	ldr	r3, [r0, #0]
    4f9e:	428b      	cmp	r3, r1
    4fa0:	b510      	push	{r4, lr}
    4fa2:	460c      	mov	r4, r1
    4fa4:	d117      	bne.n	4fd6 <tcp_pcb_remove+0x3a>
    4fa6:	68cb      	ldr	r3, [r1, #12]
    4fa8:	6003      	str	r3, [r0, #0]
    4faa:	2300      	movs	r3, #0
    4fac:	60e3      	str	r3, [r4, #12]
    4fae:	4620      	mov	r0, r4
    4fb0:	4b12      	ldr	r3, [pc, #72]	; (4ffc <tcp_pcb_remove+0x60>)
    4fb2:	4798      	blx	r3
    4fb4:	7e23      	ldrb	r3, [r4, #24]
    4fb6:	2b0a      	cmp	r3, #10
    4fb8:	d00a      	beq.n	4fd0 <tcp_pcb_remove+0x34>
    4fba:	2b01      	cmp	r3, #1
    4fbc:	d008      	beq.n	4fd0 <tcp_pcb_remove+0x34>
    4fbe:	7fa3      	ldrb	r3, [r4, #30]
    4fc0:	07da      	lsls	r2, r3, #31
    4fc2:	d505      	bpl.n	4fd0 <tcp_pcb_remove+0x34>
    4fc4:	f043 0302 	orr.w	r3, r3, #2
    4fc8:	77a3      	strb	r3, [r4, #30]
    4fca:	4620      	mov	r0, r4
    4fcc:	4b0c      	ldr	r3, [pc, #48]	; (5000 <tcp_pcb_remove+0x64>)
    4fce:	4798      	blx	r3
    4fd0:	2300      	movs	r3, #0
    4fd2:	7623      	strb	r3, [r4, #24]
    4fd4:	bd10      	pop	{r4, pc}
    4fd6:	4a0b      	ldr	r2, [pc, #44]	; (5004 <tcp_pcb_remove+0x68>)
    4fd8:	2100      	movs	r1, #0
    4fda:	6013      	str	r3, [r2, #0]
    4fdc:	b91b      	cbnz	r3, 4fe6 <tcp_pcb_remove+0x4a>
    4fde:	2900      	cmp	r1, #0
    4fe0:	d0e3      	beq.n	4faa <tcp_pcb_remove+0xe>
    4fe2:	6013      	str	r3, [r2, #0]
    4fe4:	e7e1      	b.n	4faa <tcp_pcb_remove+0xe>
    4fe6:	68d8      	ldr	r0, [r3, #12]
    4fe8:	4284      	cmp	r4, r0
    4fea:	d104      	bne.n	4ff6 <tcp_pcb_remove+0x5a>
    4fec:	b101      	cbz	r1, 4ff0 <tcp_pcb_remove+0x54>
    4fee:	6013      	str	r3, [r2, #0]
    4ff0:	68e2      	ldr	r2, [r4, #12]
    4ff2:	60da      	str	r2, [r3, #12]
    4ff4:	e7d9      	b.n	4faa <tcp_pcb_remove+0xe>
    4ff6:	2101      	movs	r1, #1
    4ff8:	4603      	mov	r3, r0
    4ffa:	e7ef      	b.n	4fdc <tcp_pcb_remove+0x40>
    4ffc:	00004c61 	.word	0x00004c61
    5000:	00006c3d 	.word	0x00006c3d
    5004:	200161d0 	.word	0x200161d0

00005008 <tcp_close_shutdown>:
    5008:	b537      	push	{r0, r1, r2, r4, r5, lr}
    500a:	7e03      	ldrb	r3, [r0, #24]
    500c:	4604      	mov	r4, r0
    500e:	2900      	cmp	r1, #0
    5010:	d041      	beq.n	5096 <tcp_close_shutdown+0x8e>
    5012:	2b04      	cmp	r3, #4
    5014:	d001      	beq.n	501a <tcp_close_shutdown+0x12>
    5016:	2b07      	cmp	r3, #7
    5018:	d13d      	bne.n	5096 <tcp_close_shutdown+0x8e>
    501a:	6fa2      	ldr	r2, [r4, #120]	; 0x78
    501c:	b922      	cbnz	r2, 5028 <tcp_close_shutdown+0x20>
    501e:	8da1      	ldrh	r1, [r4, #44]	; 0x2c
    5020:	f241 62d0 	movw	r2, #5840	; 0x16d0
    5024:	4291      	cmp	r1, r2
    5026:	d036      	beq.n	5096 <tcp_close_shutdown+0x8e>
    5028:	8ba3      	ldrh	r3, [r4, #28]
    502a:	9301      	str	r3, [sp, #4]
    502c:	8b63      	ldrh	r3, [r4, #26]
    502e:	9300      	str	r3, [sp, #0]
    5030:	4622      	mov	r2, r4
    5032:	1d23      	adds	r3, r4, #4
    5034:	6aa1      	ldr	r1, [r4, #40]	; 0x28
    5036:	6d20      	ldr	r0, [r4, #80]	; 0x50
    5038:	4d42      	ldr	r5, [pc, #264]	; (5144 <tcp_close_shutdown+0x13c>)
    503a:	47a8      	blx	r5
    503c:	4b42      	ldr	r3, [pc, #264]	; (5148 <tcp_close_shutdown+0x140>)
    503e:	4620      	mov	r0, r4
    5040:	4798      	blx	r3
    5042:	4a42      	ldr	r2, [pc, #264]	; (514c <tcp_close_shutdown+0x144>)
    5044:	6813      	ldr	r3, [r2, #0]
    5046:	429c      	cmp	r4, r3
    5048:	d102      	bne.n	5050 <tcp_close_shutdown+0x48>
    504a:	68e3      	ldr	r3, [r4, #12]
    504c:	6013      	str	r3, [r2, #0]
    504e:	e00c      	b.n	506a <tcp_close_shutdown+0x62>
    5050:	4a3f      	ldr	r2, [pc, #252]	; (5150 <tcp_close_shutdown+0x148>)
    5052:	2100      	movs	r1, #0
    5054:	6013      	str	r3, [r2, #0]
    5056:	b90b      	cbnz	r3, 505c <tcp_close_shutdown+0x54>
    5058:	b139      	cbz	r1, 506a <tcp_close_shutdown+0x62>
    505a:	e7f7      	b.n	504c <tcp_close_shutdown+0x44>
    505c:	68d8      	ldr	r0, [r3, #12]
    505e:	4284      	cmp	r4, r0
    5060:	d116      	bne.n	5090 <tcp_close_shutdown+0x88>
    5062:	b101      	cbz	r1, 5066 <tcp_close_shutdown+0x5e>
    5064:	6013      	str	r3, [r2, #0]
    5066:	68e2      	ldr	r2, [r4, #12]
    5068:	60da      	str	r2, [r3, #12]
    506a:	4b3a      	ldr	r3, [pc, #232]	; (5154 <tcp_close_shutdown+0x14c>)
    506c:	2201      	movs	r2, #1
    506e:	701a      	strb	r2, [r3, #0]
    5070:	7e23      	ldrb	r3, [r4, #24]
    5072:	2500      	movs	r5, #0
    5074:	2b04      	cmp	r3, #4
    5076:	60e5      	str	r5, [r4, #12]
    5078:	d13a      	bne.n	50f0 <tcp_close_shutdown+0xe8>
    507a:	230a      	movs	r3, #10
    507c:	7623      	strb	r3, [r4, #24]
    507e:	4b36      	ldr	r3, [pc, #216]	; (5158 <tcp_close_shutdown+0x150>)
    5080:	681a      	ldr	r2, [r3, #0]
    5082:	60e2      	str	r2, [r4, #12]
    5084:	601c      	str	r4, [r3, #0]
    5086:	4b35      	ldr	r3, [pc, #212]	; (515c <tcp_close_shutdown+0x154>)
    5088:	4798      	blx	r3
    508a:	2000      	movs	r0, #0
    508c:	b003      	add	sp, #12
    508e:	bd30      	pop	{r4, r5, pc}
    5090:	2101      	movs	r1, #1
    5092:	4603      	mov	r3, r0
    5094:	e7df      	b.n	5056 <tcp_close_shutdown+0x4e>
    5096:	2b07      	cmp	r3, #7
    5098:	d8f7      	bhi.n	508a <tcp_close_shutdown+0x82>
    509a:	a201      	add	r2, pc, #4	; (adr r2, 50a0 <tcp_close_shutdown+0x98>)
    509c:	f852 f023 	ldr.w	pc, [r2, r3, lsl #2]
    50a0:	000050c1 	.word	0x000050c1
    50a4:	00005101 	.word	0x00005101
    50a8:	0000510f 	.word	0x0000510f
    50ac:	00005121 	.word	0x00005121
    50b0:	00005121 	.word	0x00005121
    50b4:	0000508b 	.word	0x0000508b
    50b8:	0000508b 	.word	0x0000508b
    50bc:	00005137 	.word	0x00005137
    50c0:	8b63      	ldrh	r3, [r4, #26]
    50c2:	b1ab      	cbz	r3, 50f0 <tcp_close_shutdown+0xe8>
    50c4:	4a26      	ldr	r2, [pc, #152]	; (5160 <tcp_close_shutdown+0x158>)
    50c6:	6813      	ldr	r3, [r2, #0]
    50c8:	429c      	cmp	r4, r3
    50ca:	d102      	bne.n	50d2 <tcp_close_shutdown+0xca>
    50cc:	68e3      	ldr	r3, [r4, #12]
    50ce:	6013      	str	r3, [r2, #0]
    50d0:	e00c      	b.n	50ec <tcp_close_shutdown+0xe4>
    50d2:	4a1f      	ldr	r2, [pc, #124]	; (5150 <tcp_close_shutdown+0x148>)
    50d4:	2100      	movs	r1, #0
    50d6:	6013      	str	r3, [r2, #0]
    50d8:	b90b      	cbnz	r3, 50de <tcp_close_shutdown+0xd6>
    50da:	b139      	cbz	r1, 50ec <tcp_close_shutdown+0xe4>
    50dc:	e7f7      	b.n	50ce <tcp_close_shutdown+0xc6>
    50de:	68d8      	ldr	r0, [r3, #12]
    50e0:	4284      	cmp	r4, r0
    50e2:	d10a      	bne.n	50fa <tcp_close_shutdown+0xf2>
    50e4:	b101      	cbz	r1, 50e8 <tcp_close_shutdown+0xe0>
    50e6:	6013      	str	r3, [r2, #0]
    50e8:	68e2      	ldr	r2, [r4, #12]
    50ea:	60da      	str	r2, [r3, #12]
    50ec:	2300      	movs	r3, #0
    50ee:	60e3      	str	r3, [r4, #12]
    50f0:	4621      	mov	r1, r4
    50f2:	2001      	movs	r0, #1
    50f4:	4b1b      	ldr	r3, [pc, #108]	; (5164 <tcp_close_shutdown+0x15c>)
    50f6:	4798      	blx	r3
    50f8:	e7c7      	b.n	508a <tcp_close_shutdown+0x82>
    50fa:	2101      	movs	r1, #1
    50fc:	4603      	mov	r3, r0
    50fe:	e7eb      	b.n	50d8 <tcp_close_shutdown+0xd0>
    5100:	4621      	mov	r1, r4
    5102:	4819      	ldr	r0, [pc, #100]	; (5168 <tcp_close_shutdown+0x160>)
    5104:	4b19      	ldr	r3, [pc, #100]	; (516c <tcp_close_shutdown+0x164>)
    5106:	4798      	blx	r3
    5108:	4621      	mov	r1, r4
    510a:	2002      	movs	r0, #2
    510c:	e7f2      	b.n	50f4 <tcp_close_shutdown+0xec>
    510e:	4621      	mov	r1, r4
    5110:	480e      	ldr	r0, [pc, #56]	; (514c <tcp_close_shutdown+0x144>)
    5112:	4b16      	ldr	r3, [pc, #88]	; (516c <tcp_close_shutdown+0x164>)
    5114:	4798      	blx	r3
    5116:	4b0f      	ldr	r3, [pc, #60]	; (5154 <tcp_close_shutdown+0x14c>)
    5118:	2001      	movs	r0, #1
    511a:	7018      	strb	r0, [r3, #0]
    511c:	4621      	mov	r1, r4
    511e:	e7e9      	b.n	50f4 <tcp_close_shutdown+0xec>
    5120:	4620      	mov	r0, r4
    5122:	4b13      	ldr	r3, [pc, #76]	; (5170 <tcp_close_shutdown+0x168>)
    5124:	4798      	blx	r3
    5126:	2800      	cmp	r0, #0
    5128:	d1b0      	bne.n	508c <tcp_close_shutdown+0x84>
    512a:	2305      	movs	r3, #5
    512c:	7623      	strb	r3, [r4, #24]
    512e:	4620      	mov	r0, r4
    5130:	4b10      	ldr	r3, [pc, #64]	; (5174 <tcp_close_shutdown+0x16c>)
    5132:	4798      	blx	r3
    5134:	e7a9      	b.n	508a <tcp_close_shutdown+0x82>
    5136:	4620      	mov	r0, r4
    5138:	4b0d      	ldr	r3, [pc, #52]	; (5170 <tcp_close_shutdown+0x168>)
    513a:	4798      	blx	r3
    513c:	2800      	cmp	r0, #0
    513e:	d1a5      	bne.n	508c <tcp_close_shutdown+0x84>
    5140:	2309      	movs	r3, #9
    5142:	e7f3      	b.n	512c <tcp_close_shutdown+0x124>
    5144:	00006ecd 	.word	0x00006ecd
    5148:	00004c61 	.word	0x00004c61
    514c:	200161c4 	.word	0x200161c4
    5150:	200161d0 	.word	0x200161d0
    5154:	200161c0 	.word	0x200161c0
    5158:	200161d8 	.word	0x200161d8
    515c:	000071f1 	.word	0x000071f1
    5160:	200161d4 	.word	0x200161d4
    5164:	00004559 	.word	0x00004559
    5168:	200161cc 	.word	0x200161cc
    516c:	00004f9d 	.word	0x00004f9d
    5170:	00006b75 	.word	0x00006b75
    5174:	00006c3d 	.word	0x00006c3d

00005178 <tcp_close>:
    5178:	7e03      	ldrb	r3, [r0, #24]
    517a:	2b01      	cmp	r3, #1
    517c:	bf1e      	ittt	ne
    517e:	7f83      	ldrbne	r3, [r0, #30]
    5180:	f043 0310 	orrne.w	r3, r3, #16
    5184:	7783      	strbne	r3, [r0, #30]
    5186:	2101      	movs	r1, #1
    5188:	4b00      	ldr	r3, [pc, #0]	; (518c <tcp_close+0x14>)
    518a:	4718      	bx	r3
    518c:	00005009 	.word	0x00005009

00005190 <tcp_recv_null>:
    5190:	b510      	push	{r4, lr}
    5192:	4608      	mov	r0, r1
    5194:	4614      	mov	r4, r2
    5196:	b13a      	cbz	r2, 51a8 <tcp_recv_null+0x18>
    5198:	4b06      	ldr	r3, [pc, #24]	; (51b4 <tcp_recv_null+0x24>)
    519a:	8911      	ldrh	r1, [r2, #8]
    519c:	4798      	blx	r3
    519e:	4620      	mov	r0, r4
    51a0:	4b05      	ldr	r3, [pc, #20]	; (51b8 <tcp_recv_null+0x28>)
    51a2:	4798      	blx	r3
    51a4:	2000      	movs	r0, #0
    51a6:	bd10      	pop	{r4, pc}
    51a8:	2b00      	cmp	r3, #0
    51aa:	d1fb      	bne.n	51a4 <tcp_recv_null+0x14>
    51ac:	4b03      	ldr	r3, [pc, #12]	; (51bc <tcp_recv_null+0x2c>)
    51ae:	e8bd 4010 	ldmia.w	sp!, {r4, lr}
    51b2:	4718      	bx	r3
    51b4:	00004b91 	.word	0x00004b91
    51b8:	00004785 	.word	0x00004785
    51bc:	00005179 	.word	0x00005179

000051c0 <tcp_process_refused_data>:
    51c0:	b5f8      	push	{r3, r4, r5, r6, r7, lr}
    51c2:	6f86      	ldr	r6, [r0, #120]	; 0x78
    51c4:	f8d0 5080 	ldr.w	r5, [r0, #128]	; 0x80
    51c8:	7b77      	ldrb	r7, [r6, #13]
    51ca:	2300      	movs	r3, #0
    51cc:	4604      	mov	r4, r0
    51ce:	6783      	str	r3, [r0, #120]	; 0x78
    51d0:	b1e5      	cbz	r5, 520c <tcp_process_refused_data+0x4c>
    51d2:	4601      	mov	r1, r0
    51d4:	4632      	mov	r2, r6
    51d6:	6900      	ldr	r0, [r0, #16]
    51d8:	47a8      	blx	r5
    51da:	4605      	mov	r5, r0
    51dc:	b9e8      	cbnz	r0, 521a <tcp_process_refused_data+0x5a>
    51de:	06bb      	lsls	r3, r7, #26
    51e0:	d512      	bpl.n	5208 <tcp_process_refused_data+0x48>
    51e2:	8da3      	ldrh	r3, [r4, #44]	; 0x2c
    51e4:	f8d4 6080 	ldr.w	r6, [r4, #128]	; 0x80
    51e8:	f241 62d0 	movw	r2, #5840	; 0x16d0
    51ec:	4293      	cmp	r3, r2
    51ee:	bf1c      	itt	ne
    51f0:	3301      	addne	r3, #1
    51f2:	85a3      	strhne	r3, [r4, #44]	; 0x2c
    51f4:	b146      	cbz	r6, 5208 <tcp_process_refused_data+0x48>
    51f6:	2300      	movs	r3, #0
    51f8:	461a      	mov	r2, r3
    51fa:	4621      	mov	r1, r4
    51fc:	6920      	ldr	r0, [r4, #16]
    51fe:	47b0      	blx	r6
    5200:	300a      	adds	r0, #10
    5202:	d101      	bne.n	5208 <tcp_process_refused_data+0x48>
    5204:	f06f 0509 	mvn.w	r5, #9
    5208:	4628      	mov	r0, r5
    520a:	bdf8      	pop	{r3, r4, r5, r6, r7, pc}
    520c:	462b      	mov	r3, r5
    520e:	4601      	mov	r1, r0
    5210:	4632      	mov	r2, r6
    5212:	4628      	mov	r0, r5
    5214:	4d04      	ldr	r5, [pc, #16]	; (5228 <tcp_process_refused_data+0x68>)
    5216:	47a8      	blx	r5
    5218:	e7df      	b.n	51da <tcp_process_refused_data+0x1a>
    521a:	f110 050a 	adds.w	r5, r0, #10
    521e:	d0f1      	beq.n	5204 <tcp_process_refused_data+0x44>
    5220:	67a6      	str	r6, [r4, #120]	; 0x78
    5222:	2500      	movs	r5, #0
    5224:	e7f0      	b.n	5208 <tcp_process_refused_data+0x48>
    5226:	bf00      	nop
    5228:	00005191 	.word	0x00005191

0000522c <tcp_fasttmr>:
    522c:	e92d 47f0 	stmdb	sp!, {r4, r5, r6, r7, r8, r9, sl, lr}
    5230:	4d17      	ldr	r5, [pc, #92]	; (5290 <tcp_fasttmr+0x64>)
    5232:	4f18      	ldr	r7, [pc, #96]	; (5294 <tcp_fasttmr+0x68>)
    5234:	782b      	ldrb	r3, [r5, #0]
    5236:	f8df 8064 	ldr.w	r8, [pc, #100]	; 529c <tcp_fasttmr+0x70>
    523a:	3301      	adds	r3, #1
    523c:	702b      	strb	r3, [r5, #0]
    523e:	683c      	ldr	r4, [r7, #0]
    5240:	4e15      	ldr	r6, [pc, #84]	; (5298 <tcp_fasttmr+0x6c>)
    5242:	f8df 905c 	ldr.w	r9, [pc, #92]	; 52a0 <tcp_fasttmr+0x74>
    5246:	782b      	ldrb	r3, [r5, #0]
    5248:	b90c      	cbnz	r4, 524e <tcp_fasttmr+0x22>
    524a:	e8bd 87f0 	ldmia.w	sp!, {r4, r5, r6, r7, r8, r9, sl, pc}
    524e:	f894 2021 	ldrb.w	r2, [r4, #33]	; 0x21
    5252:	429a      	cmp	r2, r3
    5254:	d0f8      	beq.n	5248 <tcp_fasttmr+0x1c>
    5256:	f884 3021 	strb.w	r3, [r4, #33]	; 0x21
    525a:	7fa3      	ldrb	r3, [r4, #30]
    525c:	07da      	lsls	r2, r3, #31
    525e:	d508      	bpl.n	5272 <tcp_fasttmr+0x46>
    5260:	f043 0302 	orr.w	r3, r3, #2
    5264:	77a3      	strb	r3, [r4, #30]
    5266:	4620      	mov	r0, r4
    5268:	47c0      	blx	r8
    526a:	7fa3      	ldrb	r3, [r4, #30]
    526c:	f023 0303 	bic.w	r3, r3, #3
    5270:	77a3      	strb	r3, [r4, #30]
    5272:	6fa3      	ldr	r3, [r4, #120]	; 0x78
    5274:	f8d4 a00c 	ldr.w	sl, [r4, #12]
    5278:	b90b      	cbnz	r3, 527e <tcp_fasttmr+0x52>
    527a:	4654      	mov	r4, sl
    527c:	e7e3      	b.n	5246 <tcp_fasttmr+0x1a>
    527e:	2300      	movs	r3, #0
    5280:	4620      	mov	r0, r4
    5282:	7033      	strb	r3, [r6, #0]
    5284:	47c8      	blx	r9
    5286:	7833      	ldrb	r3, [r6, #0]
    5288:	2b00      	cmp	r3, #0
    528a:	d0f6      	beq.n	527a <tcp_fasttmr+0x4e>
    528c:	e7d7      	b.n	523e <tcp_fasttmr+0x12>
    528e:	bf00      	nop
    5290:	2000809d 	.word	0x2000809d
    5294:	200161c4 	.word	0x200161c4
    5298:	200161c0 	.word	0x200161c0
    529c:	00006c3d 	.word	0x00006c3d
    52a0:	000051c1 	.word	0x000051c1

000052a4 <tcp_tmr>:
    52a4:	4b07      	ldr	r3, [pc, #28]	; (52c4 <tcp_tmr+0x20>)
    52a6:	b510      	push	{r4, lr}
    52a8:	4798      	blx	r3
    52aa:	4a07      	ldr	r2, [pc, #28]	; (52c8 <tcp_tmr+0x24>)
    52ac:	7853      	ldrb	r3, [r2, #1]
    52ae:	3301      	adds	r3, #1
    52b0:	b2db      	uxtb	r3, r3
    52b2:	7053      	strb	r3, [r2, #1]
    52b4:	07db      	lsls	r3, r3, #31
    52b6:	d503      	bpl.n	52c0 <tcp_tmr+0x1c>
    52b8:	4b04      	ldr	r3, [pc, #16]	; (52cc <tcp_tmr+0x28>)
    52ba:	e8bd 4010 	ldmia.w	sp!, {r4, lr}
    52be:	4718      	bx	r3
    52c0:	bd10      	pop	{r4, pc}
    52c2:	bf00      	nop
    52c4:	0000522d 	.word	0x0000522d
    52c8:	2000809d 	.word	0x2000809d
    52cc:	00004ca5 	.word	0x00004ca5

000052d0 <tcp_shutdown>:
    52d0:	b570      	push	{r4, r5, r6, lr}
    52d2:	4614      	mov	r4, r2
    52d4:	7e02      	ldrb	r2, [r0, #24]
    52d6:	2a01      	cmp	r2, #1
    52d8:	4605      	mov	r5, r0
    52da:	d01b      	beq.n	5314 <tcp_shutdown+0x44>
    52dc:	b189      	cbz	r1, 5302 <tcp_shutdown+0x32>
    52de:	7f83      	ldrb	r3, [r0, #30]
    52e0:	f043 0310 	orr.w	r3, r3, #16
    52e4:	7783      	strb	r3, [r0, #30]
    52e6:	b124      	cbz	r4, 52f2 <tcp_shutdown+0x22>
    52e8:	2101      	movs	r1, #1
    52ea:	4b0c      	ldr	r3, [pc, #48]	; (531c <tcp_shutdown+0x4c>)
    52ec:	e8bd 4070 	ldmia.w	sp!, {r4, r5, r6, lr}
    52f0:	4718      	bx	r3
    52f2:	6f80      	ldr	r0, [r0, #120]	; 0x78
    52f4:	b908      	cbnz	r0, 52fa <tcp_shutdown+0x2a>
    52f6:	2000      	movs	r0, #0
    52f8:	bd70      	pop	{r4, r5, r6, pc}
    52fa:	4b09      	ldr	r3, [pc, #36]	; (5320 <tcp_shutdown+0x50>)
    52fc:	4798      	blx	r3
    52fe:	67ac      	str	r4, [r5, #120]	; 0x78
    5300:	e7f9      	b.n	52f6 <tcp_shutdown+0x26>
    5302:	2c00      	cmp	r4, #0
    5304:	d0f7      	beq.n	52f6 <tcp_shutdown+0x26>
    5306:	2a07      	cmp	r2, #7
    5308:	d804      	bhi.n	5314 <tcp_shutdown+0x44>
    530a:	2301      	movs	r3, #1
    530c:	4093      	lsls	r3, r2
    530e:	f013 0f98 	tst.w	r3, #152	; 0x98
    5312:	d1ea      	bne.n	52ea <tcp_shutdown+0x1a>
    5314:	f06f 000c 	mvn.w	r0, #12
    5318:	bd70      	pop	{r4, r5, r6, pc}
    531a:	bf00      	nop
    531c:	00005009 	.word	0x00005009
    5320:	00004785 	.word	0x00004785

00005324 <tcp_abandon>:
    5324:	7e03      	ldrb	r3, [r0, #24]
    5326:	2b0a      	cmp	r3, #10
    5328:	e92d 47f3 	stmdb	sp!, {r0, r1, r4, r5, r6, r7, r8, r9, sl, lr}
    532c:	4b22      	ldr	r3, [pc, #136]	; (53b8 <tcp_abandon+0x94>)
    532e:	4e23      	ldr	r6, [pc, #140]	; (53bc <tcp_abandon+0x98>)
    5330:	4604      	mov	r4, r0
    5332:	468a      	mov	sl, r1
    5334:	d109      	bne.n	534a <tcp_abandon+0x26>
    5336:	4601      	mov	r1, r0
    5338:	4821      	ldr	r0, [pc, #132]	; (53c0 <tcp_abandon+0x9c>)
    533a:	4798      	blx	r3
    533c:	4621      	mov	r1, r4
    533e:	2001      	movs	r0, #1
    5340:	4633      	mov	r3, r6
    5342:	b002      	add	sp, #8
    5344:	e8bd 47f0 	ldmia.w	sp!, {r4, r5, r6, r7, r8, r9, sl, lr}
    5348:	4718      	bx	r3
    534a:	f8d0 8050 	ldr.w	r8, [r0, #80]	; 0x50
    534e:	f8d0 9028 	ldr.w	r9, [r0, #40]	; 0x28
    5352:	f8d0 508c 	ldr.w	r5, [r0, #140]	; 0x8c
    5356:	6907      	ldr	r7, [r0, #16]
    5358:	4601      	mov	r1, r0
    535a:	481a      	ldr	r0, [pc, #104]	; (53c4 <tcp_abandon+0xa0>)
    535c:	4798      	blx	r3
    535e:	4b1a      	ldr	r3, [pc, #104]	; (53c8 <tcp_abandon+0xa4>)
    5360:	6f20      	ldr	r0, [r4, #112]	; 0x70
    5362:	2201      	movs	r2, #1
    5364:	701a      	strb	r2, [r3, #0]
    5366:	b108      	cbz	r0, 536c <tcp_abandon+0x48>
    5368:	4b18      	ldr	r3, [pc, #96]	; (53cc <tcp_abandon+0xa8>)
    536a:	4798      	blx	r3
    536c:	6ee0      	ldr	r0, [r4, #108]	; 0x6c
    536e:	b108      	cbz	r0, 5374 <tcp_abandon+0x50>
    5370:	4b16      	ldr	r3, [pc, #88]	; (53cc <tcp_abandon+0xa8>)
    5372:	4798      	blx	r3
    5374:	6f60      	ldr	r0, [r4, #116]	; 0x74
    5376:	b108      	cbz	r0, 537c <tcp_abandon+0x58>
    5378:	4b14      	ldr	r3, [pc, #80]	; (53cc <tcp_abandon+0xa8>)
    537a:	4798      	blx	r3
    537c:	f1ba 0f00 	cmp.w	sl, #0
    5380:	d00a      	beq.n	5398 <tcp_abandon+0x74>
    5382:	8ba3      	ldrh	r3, [r4, #28]
    5384:	9301      	str	r3, [sp, #4]
    5386:	8b63      	ldrh	r3, [r4, #26]
    5388:	9300      	str	r3, [sp, #0]
    538a:	4640      	mov	r0, r8
    538c:	1d23      	adds	r3, r4, #4
    538e:	4622      	mov	r2, r4
    5390:	4649      	mov	r1, r9
    5392:	f8df 803c 	ldr.w	r8, [pc, #60]	; 53d0 <tcp_abandon+0xac>
    5396:	47c0      	blx	r8
    5398:	4621      	mov	r1, r4
    539a:	2001      	movs	r0, #1
    539c:	47b0      	blx	r6
    539e:	b13d      	cbz	r5, 53b0 <tcp_abandon+0x8c>
    53a0:	f06f 0109 	mvn.w	r1, #9
    53a4:	4638      	mov	r0, r7
    53a6:	462b      	mov	r3, r5
    53a8:	b002      	add	sp, #8
    53aa:	e8bd 47f0 	ldmia.w	sp!, {r4, r5, r6, r7, r8, r9, sl, lr}
    53ae:	4718      	bx	r3
    53b0:	b002      	add	sp, #8
    53b2:	e8bd 87f0 	ldmia.w	sp!, {r4, r5, r6, r7, r8, r9, sl, pc}
    53b6:	bf00      	nop
    53b8:	00004f9d 	.word	0x00004f9d
    53bc:	00004559 	.word	0x00004559
    53c0:	200161d8 	.word	0x200161d8
    53c4:	200161c4 	.word	0x200161c4
    53c8:	200161c0 	.word	0x200161c0
    53cc:	00004bf5 	.word	0x00004bf5
    53d0:	00006ecd 	.word	0x00006ecd

000053d4 <tcp_abort>:
    53d4:	2101      	movs	r1, #1
    53d6:	4b01      	ldr	r3, [pc, #4]	; (53dc <tcp_abort+0x8>)
    53d8:	4718      	bx	r3
    53da:	bf00      	nop
    53dc:	00005325 	.word	0x00005325

000053e0 <tcp_next_iss>:
    53e0:	4b03      	ldr	r3, [pc, #12]	; (53f0 <tcp_next_iss+0x10>)
    53e2:	4a04      	ldr	r2, [pc, #16]	; (53f4 <tcp_next_iss+0x14>)
    53e4:	6858      	ldr	r0, [r3, #4]
    53e6:	6812      	ldr	r2, [r2, #0]
    53e8:	4410      	add	r0, r2
    53ea:	6058      	str	r0, [r3, #4]
    53ec:	4770      	bx	lr
    53ee:	bf00      	nop
    53f0:	2000003c 	.word	0x2000003c
    53f4:	200161c8 	.word	0x200161c8

000053f8 <tcp_alloc>:
    53f8:	b5f8      	push	{r3, r4, r5, r6, r7, lr}
    53fa:	4607      	mov	r7, r0
    53fc:	4d3b      	ldr	r5, [pc, #236]	; (54ec <tcp_alloc+0xf4>)
    53fe:	4e3c      	ldr	r6, [pc, #240]	; (54f0 <tcp_alloc+0xf8>)
    5400:	2001      	movs	r0, #1
    5402:	47a8      	blx	r5
    5404:	4604      	mov	r4, r0
    5406:	b9f0      	cbnz	r0, 5446 <tcp_alloc+0x4e>
    5408:	4b3a      	ldr	r3, [pc, #232]	; (54f4 <tcp_alloc+0xfc>)
    540a:	6830      	ldr	r0, [r6, #0]
    540c:	681b      	ldr	r3, [r3, #0]
    540e:	4621      	mov	r1, r4
    5410:	2b00      	cmp	r3, #0
    5412:	d153      	bne.n	54bc <tcp_alloc+0xc4>
    5414:	b114      	cbz	r4, 541c <tcp_alloc+0x24>
    5416:	4620      	mov	r0, r4
    5418:	4b37      	ldr	r3, [pc, #220]	; (54f8 <tcp_alloc+0x100>)
    541a:	4798      	blx	r3
    541c:	2001      	movs	r0, #1
    541e:	47a8      	blx	r5
    5420:	4604      	mov	r4, r0
    5422:	b980      	cbnz	r0, 5446 <tcp_alloc+0x4e>
    5424:	4b35      	ldr	r3, [pc, #212]	; (54fc <tcp_alloc+0x104>)
    5426:	f8d6 c000 	ldr.w	ip, [r6]
    542a:	681b      	ldr	r3, [r3, #0]
    542c:	207f      	movs	r0, #127	; 0x7f
    542e:	46a6      	mov	lr, r4
    5430:	2b00      	cmp	r3, #0
    5432:	d14b      	bne.n	54cc <tcp_alloc+0xd4>
    5434:	b114      	cbz	r4, 543c <tcp_alloc+0x44>
    5436:	4620      	mov	r0, r4
    5438:	4b2f      	ldr	r3, [pc, #188]	; (54f8 <tcp_alloc+0x100>)
    543a:	4798      	blx	r3
    543c:	2001      	movs	r0, #1
    543e:	47a8      	blx	r5
    5440:	4604      	mov	r4, r0
    5442:	2800      	cmp	r0, #0
    5444:	d038      	beq.n	54b8 <tcp_alloc+0xc0>
    5446:	2298      	movs	r2, #152	; 0x98
    5448:	2100      	movs	r1, #0
    544a:	4b2d      	ldr	r3, [pc, #180]	; (5500 <tcp_alloc+0x108>)
    544c:	4620      	mov	r0, r4
    544e:	4798      	blx	r3
    5450:	f640 3368 	movw	r3, #2920	; 0xb68
    5454:	f8a4 3066 	strh.w	r3, [r4, #102]	; 0x66
    5458:	f241 63d0 	movw	r3, #5840	; 0x16d0
    545c:	85a3      	strh	r3, [r4, #44]	; 0x2c
    545e:	85e3      	strh	r3, [r4, #46]	; 0x2e
    5460:	23ff      	movs	r3, #255	; 0xff
    5462:	72a3      	strb	r3, [r4, #10]
    5464:	f44f 7306 	mov.w	r3, #536	; 0x218
    5468:	86e3      	strh	r3, [r4, #54]	; 0x36
    546a:	2306      	movs	r3, #6
    546c:	f8a4 3044 	strh.w	r3, [r4, #68]	; 0x44
    5470:	f8a4 3042 	strh.w	r3, [r4, #66]	; 0x42
    5474:	f64f 73ff 	movw	r3, #65535	; 0xffff
    5478:	2100      	movs	r1, #0
    547a:	86a3      	strh	r3, [r4, #52]	; 0x34
    547c:	2301      	movs	r3, #1
    547e:	f8a4 304c 	strh.w	r3, [r4, #76]	; 0x4c
    5482:	7667      	strb	r7, [r4, #25]
    5484:	4b1f      	ldr	r3, [pc, #124]	; (5504 <tcp_alloc+0x10c>)
    5486:	f8a4 1068 	strh.w	r1, [r4, #104]	; 0x68
    548a:	7261      	strb	r1, [r4, #9]
    548c:	f8a4 1040 	strh.w	r1, [r4, #64]	; 0x40
    5490:	4798      	blx	r3
    5492:	6833      	ldr	r3, [r6, #0]
    5494:	6263      	str	r3, [r4, #36]	; 0x24
    5496:	4b1c      	ldr	r3, [pc, #112]	; (5508 <tcp_alloc+0x110>)
    5498:	65a0      	str	r0, [r4, #88]	; 0x58
    549a:	781b      	ldrb	r3, [r3, #0]
    549c:	f884 3021 	strb.w	r3, [r4, #33]	; 0x21
    54a0:	4b1a      	ldr	r3, [pc, #104]	; (550c <tcp_alloc+0x114>)
    54a2:	f8c4 3080 	str.w	r3, [r4, #128]	; 0x80
    54a6:	4b1a      	ldr	r3, [pc, #104]	; (5510 <tcp_alloc+0x118>)
    54a8:	6520      	str	r0, [r4, #80]	; 0x50
    54aa:	64a0      	str	r0, [r4, #72]	; 0x48
    54ac:	65e0      	str	r0, [r4, #92]	; 0x5c
    54ae:	77e1      	strb	r1, [r4, #31]
    54b0:	f8c4 3090 	str.w	r3, [r4, #144]	; 0x90
    54b4:	f884 1096 	strb.w	r1, [r4, #150]	; 0x96
    54b8:	4620      	mov	r0, r4
    54ba:	bdf8      	pop	{r3, r4, r5, r6, r7, pc}
    54bc:	6a5a      	ldr	r2, [r3, #36]	; 0x24
    54be:	1a82      	subs	r2, r0, r2
    54c0:	428a      	cmp	r2, r1
    54c2:	bf24      	itt	cs
    54c4:	461c      	movcs	r4, r3
    54c6:	4611      	movcs	r1, r2
    54c8:	68db      	ldr	r3, [r3, #12]
    54ca:	e7a1      	b.n	5410 <tcp_alloc+0x18>
    54cc:	7e59      	ldrb	r1, [r3, #25]
    54ce:	428f      	cmp	r7, r1
    54d0:	d309      	bcc.n	54e6 <tcp_alloc+0xee>
    54d2:	4281      	cmp	r1, r0
    54d4:	d807      	bhi.n	54e6 <tcp_alloc+0xee>
    54d6:	6a5a      	ldr	r2, [r3, #36]	; 0x24
    54d8:	ebac 0202 	sub.w	r2, ip, r2
    54dc:	4572      	cmp	r2, lr
    54de:	bf22      	ittt	cs
    54e0:	4608      	movcs	r0, r1
    54e2:	4696      	movcs	lr, r2
    54e4:	461c      	movcs	r4, r3
    54e6:	68db      	ldr	r3, [r3, #12]
    54e8:	e7a2      	b.n	5430 <tcp_alloc+0x38>
    54ea:	bf00      	nop
    54ec:	00004539 	.word	0x00004539
    54f0:	200161c8 	.word	0x200161c8
    54f4:	200161d8 	.word	0x200161d8
    54f8:	000053d5 	.word	0x000053d5
    54fc:	200161c4 	.word	0x200161c4
    5500:	0000a8a5 	.word	0x0000a8a5
    5504:	000053e1 	.word	0x000053e1
    5508:	2000809d 	.word	0x2000809d
    550c:	00005191 	.word	0x00005191
    5510:	006ddd00 	.word	0x006ddd00

00005514 <tcp_new>:
    5514:	2040      	movs	r0, #64	; 0x40
    5516:	4b01      	ldr	r3, [pc, #4]	; (551c <tcp_new+0x8>)
    5518:	4718      	bx	r3
    551a:	bf00      	nop
    551c:	000053f9 	.word	0x000053f9

00005520 <tcp_eff_send_mss>:
    5520:	b510      	push	{r4, lr}
    5522:	4b07      	ldr	r3, [pc, #28]	; (5540 <tcp_eff_send_mss+0x20>)
    5524:	4604      	mov	r4, r0
    5526:	4608      	mov	r0, r1
    5528:	4798      	blx	r3
    552a:	b130      	cbz	r0, 553a <tcp_eff_send_mss+0x1a>
    552c:	8c83      	ldrh	r3, [r0, #36]	; 0x24
    552e:	b123      	cbz	r3, 553a <tcp_eff_send_mss+0x1a>
    5530:	3b28      	subs	r3, #40	; 0x28
    5532:	b29b      	uxth	r3, r3
    5534:	429c      	cmp	r4, r3
    5536:	bf28      	it	cs
    5538:	461c      	movcs	r4, r3
    553a:	4620      	mov	r0, r4
    553c:	bd10      	pop	{r4, pc}
    553e:	bf00      	nop
    5540:	000037c1 	.word	0x000037c1

00005544 <tcp_oos_insert_segment>:
    5544:	e92d 4ff8 	stmdb	sp!, {r3, r4, r5, r6, r7, r8, r9, sl, fp, lr}
    5548:	68c3      	ldr	r3, [r0, #12]
    554a:	4e1f      	ldr	r6, [pc, #124]	; (55c8 <tcp_oos_insert_segment+0x84>)
    554c:	4605      	mov	r5, r0
    554e:	8998      	ldrh	r0, [r3, #12]
    5550:	460c      	mov	r4, r1
    5552:	47b0      	blx	r6
    5554:	07c2      	lsls	r2, r0, #31
    5556:	d41b      	bmi.n	5590 <tcp_oos_insert_segment+0x4c>
    5558:	4f1c      	ldr	r7, [pc, #112]	; (55cc <tcp_oos_insert_segment+0x88>)
    555a:	f8df 807c 	ldr.w	r8, [pc, #124]	; 55d8 <tcp_oos_insert_segment+0x94>
    555e:	f8df 907c 	ldr.w	r9, [pc, #124]	; 55dc <tcp_oos_insert_segment+0x98>
    5562:	b1cc      	cbz	r4, 5598 <tcp_oos_insert_segment+0x54>
    5564:	f8d4 e00c 	ldr.w	lr, [r4, #12]
    5568:	6838      	ldr	r0, [r7, #0]
    556a:	892b      	ldrh	r3, [r5, #8]
    556c:	f8de 1004 	ldr.w	r1, [lr, #4]
    5570:	8922      	ldrh	r2, [r4, #8]
    5572:	4403      	add	r3, r0
    5574:	440a      	add	r2, r1
    5576:	1a9a      	subs	r2, r3, r2
    5578:	2a00      	cmp	r2, #0
    557a:	da10      	bge.n	559e <tcp_oos_insert_segment+0x5a>
    557c:	1a5b      	subs	r3, r3, r1
    557e:	2b00      	cmp	r3, #0
    5580:	dd0a      	ble.n	5598 <tcp_oos_insert_segment+0x54>
    5582:	1a09      	subs	r1, r1, r0
    5584:	b289      	uxth	r1, r1
    5586:	8129      	strh	r1, [r5, #8]
    5588:	6868      	ldr	r0, [r5, #4]
    558a:	4b11      	ldr	r3, [pc, #68]	; (55d0 <tcp_oos_insert_segment+0x8c>)
    558c:	4798      	blx	r3
    558e:	e003      	b.n	5598 <tcp_oos_insert_segment+0x54>
    5590:	4620      	mov	r0, r4
    5592:	4b10      	ldr	r3, [pc, #64]	; (55d4 <tcp_oos_insert_segment+0x90>)
    5594:	4798      	blx	r3
    5596:	2400      	movs	r4, #0
    5598:	602c      	str	r4, [r5, #0]
    559a:	e8bd 8ff8 	ldmia.w	sp!, {r3, r4, r5, r6, r7, r8, r9, sl, fp, pc}
    559e:	f8be 000c 	ldrh.w	r0, [lr, #12]
    55a2:	47b0      	blx	r6
    55a4:	07c3      	lsls	r3, r0, #31
    55a6:	d509      	bpl.n	55bc <tcp_oos_insert_segment+0x78>
    55a8:	f8d5 b00c 	ldr.w	fp, [r5, #12]
    55ac:	2001      	movs	r0, #1
    55ae:	f8bb a00c 	ldrh.w	sl, [fp, #12]
    55b2:	47c0      	blx	r8
    55b4:	ea4a 0000 	orr.w	r0, sl, r0
    55b8:	f8ab 000c 	strh.w	r0, [fp, #12]
    55bc:	f8d4 a000 	ldr.w	sl, [r4]
    55c0:	4620      	mov	r0, r4
    55c2:	47c8      	blx	r9
    55c4:	4654      	mov	r4, sl
    55c6:	e7cc      	b.n	5562 <tcp_oos_insert_segment+0x1e>
    55c8:	0000342b 	.word	0x0000342b
    55cc:	200080a0 	.word	0x200080a0
    55d0:	000048f5 	.word	0x000048f5
    55d4:	00004bf5 	.word	0x00004bf5
    55d8:	00003425 	.word	0x00003425
    55dc:	00004bd1 	.word	0x00004bd1

000055e0 <tcp_receive>:
    55e0:	e92d 4ff7 	stmdb	sp!, {r0, r1, r2, r4, r5, r6, r7, r8, r9, sl, fp, lr}
    55e4:	4d9a      	ldr	r5, [pc, #616]	; (5850 <tcp_receive+0x270>)
    55e6:	792b      	ldrb	r3, [r5, #4]
    55e8:	06de      	lsls	r6, r3, #27
    55ea:	4604      	mov	r4, r0
    55ec:	d56a      	bpl.n	56c4 <tcp_receive+0xe4>
    55ee:	6d63      	ldr	r3, [r4, #84]	; 0x54
    55f0:	682a      	ldr	r2, [r5, #0]
    55f2:	f8b0 1060 	ldrh.w	r1, [r0, #96]	; 0x60
    55f6:	6d80      	ldr	r0, [r0, #88]	; 0x58
    55f8:	1a9e      	subs	r6, r3, r2
    55fa:	2e00      	cmp	r6, #0
    55fc:	db0c      	blt.n	5618 <tcp_receive+0x38>
    55fe:	4293      	cmp	r3, r2
    5600:	d103      	bne.n	560a <tcp_receive+0x2a>
    5602:	68ab      	ldr	r3, [r5, #8]
    5604:	1ac3      	subs	r3, r0, r3
    5606:	2b00      	cmp	r3, #0
    5608:	db06      	blt.n	5618 <tcp_receive+0x38>
    560a:	68ab      	ldr	r3, [r5, #8]
    560c:	4298      	cmp	r0, r3
    560e:	d11b      	bne.n	5648 <tcp_receive+0x68>
    5610:	68eb      	ldr	r3, [r5, #12]
    5612:	89db      	ldrh	r3, [r3, #14]
    5614:	428b      	cmp	r3, r1
    5616:	d917      	bls.n	5648 <tcp_receive+0x68>
    5618:	68eb      	ldr	r3, [r5, #12]
    561a:	f8b4 7062 	ldrh.w	r7, [r4, #98]	; 0x62
    561e:	89de      	ldrh	r6, [r3, #14]
    5620:	6562      	str	r2, [r4, #84]	; 0x54
    5622:	42b7      	cmp	r7, r6
    5624:	68aa      	ldr	r2, [r5, #8]
    5626:	65a2      	str	r2, [r4, #88]	; 0x58
    5628:	f8a4 6060 	strh.w	r6, [r4, #96]	; 0x60
    562c:	bf38      	it	cc
    562e:	f8a4 6062 	strhcc.w	r6, [r4, #98]	; 0x62
    5632:	f894 2095 	ldrb.w	r2, [r4, #149]	; 0x95
    5636:	2e00      	cmp	r6, #0
    5638:	f040 80ff 	bne.w	583a <tcp_receive+0x25a>
    563c:	b922      	cbnz	r2, 5648 <tcp_receive+0x68>
    563e:	f884 6094 	strb.w	r6, [r4, #148]	; 0x94
    5642:	2301      	movs	r3, #1
    5644:	f884 3095 	strb.w	r3, [r4, #149]	; 0x95
    5648:	68aa      	ldr	r2, [r5, #8]
    564a:	6ca6      	ldr	r6, [r4, #72]	; 0x48
    564c:	1b93      	subs	r3, r2, r6
    564e:	2b00      	cmp	r3, #0
    5650:	f300 810e 	bgt.w	5870 <tcp_receive+0x290>
    5654:	2300      	movs	r3, #0
    5656:	f8a4 3064 	strh.w	r3, [r4, #100]	; 0x64
    565a:	8a2b      	ldrh	r3, [r5, #16]
    565c:	2b00      	cmp	r3, #0
    565e:	f040 8369 	bne.w	5d34 <tcp_receive+0x754>
    5662:	4401      	add	r1, r0
    5664:	f8b4 3060 	ldrh.w	r3, [r4, #96]	; 0x60
    5668:	6da0      	ldr	r0, [r4, #88]	; 0x58
    566a:	4403      	add	r3, r0
    566c:	4299      	cmp	r1, r3
    566e:	f040 8361 	bne.w	5d34 <tcp_receive+0x754>
    5672:	f9b4 3034 	ldrsh.w	r3, [r4, #52]	; 0x34
    5676:	2b00      	cmp	r3, #0
    5678:	f2c0 835c 	blt.w	5d34 <tcp_receive+0x754>
    567c:	42b2      	cmp	r2, r6
    567e:	f040 8359 	bne.w	5d34 <tcp_receive+0x754>
    5682:	f894 2047 	ldrb.w	r2, [r4, #71]	; 0x47
    5686:	1c53      	adds	r3, r2, #1
    5688:	b2db      	uxtb	r3, r3
    568a:	429a      	cmp	r2, r3
    568c:	bf38      	it	cc
    568e:	f884 3047 	strbcc.w	r3, [r4, #71]	; 0x47
    5692:	f894 3047 	ldrb.w	r3, [r4, #71]	; 0x47
    5696:	2b03      	cmp	r3, #3
    5698:	f240 80d4 	bls.w	5844 <tcp_receive+0x264>
    569c:	f8b4 204c 	ldrh.w	r2, [r4, #76]	; 0x4c
    56a0:	8ee3      	ldrh	r3, [r4, #54]	; 0x36
    56a2:	4413      	add	r3, r2
    56a4:	b29b      	uxth	r3, r3
    56a6:	429a      	cmp	r2, r3
    56a8:	d201      	bcs.n	56ae <tcp_receive+0xce>
    56aa:	f8a4 304c 	strh.w	r3, [r4, #76]	; 0x4c
    56ae:	f8df 81b8 	ldr.w	r8, [pc, #440]	; 5868 <tcp_receive+0x288>
    56b2:	4f68      	ldr	r7, [pc, #416]	; (5854 <tcp_receive+0x274>)
    56b4:	6ee3      	ldr	r3, [r4, #108]	; 0x6c
    56b6:	2b00      	cmp	r3, #0
    56b8:	f040 815c 	bne.w	5974 <tcp_receive+0x394>
    56bc:	6ba2      	ldr	r2, [r4, #56]	; 0x38
    56be:	2a00      	cmp	r2, #0
    56c0:	f040 8194 	bne.w	59ec <tcp_receive+0x40c>
    56c4:	8a28      	ldrh	r0, [r5, #16]
    56c6:	6aa2      	ldr	r2, [r4, #40]	; 0x28
    56c8:	2800      	cmp	r0, #0
    56ca:	f000 8326 	beq.w	5d1a <tcp_receive+0x73a>
    56ce:	7e23      	ldrb	r3, [r4, #24]
    56d0:	2b06      	cmp	r3, #6
    56d2:	f200 8322 	bhi.w	5d1a <tcp_receive+0x73a>
    56d6:	682b      	ldr	r3, [r5, #0]
    56d8:	1ad6      	subs	r6, r2, r3
    56da:	2e01      	cmp	r6, #1
    56dc:	f100 81b3 	bmi.w	5a46 <tcp_receive+0x466>
    56e0:	f1c3 0101 	rsb	r1, r3, #1
    56e4:	1a09      	subs	r1, r1, r0
    56e6:	4411      	add	r1, r2
    56e8:	2900      	cmp	r1, #0
    56ea:	f300 81ac 	bgt.w	5a46 <tcp_receive+0x466>
    56ee:	69a8      	ldr	r0, [r5, #24]
    56f0:	8943      	ldrh	r3, [r0, #10]
    56f2:	429e      	cmp	r6, r3
    56f4:	4631      	mov	r1, r6
    56f6:	f340 81a4 	ble.w	5a42 <tcp_receive+0x462>
    56fa:	8903      	ldrh	r3, [r0, #8]
    56fc:	1b9b      	subs	r3, r3, r6
    56fe:	b29b      	uxth	r3, r3
    5700:	2600      	movs	r6, #0
    5702:	8942      	ldrh	r2, [r0, #10]
    5704:	4291      	cmp	r1, r2
    5706:	f300 8197 	bgt.w	5a38 <tcp_receive+0x458>
    570a:	4249      	negs	r1, r1
    570c:	b209      	sxth	r1, r1
    570e:	4b52      	ldr	r3, [pc, #328]	; (5858 <tcp_receive+0x278>)
    5710:	4798      	blx	r3
    5712:	8ba9      	ldrh	r1, [r5, #28]
    5714:	682b      	ldr	r3, [r5, #0]
    5716:	6aa2      	ldr	r2, [r4, #40]	; 0x28
    5718:	602a      	str	r2, [r5, #0]
    571a:	440b      	add	r3, r1
    571c:	1a9b      	subs	r3, r3, r2
    571e:	83ab      	strh	r3, [r5, #28]
    5720:	6a2b      	ldr	r3, [r5, #32]
    5722:	605a      	str	r2, [r3, #4]
    5724:	6829      	ldr	r1, [r5, #0]
    5726:	6aa2      	ldr	r2, [r4, #40]	; 0x28
    5728:	1a8b      	subs	r3, r1, r2
    572a:	2b00      	cmp	r3, #0
    572c:	f2c0 82ef 	blt.w	5d0e <tcp_receive+0x72e>
    5730:	1c4b      	adds	r3, r1, #1
    5732:	8da0      	ldrh	r0, [r4, #44]	; 0x2c
    5734:	1a9b      	subs	r3, r3, r2
    5736:	1a1b      	subs	r3, r3, r0
    5738:	2b00      	cmp	r3, #0
    573a:	f300 82e8 	bgt.w	5d0e <tcp_receive+0x72e>
    573e:	4291      	cmp	r1, r2
    5740:	f040 8238 	bne.w	5bb4 <tcp_receive+0x5d4>
    5744:	6a2b      	ldr	r3, [r5, #32]
    5746:	4e43      	ldr	r6, [pc, #268]	; (5854 <tcp_receive+0x274>)
    5748:	8998      	ldrh	r0, [r3, #12]
    574a:	8baf      	ldrh	r7, [r5, #28]
    574c:	47b0      	blx	r6
    574e:	f010 0003 	ands.w	r0, r0, #3
    5752:	bf18      	it	ne
    5754:	2001      	movne	r0, #1
    5756:	4438      	add	r0, r7
    5758:	8da3      	ldrh	r3, [r4, #44]	; 0x2c
    575a:	b280      	uxth	r0, r0
    575c:	4283      	cmp	r3, r0
    575e:	8228      	strh	r0, [r5, #16]
    5760:	d22d      	bcs.n	57be <tcp_receive+0x1de>
    5762:	6a2b      	ldr	r3, [r5, #32]
    5764:	8998      	ldrh	r0, [r3, #12]
    5766:	47b0      	blx	r6
    5768:	07c3      	lsls	r3, r0, #31
    576a:	d50e      	bpl.n	578a <tcp_receive+0x1aa>
    576c:	f8d5 8020 	ldr.w	r8, [r5, #32]
    5770:	f8b8 700c 	ldrh.w	r7, [r8, #12]
    5774:	4638      	mov	r0, r7
    5776:	47b0      	blx	r6
    5778:	4b38      	ldr	r3, [pc, #224]	; (585c <tcp_receive+0x27c>)
    577a:	f000 003e 	and.w	r0, r0, #62	; 0x3e
    577e:	4798      	blx	r3
    5780:	f427 577c 	bic.w	r7, r7, #16128	; 0x3f00
    5784:	4307      	orrs	r7, r0
    5786:	f8a8 700c 	strh.w	r7, [r8, #12]
    578a:	8da3      	ldrh	r3, [r4, #44]	; 0x2c
    578c:	83ab      	strh	r3, [r5, #28]
    578e:	6a2b      	ldr	r3, [r5, #32]
    5790:	8998      	ldrh	r0, [r3, #12]
    5792:	47b0      	blx	r6
    5794:	0787      	lsls	r7, r0, #30
    5796:	bf48      	it	mi
    5798:	8bab      	ldrhmi	r3, [r5, #28]
    579a:	69a8      	ldr	r0, [r5, #24]
    579c:	bf44      	itt	mi
    579e:	f103 33ff 	addmi.w	r3, r3, #4294967295
    57a2:	83ab      	strhmi	r3, [r5, #28]
    57a4:	8ba9      	ldrh	r1, [r5, #28]
    57a6:	4b2e      	ldr	r3, [pc, #184]	; (5860 <tcp_receive+0x280>)
    57a8:	4798      	blx	r3
    57aa:	6a2b      	ldr	r3, [r5, #32]
    57ac:	8baf      	ldrh	r7, [r5, #28]
    57ae:	8998      	ldrh	r0, [r3, #12]
    57b0:	47b0      	blx	r6
    57b2:	f010 0003 	ands.w	r0, r0, #3
    57b6:	bf18      	it	ne
    57b8:	2001      	movne	r0, #1
    57ba:	4407      	add	r7, r0
    57bc:	822f      	strh	r7, [r5, #16]
    57be:	6f63      	ldr	r3, [r4, #116]	; 0x74
    57c0:	2b00      	cmp	r3, #0
    57c2:	f000 814e 	beq.w	5a62 <tcp_receive+0x482>
    57c6:	6a2b      	ldr	r3, [r5, #32]
    57c8:	8998      	ldrh	r0, [r3, #12]
    57ca:	47b0      	blx	r6
    57cc:	07c0      	lsls	r0, r0, #31
    57ce:	f100 8179 	bmi.w	5ac4 <tcp_receive+0x4e4>
    57d2:	6f67      	ldr	r7, [r4, #116]	; 0x74
    57d4:	f8df 8084 	ldr.w	r8, [pc, #132]	; 585c <tcp_receive+0x27c>
    57d8:	f8df 9090 	ldr.w	r9, [pc, #144]	; 586c <tcp_receive+0x28c>
    57dc:	b35f      	cbz	r7, 5836 <tcp_receive+0x256>
    57de:	f8d7 e00c 	ldr.w	lr, [r7, #12]
    57e2:	6828      	ldr	r0, [r5, #0]
    57e4:	8a2b      	ldrh	r3, [r5, #16]
    57e6:	f8de 2004 	ldr.w	r2, [lr, #4]
    57ea:	8939      	ldrh	r1, [r7, #8]
    57ec:	4403      	add	r3, r0
    57ee:	4411      	add	r1, r2
    57f0:	1a59      	subs	r1, r3, r1
    57f2:	2900      	cmp	r1, #0
    57f4:	f280 8168 	bge.w	5ac8 <tcp_receive+0x4e8>
    57f8:	1a9b      	subs	r3, r3, r2
    57fa:	2b00      	cmp	r3, #0
    57fc:	dd1b      	ble.n	5836 <tcp_receive+0x256>
    57fe:	6a2b      	ldr	r3, [r5, #32]
    5800:	1a12      	subs	r2, r2, r0
    5802:	83aa      	strh	r2, [r5, #28]
    5804:	8998      	ldrh	r0, [r3, #12]
    5806:	47b0      	blx	r6
    5808:	0783      	lsls	r3, r0, #30
    580a:	bf48      	it	mi
    580c:	8bab      	ldrhmi	r3, [r5, #28]
    580e:	69a8      	ldr	r0, [r5, #24]
    5810:	bf44      	itt	mi
    5812:	f103 33ff 	addmi.w	r3, r3, #4294967295
    5816:	83ab      	strhmi	r3, [r5, #28]
    5818:	8ba9      	ldrh	r1, [r5, #28]
    581a:	4b11      	ldr	r3, [pc, #68]	; (5860 <tcp_receive+0x280>)
    581c:	4798      	blx	r3
    581e:	6a2b      	ldr	r3, [r5, #32]
    5820:	f8b5 801c 	ldrh.w	r8, [r5, #28]
    5824:	8998      	ldrh	r0, [r3, #12]
    5826:	47b0      	blx	r6
    5828:	f010 0003 	ands.w	r0, r0, #3
    582c:	bf18      	it	ne
    582e:	2001      	movne	r0, #1
    5830:	4480      	add	r8, r0
    5832:	f8a5 8010 	strh.w	r8, [r5, #16]
    5836:	6767      	str	r7, [r4, #116]	; 0x74
    5838:	e113      	b.n	5a62 <tcp_receive+0x482>
    583a:	2a00      	cmp	r2, #0
    583c:	f43f af04 	beq.w	5648 <tcp_receive+0x68>
    5840:	2300      	movs	r3, #0
    5842:	e6ff      	b.n	5644 <tcp_receive+0x64>
    5844:	f47f af33 	bne.w	56ae <tcp_receive+0xce>
    5848:	4620      	mov	r0, r4
    584a:	4b06      	ldr	r3, [pc, #24]	; (5864 <tcp_receive+0x284>)
    584c:	4798      	blx	r3
    584e:	e72e      	b.n	56ae <tcp_receive+0xce>
    5850:	200080a0 	.word	0x200080a0
    5854:	0000342b 	.word	0x0000342b
    5858:	0000472b 	.word	0x0000472b
    585c:	00003425 	.word	0x00003425
    5860:	000048f5 	.word	0x000048f5
    5864:	0000700d 	.word	0x0000700d
    5868:	00003435 	.word	0x00003435
    586c:	00004bd1 	.word	0x00004bd1
    5870:	6d21      	ldr	r1, [r4, #80]	; 0x50
    5872:	1a51      	subs	r1, r2, r1
    5874:	2900      	cmp	r1, #0
    5876:	dc79      	bgt.n	596c <tcp_receive+0x38c>
    5878:	7fa1      	ldrb	r1, [r4, #30]
    587a:	f9b4 6040 	ldrsh.w	r6, [r4, #64]	; 0x40
    587e:	64a2      	str	r2, [r4, #72]	; 0x48
    5880:	0748      	lsls	r0, r1, #29
    5882:	bf41      	itttt	mi
    5884:	f021 0104 	bicmi.w	r1, r1, #4
    5888:	77a1      	strbmi	r1, [r4, #30]
    588a:	f8b4 104e 	ldrhmi.w	r1, [r4, #78]	; 0x4e
    588e:	f8a4 104c 	strhmi.w	r1, [r4, #76]	; 0x4c
    5892:	f8b4 1042 	ldrh.w	r1, [r4, #66]	; 0x42
    5896:	eb01 01e6 	add.w	r1, r1, r6, asr #3
    589a:	f8a4 1044 	strh.w	r1, [r4, #68]	; 0x44
    589e:	f8b4 1066 	ldrh.w	r1, [r4, #102]	; 0x66
    58a2:	b29b      	uxth	r3, r3
    58a4:	f8a4 3064 	strh.w	r3, [r4, #100]	; 0x64
    58a8:	440b      	add	r3, r1
    58aa:	f8a4 3066 	strh.w	r3, [r4, #102]	; 0x66
    58ae:	7e23      	ldrb	r3, [r4, #24]
    58b0:	2000      	movs	r0, #0
    58b2:	2b03      	cmp	r3, #3
    58b4:	f884 0046 	strb.w	r0, [r4, #70]	; 0x46
    58b8:	f884 0047 	strb.w	r0, [r4, #71]	; 0x47
    58bc:	d90c      	bls.n	58d8 <tcp_receive+0x2f8>
    58be:	f8b4 304e 	ldrh.w	r3, [r4, #78]	; 0x4e
    58c2:	f8b4 204c 	ldrh.w	r2, [r4, #76]	; 0x4c
    58c6:	4293      	cmp	r3, r2
    58c8:	8ee3      	ldrh	r3, [r4, #54]	; 0x36
    58ca:	d914      	bls.n	58f6 <tcp_receive+0x316>
    58cc:	4413      	add	r3, r2
    58ce:	b29b      	uxth	r3, r3
    58d0:	429a      	cmp	r2, r3
    58d2:	bf38      	it	cc
    58d4:	f8a4 304c 	strhcc.w	r3, [r4, #76]	; 0x4c
    58d8:	4f8e      	ldr	r7, [pc, #568]	; (5b14 <tcp_receive+0x534>)
    58da:	4e8f      	ldr	r6, [pc, #572]	; (5b18 <tcp_receive+0x538>)
    58dc:	f8df 8240 	ldr.w	r8, [pc, #576]	; 5b20 <tcp_receive+0x540>
    58e0:	6f23      	ldr	r3, [r4, #112]	; 0x70
    58e2:	b963      	cbnz	r3, 58fe <tcp_receive+0x31e>
    58e4:	6f22      	ldr	r2, [r4, #112]	; 0x70
    58e6:	2300      	movs	r3, #0
    58e8:	2a00      	cmp	r2, #0
    58ea:	d13d      	bne.n	5968 <tcp_receive+0x388>
    58ec:	f64f 72ff 	movw	r2, #65535	; 0xffff
    58f0:	86a2      	strh	r2, [r4, #52]	; 0x34
    58f2:	77e3      	strb	r3, [r4, #31]
    58f4:	e6db      	b.n	56ae <tcp_receive+0xce>
    58f6:	435b      	muls	r3, r3
    58f8:	fb93 f3f2 	sdiv	r3, r3, r2
    58fc:	e7e6      	b.n	58cc <tcp_receive+0x2ec>
    58fe:	68db      	ldr	r3, [r3, #12]
    5900:	6858      	ldr	r0, [r3, #4]
    5902:	47b8      	blx	r7
    5904:	6f23      	ldr	r3, [r4, #112]	; 0x70
    5906:	f8b3 a008 	ldrh.w	sl, [r3, #8]
    590a:	68db      	ldr	r3, [r3, #12]
    590c:	4681      	mov	r9, r0
    590e:	8998      	ldrh	r0, [r3, #12]
    5910:	47b0      	blx	r6
    5912:	68ab      	ldr	r3, [r5, #8]
    5914:	f010 0003 	ands.w	r0, r0, #3
    5918:	bf18      	it	ne
    591a:	2001      	movne	r0, #1
    591c:	4450      	add	r0, sl
    591e:	eba9 0903 	sub.w	r9, r9, r3
    5922:	4448      	add	r0, r9
    5924:	2800      	cmp	r0, #0
    5926:	dcdd      	bgt.n	58e4 <tcp_receive+0x304>
    5928:	f8d4 9070 	ldr.w	r9, [r4, #112]	; 0x70
    592c:	f8d9 3000 	ldr.w	r3, [r9]
    5930:	6723      	str	r3, [r4, #112]	; 0x70
    5932:	f8b4 3064 	ldrh.w	r3, [r4, #100]	; 0x64
    5936:	b15b      	cbz	r3, 5950 <tcp_receive+0x370>
    5938:	f8d9 300c 	ldr.w	r3, [r9, #12]
    593c:	8998      	ldrh	r0, [r3, #12]
    593e:	47b0      	blx	r6
    5940:	07c1      	lsls	r1, r0, #31
    5942:	bf42      	ittt	mi
    5944:	f8b4 3064 	ldrhmi.w	r3, [r4, #100]	; 0x64
    5948:	f103 33ff 	addmi.w	r3, r3, #4294967295
    594c:	f8a4 3064 	strhmi.w	r3, [r4, #100]	; 0x64
    5950:	f8d9 0004 	ldr.w	r0, [r9, #4]
    5954:	47c0      	blx	r8
    5956:	f8b4 3068 	ldrh.w	r3, [r4, #104]	; 0x68
    595a:	1a18      	subs	r0, r3, r0
    595c:	f8a4 0068 	strh.w	r0, [r4, #104]	; 0x68
    5960:	4b6e      	ldr	r3, [pc, #440]	; (5b1c <tcp_receive+0x53c>)
    5962:	4648      	mov	r0, r9
    5964:	4798      	blx	r3
    5966:	e7bb      	b.n	58e0 <tcp_receive+0x300>
    5968:	86a3      	strh	r3, [r4, #52]	; 0x34
    596a:	e7c2      	b.n	58f2 <tcp_receive+0x312>
    596c:	2300      	movs	r3, #0
    596e:	f8a4 3064 	strh.w	r3, [r4, #100]	; 0x64
    5972:	e69c      	b.n	56ae <tcp_receive+0xce>
    5974:	68db      	ldr	r3, [r3, #12]
    5976:	68ae      	ldr	r6, [r5, #8]
    5978:	6858      	ldr	r0, [r3, #4]
    597a:	47c0      	blx	r8
    597c:	6ee3      	ldr	r3, [r4, #108]	; 0x6c
    597e:	f8b3 9008 	ldrh.w	r9, [r3, #8]
    5982:	68db      	ldr	r3, [r3, #12]
    5984:	4682      	mov	sl, r0
    5986:	8998      	ldrh	r0, [r3, #12]
    5988:	47b8      	blx	r7
    598a:	f010 0003 	ands.w	r0, r0, #3
    598e:	bf18      	it	ne
    5990:	2001      	movne	r0, #1
    5992:	eba6 060a 	sub.w	r6, r6, sl
    5996:	4448      	add	r0, r9
    5998:	1a36      	subs	r6, r6, r0
    599a:	2e00      	cmp	r6, #0
    599c:	f6ff ae8e 	blt.w	56bc <tcp_receive+0xdc>
    59a0:	68ab      	ldr	r3, [r5, #8]
    59a2:	6d22      	ldr	r2, [r4, #80]	; 0x50
    59a4:	1a9b      	subs	r3, r3, r2
    59a6:	2b00      	cmp	r3, #0
    59a8:	f73f ae88 	bgt.w	56bc <tcp_receive+0xdc>
    59ac:	6ee6      	ldr	r6, [r4, #108]	; 0x6c
    59ae:	6833      	ldr	r3, [r6, #0]
    59b0:	66e3      	str	r3, [r4, #108]	; 0x6c
    59b2:	b90b      	cbnz	r3, 59b8 <tcp_receive+0x3d8>
    59b4:	f8a4 306a 	strh.w	r3, [r4, #106]	; 0x6a
    59b8:	f8b4 3064 	ldrh.w	r3, [r4, #100]	; 0x64
    59bc:	b153      	cbz	r3, 59d4 <tcp_receive+0x3f4>
    59be:	68f3      	ldr	r3, [r6, #12]
    59c0:	8998      	ldrh	r0, [r3, #12]
    59c2:	47b8      	blx	r7
    59c4:	07c2      	lsls	r2, r0, #31
    59c6:	bf42      	ittt	mi
    59c8:	f8b4 3064 	ldrhmi.w	r3, [r4, #100]	; 0x64
    59cc:	f103 33ff 	addmi.w	r3, r3, #4294967295
    59d0:	f8a4 3064 	strhmi.w	r3, [r4, #100]	; 0x64
    59d4:	6870      	ldr	r0, [r6, #4]
    59d6:	4b52      	ldr	r3, [pc, #328]	; (5b20 <tcp_receive+0x540>)
    59d8:	4798      	blx	r3
    59da:	f8b4 3068 	ldrh.w	r3, [r4, #104]	; 0x68
    59de:	1a18      	subs	r0, r3, r0
    59e0:	f8a4 0068 	strh.w	r0, [r4, #104]	; 0x68
    59e4:	4b4d      	ldr	r3, [pc, #308]	; (5b1c <tcp_receive+0x53c>)
    59e6:	4630      	mov	r0, r6
    59e8:	4798      	blx	r3
    59ea:	e663      	b.n	56b4 <tcp_receive+0xd4>
    59ec:	6be3      	ldr	r3, [r4, #60]	; 0x3c
    59ee:	68a9      	ldr	r1, [r5, #8]
    59f0:	1a5b      	subs	r3, r3, r1
    59f2:	2b00      	cmp	r3, #0
    59f4:	f6bf ae66 	bge.w	56c4 <tcp_receive+0xe4>
    59f8:	4b4a      	ldr	r3, [pc, #296]	; (5b24 <tcp_receive+0x544>)
    59fa:	f9b4 0040 	ldrsh.w	r0, [r4, #64]	; 0x40
    59fe:	6819      	ldr	r1, [r3, #0]
    5a00:	1a89      	subs	r1, r1, r2
    5a02:	eba1 01e0 	sub.w	r1, r1, r0, asr #3
    5a06:	b289      	uxth	r1, r1
    5a08:	b20b      	sxth	r3, r1
    5a0a:	2b00      	cmp	r3, #0
    5a0c:	f9b4 2042 	ldrsh.w	r2, [r4, #66]	; 0x42
    5a10:	4408      	add	r0, r1
    5a12:	bfbc      	itt	lt
    5a14:	4249      	neglt	r1, r1
    5a16:	b20b      	sxthlt	r3, r1
    5a18:	eba2 02a2 	sub.w	r2, r2, r2, asr #2
    5a1c:	4413      	add	r3, r2
    5a1e:	b200      	sxth	r0, r0
    5a20:	b29b      	uxth	r3, r3
    5a22:	f8a4 3042 	strh.w	r3, [r4, #66]	; 0x42
    5a26:	eb03 03e0 	add.w	r3, r3, r0, asr #3
    5a2a:	f8a4 3044 	strh.w	r3, [r4, #68]	; 0x44
    5a2e:	2300      	movs	r3, #0
    5a30:	f8a4 0040 	strh.w	r0, [r4, #64]	; 0x40
    5a34:	63a3      	str	r3, [r4, #56]	; 0x38
    5a36:	e645      	b.n	56c4 <tcp_receive+0xe4>
    5a38:	8103      	strh	r3, [r0, #8]
    5a3a:	8146      	strh	r6, [r0, #10]
    5a3c:	1a89      	subs	r1, r1, r2
    5a3e:	6800      	ldr	r0, [r0, #0]
    5a40:	e65f      	b.n	5702 <tcp_receive+0x122>
    5a42:	4271      	negs	r1, r6
    5a44:	e662      	b.n	570c <tcp_receive+0x12c>
    5a46:	1a9b      	subs	r3, r3, r2
    5a48:	2b00      	cmp	r3, #0
    5a4a:	bfbe      	ittt	lt
    5a4c:	7fa3      	ldrblt	r3, [r4, #30]
    5a4e:	f043 0302 	orrlt.w	r3, r3, #2
    5a52:	77a3      	strblt	r3, [r4, #30]
    5a54:	e666      	b.n	5724 <tcp_receive+0x144>
    5a56:	6803      	ldr	r3, [r0, #0]
    5a58:	6763      	str	r3, [r4, #116]	; 0x74
    5a5a:	47b8      	blx	r7
    5a5c:	6f60      	ldr	r0, [r4, #116]	; 0x74
    5a5e:	2800      	cmp	r0, #0
    5a60:	d1f9      	bne.n	5a56 <tcp_receive+0x476>
    5a62:	8a29      	ldrh	r1, [r5, #16]
    5a64:	8da3      	ldrh	r3, [r4, #44]	; 0x2c
    5a66:	682a      	ldr	r2, [r5, #0]
    5a68:	4f2f      	ldr	r7, [pc, #188]	; (5b28 <tcp_receive+0x548>)
    5a6a:	440a      	add	r2, r1
    5a6c:	1a5b      	subs	r3, r3, r1
    5a6e:	62a2      	str	r2, [r4, #40]	; 0x28
    5a70:	85a3      	strh	r3, [r4, #44]	; 0x2c
    5a72:	4620      	mov	r0, r4
    5a74:	47b8      	blx	r7
    5a76:	69ab      	ldr	r3, [r5, #24]
    5a78:	9701      	str	r7, [sp, #4]
    5a7a:	891a      	ldrh	r2, [r3, #8]
    5a7c:	b112      	cbz	r2, 5a84 <tcp_receive+0x4a4>
    5a7e:	626b      	str	r3, [r5, #36]	; 0x24
    5a80:	2300      	movs	r3, #0
    5a82:	61ab      	str	r3, [r5, #24]
    5a84:	6a2b      	ldr	r3, [r5, #32]
    5a86:	f8df a0a4 	ldr.w	sl, [pc, #164]	; 5b2c <tcp_receive+0x54c>
    5a8a:	8998      	ldrh	r0, [r3, #12]
    5a8c:	f8df b08c 	ldr.w	fp, [pc, #140]	; 5b1c <tcp_receive+0x53c>
    5a90:	47b0      	blx	r6
    5a92:	07c7      	lsls	r7, r0, #31
    5a94:	bf42      	ittt	mi
    5a96:	f895 3028 	ldrbmi.w	r3, [r5, #40]	; 0x28
    5a9a:	f043 0320 	orrmi.w	r3, r3, #32
    5a9e:	f885 3028 	strbmi.w	r3, [r5, #40]	; 0x28
    5aa2:	f04f 0900 	mov.w	r9, #0
    5aa6:	6f67      	ldr	r7, [r4, #116]	; 0x74
    5aa8:	b127      	cbz	r7, 5ab4 <tcp_receive+0x4d4>
    5aaa:	68f9      	ldr	r1, [r7, #12]
    5aac:	6aa2      	ldr	r2, [r4, #40]	; 0x28
    5aae:	684b      	ldr	r3, [r1, #4]
    5ab0:	4293      	cmp	r3, r2
    5ab2:	d03d      	beq.n	5b30 <tcp_receive+0x550>
    5ab4:	7fa3      	ldrb	r3, [r4, #30]
    5ab6:	07d9      	lsls	r1, r3, #31
    5ab8:	d576      	bpl.n	5ba8 <tcp_receive+0x5c8>
    5aba:	f023 0301 	bic.w	r3, r3, #1
    5abe:	f043 0302 	orr.w	r3, r3, #2
    5ac2:	e073      	b.n	5bac <tcp_receive+0x5cc>
    5ac4:	4f15      	ldr	r7, [pc, #84]	; (5b1c <tcp_receive+0x53c>)
    5ac6:	e7c9      	b.n	5a5c <tcp_receive+0x47c>
    5ac8:	f8be 000c 	ldrh.w	r0, [lr, #12]
    5acc:	47b0      	blx	r6
    5ace:	07c1      	lsls	r1, r0, #31
    5ad0:	d51a      	bpl.n	5b08 <tcp_receive+0x528>
    5ad2:	6a2b      	ldr	r3, [r5, #32]
    5ad4:	8998      	ldrh	r0, [r3, #12]
    5ad6:	47b0      	blx	r6
    5ad8:	0782      	lsls	r2, r0, #30
    5ada:	d415      	bmi.n	5b08 <tcp_receive+0x528>
    5adc:	f8d5 b020 	ldr.w	fp, [r5, #32]
    5ae0:	2001      	movs	r0, #1
    5ae2:	f8bb a00c 	ldrh.w	sl, [fp, #12]
    5ae6:	47c0      	blx	r8
    5ae8:	6a2b      	ldr	r3, [r5, #32]
    5aea:	ea4a 0000 	orr.w	r0, sl, r0
    5aee:	f8ab 000c 	strh.w	r0, [fp, #12]
    5af2:	8998      	ldrh	r0, [r3, #12]
    5af4:	f8b5 a01c 	ldrh.w	sl, [r5, #28]
    5af8:	47b0      	blx	r6
    5afa:	f010 0003 	ands.w	r0, r0, #3
    5afe:	bf18      	it	ne
    5b00:	2001      	movne	r0, #1
    5b02:	4482      	add	sl, r0
    5b04:	f8a5 a010 	strh.w	sl, [r5, #16]
    5b08:	f8d7 a000 	ldr.w	sl, [r7]
    5b0c:	4638      	mov	r0, r7
    5b0e:	47c8      	blx	r9
    5b10:	4657      	mov	r7, sl
    5b12:	e663      	b.n	57dc <tcp_receive+0x1fc>
    5b14:	00003435 	.word	0x00003435
    5b18:	0000342b 	.word	0x0000342b
    5b1c:	00004bd1 	.word	0x00004bd1
    5b20:	00004949 	.word	0x00004949
    5b24:	200161c8 	.word	0x200161c8
    5b28:	00004b59 	.word	0x00004b59
    5b2c:	00004963 	.word	0x00004963
    5b30:	602b      	str	r3, [r5, #0]
    5b32:	8988      	ldrh	r0, [r1, #12]
    5b34:	f8b7 8008 	ldrh.w	r8, [r7, #8]
    5b38:	47b0      	blx	r6
    5b3a:	f010 0003 	ands.w	r0, r0, #3
    5b3e:	6aa3      	ldr	r3, [r4, #40]	; 0x28
    5b40:	68fa      	ldr	r2, [r7, #12]
    5b42:	bf18      	it	ne
    5b44:	2001      	movne	r0, #1
    5b46:	4440      	add	r0, r8
    5b48:	4418      	add	r0, r3
    5b4a:	62a0      	str	r0, [r4, #40]	; 0x28
    5b4c:	8990      	ldrh	r0, [r2, #12]
    5b4e:	f8b7 8008 	ldrh.w	r8, [r7, #8]
    5b52:	47b0      	blx	r6
    5b54:	f010 0003 	ands.w	r0, r0, #3
    5b58:	8da3      	ldrh	r3, [r4, #44]	; 0x2c
    5b5a:	bf18      	it	ne
    5b5c:	2001      	movne	r0, #1
    5b5e:	4440      	add	r0, r8
    5b60:	1a18      	subs	r0, r3, r0
    5b62:	85a0      	strh	r0, [r4, #44]	; 0x2c
    5b64:	9b01      	ldr	r3, [sp, #4]
    5b66:	4620      	mov	r0, r4
    5b68:	4798      	blx	r3
    5b6a:	6879      	ldr	r1, [r7, #4]
    5b6c:	890b      	ldrh	r3, [r1, #8]
    5b6e:	b123      	cbz	r3, 5b7a <tcp_receive+0x59a>
    5b70:	6a68      	ldr	r0, [r5, #36]	; 0x24
    5b72:	b1b8      	cbz	r0, 5ba4 <tcp_receive+0x5c4>
    5b74:	47d0      	blx	sl
    5b76:	f8c7 9004 	str.w	r9, [r7, #4]
    5b7a:	68fb      	ldr	r3, [r7, #12]
    5b7c:	8998      	ldrh	r0, [r3, #12]
    5b7e:	47b0      	blx	r6
    5b80:	07c0      	lsls	r0, r0, #31
    5b82:	d50a      	bpl.n	5b9a <tcp_receive+0x5ba>
    5b84:	f895 3028 	ldrb.w	r3, [r5, #40]	; 0x28
    5b88:	f043 0320 	orr.w	r3, r3, #32
    5b8c:	f885 3028 	strb.w	r3, [r5, #40]	; 0x28
    5b90:	7e23      	ldrb	r3, [r4, #24]
    5b92:	2b04      	cmp	r3, #4
    5b94:	bf04      	itt	eq
    5b96:	2307      	moveq	r3, #7
    5b98:	7623      	strbeq	r3, [r4, #24]
    5b9a:	683b      	ldr	r3, [r7, #0]
    5b9c:	6763      	str	r3, [r4, #116]	; 0x74
    5b9e:	4638      	mov	r0, r7
    5ba0:	47d8      	blx	fp
    5ba2:	e780      	b.n	5aa6 <tcp_receive+0x4c6>
    5ba4:	6269      	str	r1, [r5, #36]	; 0x24
    5ba6:	e7e6      	b.n	5b76 <tcp_receive+0x596>
    5ba8:	f043 0301 	orr.w	r3, r3, #1
    5bac:	77a3      	strb	r3, [r4, #30]
    5bae:	b003      	add	sp, #12
    5bb0:	e8bd 8ff0 	ldmia.w	sp!, {r4, r5, r6, r7, r8, r9, sl, fp, pc}
    5bb4:	4620      	mov	r0, r4
    5bb6:	4b61      	ldr	r3, [pc, #388]	; (5d3c <tcp_receive+0x75c>)
    5bb8:	4798      	blx	r3
    5bba:	6f66      	ldr	r6, [r4, #116]	; 0x74
    5bbc:	b926      	cbnz	r6, 5bc8 <tcp_receive+0x5e8>
    5bbe:	4860      	ldr	r0, [pc, #384]	; (5d40 <tcp_receive+0x760>)
    5bc0:	4b60      	ldr	r3, [pc, #384]	; (5d44 <tcp_receive+0x764>)
    5bc2:	4798      	blx	r3
    5bc4:	6760      	str	r0, [r4, #116]	; 0x74
    5bc6:	e7f2      	b.n	5bae <tcp_receive+0x5ce>
    5bc8:	682b      	ldr	r3, [r5, #0]
    5bca:	2700      	movs	r7, #0
    5bcc:	f103 3eff 	add.w	lr, r3, #4294967295
    5bd0:	f103 0c01 	add.w	ip, r3, #1
    5bd4:	68f0      	ldr	r0, [r6, #12]
    5bd6:	6842      	ldr	r2, [r0, #4]
    5bd8:	429a      	cmp	r2, r3
    5bda:	d114      	bne.n	5c06 <tcp_receive+0x626>
    5bdc:	8baa      	ldrh	r2, [r5, #28]
    5bde:	8933      	ldrh	r3, [r6, #8]
    5be0:	429a      	cmp	r2, r3
    5be2:	d9e4      	bls.n	5bae <tcp_receive+0x5ce>
    5be4:	4856      	ldr	r0, [pc, #344]	; (5d40 <tcp_receive+0x760>)
    5be6:	4b57      	ldr	r3, [pc, #348]	; (5d44 <tcp_receive+0x764>)
    5be8:	4798      	blx	r3
    5bea:	2800      	cmp	r0, #0
    5bec:	d0df      	beq.n	5bae <tcp_receive+0x5ce>
    5bee:	b147      	cbz	r7, 5c02 <tcp_receive+0x622>
    5bf0:	6038      	str	r0, [r7, #0]
    5bf2:	4631      	mov	r1, r6
    5bf4:	4b54      	ldr	r3, [pc, #336]	; (5d48 <tcp_receive+0x768>)
    5bf6:	b003      	add	sp, #12
    5bf8:	e8bd 4ff0 	ldmia.w	sp!, {r4, r5, r6, r7, r8, r9, sl, fp, lr}
    5bfc:	4718      	bx	r3
    5bfe:	460e      	mov	r6, r1
    5c00:	e7e8      	b.n	5bd4 <tcp_receive+0x5f4>
    5c02:	6760      	str	r0, [r4, #116]	; 0x74
    5c04:	e7f5      	b.n	5bf2 <tcp_receive+0x612>
    5c06:	b94f      	cbnz	r7, 5c1c <tcp_receive+0x63c>
    5c08:	1a99      	subs	r1, r3, r2
    5c0a:	2900      	cmp	r1, #0
    5c0c:	da28      	bge.n	5c60 <tcp_receive+0x680>
    5c0e:	484c      	ldr	r0, [pc, #304]	; (5d40 <tcp_receive+0x760>)
    5c10:	4b4c      	ldr	r3, [pc, #304]	; (5d44 <tcp_receive+0x764>)
    5c12:	4798      	blx	r3
    5c14:	2800      	cmp	r0, #0
    5c16:	d0ca      	beq.n	5bae <tcp_receive+0x5ce>
    5c18:	6760      	str	r0, [r4, #116]	; 0x74
    5c1a:	e7ea      	b.n	5bf2 <tcp_receive+0x612>
    5c1c:	68f9      	ldr	r1, [r7, #12]
    5c1e:	6849      	ldr	r1, [r1, #4]
    5c20:	ebae 0101 	sub.w	r1, lr, r1
    5c24:	2900      	cmp	r1, #0
    5c26:	db1b      	blt.n	5c60 <tcp_receive+0x680>
    5c28:	ebac 0102 	sub.w	r1, ip, r2
    5c2c:	2900      	cmp	r1, #0
    5c2e:	dc17      	bgt.n	5c60 <tcp_receive+0x680>
    5c30:	4843      	ldr	r0, [pc, #268]	; (5d40 <tcp_receive+0x760>)
    5c32:	4b44      	ldr	r3, [pc, #272]	; (5d44 <tcp_receive+0x764>)
    5c34:	4798      	blx	r3
    5c36:	4604      	mov	r4, r0
    5c38:	2800      	cmp	r0, #0
    5c3a:	d0b8      	beq.n	5bae <tcp_receive+0x5ce>
    5c3c:	68fb      	ldr	r3, [r7, #12]
    5c3e:	6829      	ldr	r1, [r5, #0]
    5c40:	685a      	ldr	r2, [r3, #4]
    5c42:	893b      	ldrh	r3, [r7, #8]
    5c44:	4413      	add	r3, r2
    5c46:	1a5b      	subs	r3, r3, r1
    5c48:	2b00      	cmp	r3, #0
    5c4a:	dd05      	ble.n	5c58 <tcp_receive+0x678>
    5c4c:	1a89      	subs	r1, r1, r2
    5c4e:	b289      	uxth	r1, r1
    5c50:	8139      	strh	r1, [r7, #8]
    5c52:	6878      	ldr	r0, [r7, #4]
    5c54:	4b3d      	ldr	r3, [pc, #244]	; (5d4c <tcp_receive+0x76c>)
    5c56:	4798      	blx	r3
    5c58:	603c      	str	r4, [r7, #0]
    5c5a:	4631      	mov	r1, r6
    5c5c:	4620      	mov	r0, r4
    5c5e:	e7c9      	b.n	5bf4 <tcp_receive+0x614>
    5c60:	6831      	ldr	r1, [r6, #0]
    5c62:	4637      	mov	r7, r6
    5c64:	2900      	cmp	r1, #0
    5c66:	d1ca      	bne.n	5bfe <tcp_receive+0x61e>
    5c68:	1a9b      	subs	r3, r3, r2
    5c6a:	2b00      	cmp	r3, #0
    5c6c:	dd9f      	ble.n	5bae <tcp_receive+0x5ce>
    5c6e:	8980      	ldrh	r0, [r0, #12]
    5c70:	4f37      	ldr	r7, [pc, #220]	; (5d50 <tcp_receive+0x770>)
    5c72:	47b8      	blx	r7
    5c74:	07c2      	lsls	r2, r0, #31
    5c76:	d49a      	bmi.n	5bae <tcp_receive+0x5ce>
    5c78:	4831      	ldr	r0, [pc, #196]	; (5d40 <tcp_receive+0x760>)
    5c7a:	4b32      	ldr	r3, [pc, #200]	; (5d44 <tcp_receive+0x764>)
    5c7c:	4798      	blx	r3
    5c7e:	6030      	str	r0, [r6, #0]
    5c80:	2800      	cmp	r0, #0
    5c82:	d094      	beq.n	5bae <tcp_receive+0x5ce>
    5c84:	68f3      	ldr	r3, [r6, #12]
    5c86:	6829      	ldr	r1, [r5, #0]
    5c88:	685a      	ldr	r2, [r3, #4]
    5c8a:	8933      	ldrh	r3, [r6, #8]
    5c8c:	4413      	add	r3, r2
    5c8e:	1a5b      	subs	r3, r3, r1
    5c90:	2b00      	cmp	r3, #0
    5c92:	dd05      	ble.n	5ca0 <tcp_receive+0x6c0>
    5c94:	1a89      	subs	r1, r1, r2
    5c96:	b289      	uxth	r1, r1
    5c98:	8131      	strh	r1, [r6, #8]
    5c9a:	6870      	ldr	r0, [r6, #4]
    5c9c:	4b2b      	ldr	r3, [pc, #172]	; (5d4c <tcp_receive+0x76c>)
    5c9e:	4798      	blx	r3
    5ca0:	682b      	ldr	r3, [r5, #0]
    5ca2:	8a2a      	ldrh	r2, [r5, #16]
    5ca4:	6aa1      	ldr	r1, [r4, #40]	; 0x28
    5ca6:	441a      	add	r2, r3
    5ca8:	8da3      	ldrh	r3, [r4, #44]	; 0x2c
    5caa:	440b      	add	r3, r1
    5cac:	429a      	cmp	r2, r3
    5cae:	f67f af7e 	bls.w	5bae <tcp_receive+0x5ce>
    5cb2:	6833      	ldr	r3, [r6, #0]
    5cb4:	68db      	ldr	r3, [r3, #12]
    5cb6:	8998      	ldrh	r0, [r3, #12]
    5cb8:	47b8      	blx	r7
    5cba:	07c3      	lsls	r3, r0, #31
    5cbc:	d510      	bpl.n	5ce0 <tcp_receive+0x700>
    5cbe:	6833      	ldr	r3, [r6, #0]
    5cc0:	f8d3 900c 	ldr.w	r9, [r3, #12]
    5cc4:	f8b9 800c 	ldrh.w	r8, [r9, #12]
    5cc8:	4640      	mov	r0, r8
    5cca:	47b8      	blx	r7
    5ccc:	4b21      	ldr	r3, [pc, #132]	; (5d54 <tcp_receive+0x774>)
    5cce:	f000 003e 	and.w	r0, r0, #62	; 0x3e
    5cd2:	4798      	blx	r3
    5cd4:	f428 587c 	bic.w	r8, r8, #16128	; 0x3f00
    5cd8:	ea48 0800 	orr.w	r8, r8, r0
    5cdc:	f8a9 800c 	strh.w	r8, [r9, #12]
    5ce0:	8da1      	ldrh	r1, [r4, #44]	; 0x2c
    5ce2:	682a      	ldr	r2, [r5, #0]
    5ce4:	6833      	ldr	r3, [r6, #0]
    5ce6:	1a89      	subs	r1, r1, r2
    5ce8:	6aa2      	ldr	r2, [r4, #40]	; 0x28
    5cea:	6858      	ldr	r0, [r3, #4]
    5cec:	4411      	add	r1, r2
    5cee:	b289      	uxth	r1, r1
    5cf0:	8119      	strh	r1, [r3, #8]
    5cf2:	4b16      	ldr	r3, [pc, #88]	; (5d4c <tcp_receive+0x76c>)
    5cf4:	4798      	blx	r3
    5cf6:	6833      	ldr	r3, [r6, #0]
    5cf8:	891c      	ldrh	r4, [r3, #8]
    5cfa:	68db      	ldr	r3, [r3, #12]
    5cfc:	8998      	ldrh	r0, [r3, #12]
    5cfe:	47b8      	blx	r7
    5d00:	f010 0003 	ands.w	r0, r0, #3
    5d04:	bf18      	it	ne
    5d06:	2001      	movne	r0, #1
    5d08:	4404      	add	r4, r0
    5d0a:	822c      	strh	r4, [r5, #16]
    5d0c:	e74f      	b.n	5bae <tcp_receive+0x5ce>
    5d0e:	4b0b      	ldr	r3, [pc, #44]	; (5d3c <tcp_receive+0x75c>)
    5d10:	4620      	mov	r0, r4
    5d12:	b003      	add	sp, #12
    5d14:	e8bd 4ff0 	ldmia.w	sp!, {r4, r5, r6, r7, r8, r9, sl, fp, lr}
    5d18:	4718      	bx	r3
    5d1a:	682b      	ldr	r3, [r5, #0]
    5d1c:	1a99      	subs	r1, r3, r2
    5d1e:	2900      	cmp	r1, #0
    5d20:	db06      	blt.n	5d30 <tcp_receive+0x750>
    5d22:	3301      	adds	r3, #1
    5d24:	1a9b      	subs	r3, r3, r2
    5d26:	8da2      	ldrh	r2, [r4, #44]	; 0x2c
    5d28:	1a9b      	subs	r3, r3, r2
    5d2a:	2b00      	cmp	r3, #0
    5d2c:	f77f af3f 	ble.w	5bae <tcp_receive+0x5ce>
    5d30:	7fa3      	ldrb	r3, [r4, #30]
    5d32:	e6c4      	b.n	5abe <tcp_receive+0x4de>
    5d34:	2300      	movs	r3, #0
    5d36:	f884 3047 	strb.w	r3, [r4, #71]	; 0x47
    5d3a:	e4b8      	b.n	56ae <tcp_receive+0xce>
    5d3c:	00006bc9 	.word	0x00006bc9
    5d40:	200080b4 	.word	0x200080b4
    5d44:	00004c09 	.word	0x00004c09
    5d48:	00005545 	.word	0x00005545
    5d4c:	000048f5 	.word	0x000048f5
    5d50:	0000342b 	.word	0x0000342b
    5d54:	00003425 	.word	0x00003425

00005d58 <tcp_parseopt.isra.0>:
    5d58:	b5f8      	push	{r3, r4, r5, r6, r7, lr}
    5d5a:	4f1e      	ldr	r7, [pc, #120]	; (5dd4 <tcp_parseopt.isra.0+0x7c>)
    5d5c:	4e1e      	ldr	r6, [pc, #120]	; (5dd8 <tcp_parseopt.isra.0+0x80>)
    5d5e:	68fd      	ldr	r5, [r7, #12]
    5d60:	4604      	mov	r4, r0
    5d62:	89a8      	ldrh	r0, [r5, #12]
    5d64:	47b0      	blx	r6
    5d66:	f3c0 300f 	ubfx	r0, r0, #12, #16
    5d6a:	2805      	cmp	r0, #5
    5d6c:	d90e      	bls.n	5d8c <tcp_parseopt.isra.0+0x34>
    5d6e:	68fb      	ldr	r3, [r7, #12]
    5d70:	8998      	ldrh	r0, [r3, #12]
    5d72:	47b0      	blx	r6
    5d74:	0b00      	lsrs	r0, r0, #12
    5d76:	3805      	subs	r0, #5
    5d78:	0080      	lsls	r0, r0, #2
    5d7a:	3514      	adds	r5, #20
    5d7c:	b280      	uxth	r0, r0
    5d7e:	2300      	movs	r3, #0
    5d80:	f240 56b3 	movw	r6, #1459	; 0x5b3
    5d84:	f240 57b4 	movw	r7, #1460	; 0x5b4
    5d88:	4298      	cmp	r0, r3
    5d8a:	d800      	bhi.n	5d8e <tcp_parseopt.isra.0+0x36>
    5d8c:	bdf8      	pop	{r3, r4, r5, r6, r7, pc}
    5d8e:	5cea      	ldrb	r2, [r5, r3]
    5d90:	2a01      	cmp	r2, #1
    5d92:	d009      	beq.n	5da8 <tcp_parseopt.isra.0+0x50>
    5d94:	d3fa      	bcc.n	5d8c <tcp_parseopt.isra.0+0x34>
    5d96:	2a02      	cmp	r2, #2
    5d98:	eb05 0103 	add.w	r1, r5, r3
    5d9c:	d007      	beq.n	5dae <tcp_parseopt.isra.0+0x56>
    5d9e:	784a      	ldrb	r2, [r1, #1]
    5da0:	2a00      	cmp	r2, #0
    5da2:	d0f3      	beq.n	5d8c <tcp_parseopt.isra.0+0x34>
    5da4:	4413      	add	r3, r2
    5da6:	e000      	b.n	5daa <tcp_parseopt.isra.0+0x52>
    5da8:	3301      	adds	r3, #1
    5daa:	b29b      	uxth	r3, r3
    5dac:	e7ec      	b.n	5d88 <tcp_parseopt.isra.0+0x30>
    5dae:	784a      	ldrb	r2, [r1, #1]
    5db0:	2a04      	cmp	r2, #4
    5db2:	d1eb      	bne.n	5d8c <tcp_parseopt.isra.0+0x34>
    5db4:	1cda      	adds	r2, r3, #3
    5db6:	4282      	cmp	r2, r0
    5db8:	dae8      	bge.n	5d8c <tcp_parseopt.isra.0+0x34>
    5dba:	f891 e002 	ldrb.w	lr, [r1, #2]
    5dbe:	78ca      	ldrb	r2, [r1, #3]
    5dc0:	ea42 220e 	orr.w	r2, r2, lr, lsl #8
    5dc4:	1e51      	subs	r1, r2, #1
    5dc6:	b289      	uxth	r1, r1
    5dc8:	42b1      	cmp	r1, r6
    5dca:	bf88      	it	hi
    5dcc:	463a      	movhi	r2, r7
    5dce:	8022      	strh	r2, [r4, #0]
    5dd0:	3304      	adds	r3, #4
    5dd2:	e7ea      	b.n	5daa <tcp_parseopt.isra.0+0x52>
    5dd4:	200080a0 	.word	0x200080a0
    5dd8:	0000342b 	.word	0x0000342b

00005ddc <tcp_input>:
    5ddc:	e92d 4ff0 	stmdb	sp!, {r4, r5, r6, r7, r8, r9, sl, fp, lr}
    5de0:	6843      	ldr	r3, [r0, #4]
    5de2:	4d94      	ldr	r5, [pc, #592]	; (6034 <tcp_input+0x258>)
    5de4:	4c94      	ldr	r4, [pc, #592]	; (6038 <tcp_input+0x25c>)
    5de6:	4688      	mov	r8, r1
    5de8:	7819      	ldrb	r1, [r3, #0]
    5dea:	f001 010f 	and.w	r1, r1, #15
    5dee:	eb03 0381 	add.w	r3, r3, r1, lsl #2
    5df2:	0089      	lsls	r1, r1, #2
    5df4:	b087      	sub	sp, #28
    5df6:	4249      	negs	r1, r1
    5df8:	4606      	mov	r6, r0
    5dfa:	60eb      	str	r3, [r5, #12]
    5dfc:	47a0      	blx	r4
    5dfe:	2800      	cmp	r0, #0
    5e00:	f040 80e7 	bne.w	5fd2 <tcp_input+0x1f6>
    5e04:	8933      	ldrh	r3, [r6, #8]
    5e06:	2b13      	cmp	r3, #19
    5e08:	f240 80e3 	bls.w	5fd2 <tcp_input+0x1f6>
    5e0c:	4f8b      	ldr	r7, [pc, #556]	; (603c <tcp_input+0x260>)
    5e0e:	4b8c      	ldr	r3, [pc, #560]	; (6040 <tcp_input+0x264>)
    5e10:	6838      	ldr	r0, [r7, #0]
    5e12:	4641      	mov	r1, r8
    5e14:	4798      	blx	r3
    5e16:	46b8      	mov	r8, r7
    5e18:	2800      	cmp	r0, #0
    5e1a:	f040 80da 	bne.w	5fd2 <tcp_input+0x1f6>
    5e1e:	683b      	ldr	r3, [r7, #0]
    5e20:	f003 03f0 	and.w	r3, r3, #240	; 0xf0
    5e24:	2be0      	cmp	r3, #224	; 0xe0
    5e26:	f000 80d4 	beq.w	5fd2 <tcp_input+0x1f6>
    5e2a:	4f86      	ldr	r7, [pc, #536]	; (6044 <tcp_input+0x268>)
    5e2c:	8933      	ldrh	r3, [r6, #8]
    5e2e:	9300      	str	r3, [sp, #0]
    5e30:	4642      	mov	r2, r8
    5e32:	2306      	movs	r3, #6
    5e34:	4639      	mov	r1, r7
    5e36:	4630      	mov	r0, r6
    5e38:	f8df 9230 	ldr.w	r9, [pc, #560]	; 606c <tcp_input+0x290>
    5e3c:	47c8      	blx	r9
    5e3e:	9705      	str	r7, [sp, #20]
    5e40:	2800      	cmp	r0, #0
    5e42:	f040 80c6 	bne.w	5fd2 <tcp_input+0x1f6>
    5e46:	68eb      	ldr	r3, [r5, #12]
    5e48:	4f7f      	ldr	r7, [pc, #508]	; (6048 <tcp_input+0x26c>)
    5e4a:	8998      	ldrh	r0, [r3, #12]
    5e4c:	47b8      	blx	r7
    5e4e:	0b00      	lsrs	r0, r0, #12
    5e50:	ebc0 3080 	rsb	r0, r0, r0, lsl #14
    5e54:	0081      	lsls	r1, r0, #2
    5e56:	b209      	sxth	r1, r1
    5e58:	4630      	mov	r0, r6
    5e5a:	47a0      	blx	r4
    5e5c:	4682      	mov	sl, r0
    5e5e:	2800      	cmp	r0, #0
    5e60:	f040 80b7 	bne.w	5fd2 <tcp_input+0x1f6>
    5e64:	68ec      	ldr	r4, [r5, #12]
    5e66:	f8df 9208 	ldr.w	r9, [pc, #520]	; 6070 <tcp_input+0x294>
    5e6a:	8820      	ldrh	r0, [r4, #0]
    5e6c:	47b8      	blx	r7
    5e6e:	8020      	strh	r0, [r4, #0]
    5e70:	68ec      	ldr	r4, [r5, #12]
    5e72:	8860      	ldrh	r0, [r4, #2]
    5e74:	47b8      	blx	r7
    5e76:	8060      	strh	r0, [r4, #2]
    5e78:	68ec      	ldr	r4, [r5, #12]
    5e7a:	6860      	ldr	r0, [r4, #4]
    5e7c:	47c8      	blx	r9
    5e7e:	6060      	str	r0, [r4, #4]
    5e80:	68ec      	ldr	r4, [r5, #12]
    5e82:	6028      	str	r0, [r5, #0]
    5e84:	68a0      	ldr	r0, [r4, #8]
    5e86:	47c8      	blx	r9
    5e88:	60a0      	str	r0, [r4, #8]
    5e8a:	68ec      	ldr	r4, [r5, #12]
    5e8c:	60a8      	str	r0, [r5, #8]
    5e8e:	89e0      	ldrh	r0, [r4, #14]
    5e90:	47b8      	blx	r7
    5e92:	68eb      	ldr	r3, [r5, #12]
    5e94:	81e0      	strh	r0, [r4, #14]
    5e96:	8998      	ldrh	r0, [r3, #12]
    5e98:	47b8      	blx	r7
    5e9a:	b2c3      	uxtb	r3, r0
    5e9c:	f013 0103 	ands.w	r1, r3, #3
    5ea0:	f8b6 b008 	ldrh.w	fp, [r6, #8]
    5ea4:	f8d5 e00c 	ldr.w	lr, [r5, #12]
    5ea8:	f8d8 c000 	ldr.w	ip, [r8]
    5eac:	bf18      	it	ne
    5eae:	2101      	movne	r1, #1
    5eb0:	f003 023f 	and.w	r2, r3, #63	; 0x3f
    5eb4:	4459      	add	r1, fp
    5eb6:	712a      	strb	r2, [r5, #4]
    5eb8:	b28a      	uxth	r2, r1
    5eba:	9202      	str	r2, [sp, #8]
    5ebc:	f8bd 2008 	ldrh.w	r2, [sp, #8]
    5ec0:	822a      	strh	r2, [r5, #16]
    5ec2:	4a62      	ldr	r2, [pc, #392]	; (604c <tcp_input+0x270>)
    5ec4:	6810      	ldr	r0, [r2, #0]
    5ec6:	9003      	str	r0, [sp, #12]
    5ec8:	9805      	ldr	r0, [sp, #20]
    5eca:	9c03      	ldr	r4, [sp, #12]
    5ecc:	6800      	ldr	r0, [r0, #0]
    5ece:	9004      	str	r0, [sp, #16]
    5ed0:	4691      	mov	r9, r2
    5ed2:	4650      	mov	r0, sl
    5ed4:	b914      	cbnz	r4, 5edc <tcp_input+0x100>
    5ed6:	4a5e      	ldr	r2, [pc, #376]	; (6050 <tcp_input+0x274>)
    5ed8:	6810      	ldr	r0, [r2, #0]
    5eda:	e081      	b.n	5fe0 <tcp_input+0x204>
    5edc:	f8b4 a01c 	ldrh.w	sl, [r4, #28]
    5ee0:	f8be 2000 	ldrh.w	r2, [lr]
    5ee4:	4592      	cmp	sl, r2
    5ee6:	d13c      	bne.n	5f62 <tcp_input+0x186>
    5ee8:	f8b4 a01a 	ldrh.w	sl, [r4, #26]
    5eec:	f8be 2002 	ldrh.w	r2, [lr, #2]
    5ef0:	4592      	cmp	sl, r2
    5ef2:	d136      	bne.n	5f62 <tcp_input+0x186>
    5ef4:	6862      	ldr	r2, [r4, #4]
    5ef6:	4611      	mov	r1, r2
    5ef8:	9a04      	ldr	r2, [sp, #16]
    5efa:	4291      	cmp	r1, r2
    5efc:	d131      	bne.n	5f62 <tcp_input+0x186>
    5efe:	6822      	ldr	r2, [r4, #0]
    5f00:	4562      	cmp	r2, ip
    5f02:	d12e      	bne.n	5f62 <tcp_input+0x186>
    5f04:	b128      	cbz	r0, 5f12 <tcp_input+0x136>
    5f06:	68e2      	ldr	r2, [r4, #12]
    5f08:	60c2      	str	r2, [r0, #12]
    5f0a:	9a03      	ldr	r2, [sp, #12]
    5f0c:	60e2      	str	r2, [r4, #12]
    5f0e:	4a4f      	ldr	r2, [pc, #316]	; (604c <tcp_input+0x270>)
    5f10:	6014      	str	r4, [r2, #0]
    5f12:	2200      	movs	r2, #0
    5f14:	071b      	lsls	r3, r3, #28
    5f16:	616a      	str	r2, [r5, #20]
    5f18:	f8a5 b01c 	strh.w	fp, [r5, #28]
    5f1c:	61ae      	str	r6, [r5, #24]
    5f1e:	f8c5 e020 	str.w	lr, [r5, #32]
    5f22:	626a      	str	r2, [r5, #36]	; 0x24
    5f24:	f885 2028 	strb.w	r2, [r5, #40]	; 0x28
    5f28:	d503      	bpl.n	5f32 <tcp_input+0x156>
    5f2a:	7b73      	ldrb	r3, [r6, #13]
    5f2c:	f043 0301 	orr.w	r3, r3, #1
    5f30:	7373      	strb	r3, [r6, #13]
    5f32:	6fa3      	ldr	r3, [r4, #120]	; 0x78
    5f34:	4e47      	ldr	r6, [pc, #284]	; (6054 <tcp_input+0x278>)
    5f36:	2b00      	cmp	r3, #0
    5f38:	f040 80ed 	bne.w	6116 <tcp_input+0x33a>
    5f3c:	792b      	ldrb	r3, [r5, #4]
    5f3e:	6034      	str	r4, [r6, #0]
    5f40:	075a      	lsls	r2, r3, #29
    5f42:	f100 8100 	bmi.w	6146 <tcp_input+0x36a>
    5f46:	f013 0f02 	tst.w	r3, #2
    5f4a:	7fa3      	ldrb	r3, [r4, #30]
    5f4c:	f000 8129 	beq.w	61a2 <tcp_input+0x3c6>
    5f50:	7e22      	ldrb	r2, [r4, #24]
    5f52:	3a02      	subs	r2, #2
    5f54:	2a01      	cmp	r2, #1
    5f56:	f240 8124 	bls.w	61a2 <tcp_input+0x3c6>
    5f5a:	f043 0302 	orr.w	r3, r3, #2
    5f5e:	77a3      	strb	r3, [r4, #30]
    5f60:	e10a      	b.n	6178 <tcp_input+0x39c>
    5f62:	4620      	mov	r0, r4
    5f64:	68e4      	ldr	r4, [r4, #12]
    5f66:	e7b5      	b.n	5ed4 <tcp_input+0xf8>
    5f68:	8b82      	ldrh	r2, [r0, #28]
    5f6a:	f8be a000 	ldrh.w	sl, [lr]
    5f6e:	4592      	cmp	sl, r2
    5f70:	d135      	bne.n	5fde <tcp_input+0x202>
    5f72:	8b42      	ldrh	r2, [r0, #26]
    5f74:	f8be 4002 	ldrh.w	r4, [lr, #2]
    5f78:	4294      	cmp	r4, r2
    5f7a:	d130      	bne.n	5fde <tcp_input+0x202>
    5f7c:	6842      	ldr	r2, [r0, #4]
    5f7e:	4611      	mov	r1, r2
    5f80:	9a04      	ldr	r2, [sp, #16]
    5f82:	428a      	cmp	r2, r1
    5f84:	d12b      	bne.n	5fde <tcp_input+0x202>
    5f86:	6802      	ldr	r2, [r0, #0]
    5f88:	4594      	cmp	ip, r2
    5f8a:	d128      	bne.n	5fde <tcp_input+0x202>
    5f8c:	075a      	lsls	r2, r3, #29
    5f8e:	d420      	bmi.n	5fd2 <tcp_input+0x1f6>
    5f90:	079f      	lsls	r7, r3, #30
    5f92:	d511      	bpl.n	5fb8 <tcp_input+0x1dc>
    5f94:	682f      	ldr	r7, [r5, #0]
    5f96:	6a83      	ldr	r3, [r0, #40]	; 0x28
    5f98:	1afb      	subs	r3, r7, r3
    5f9a:	d412      	bmi.n	5fc2 <tcp_input+0x1e6>
    5f9c:	8d82      	ldrh	r2, [r0, #44]	; 0x2c
    5f9e:	1a9b      	subs	r3, r3, r2
    5fa0:	2b00      	cmp	r3, #0
    5fa2:	dc0e      	bgt.n	5fc2 <tcp_input+0x1e6>
    5fa4:	9902      	ldr	r1, [sp, #8]
    5fa6:	4b27      	ldr	r3, [pc, #156]	; (6044 <tcp_input+0x268>)
    5fa8:	4a24      	ldr	r2, [pc, #144]	; (603c <tcp_input+0x260>)
    5faa:	e88d 0410 	stmia.w	sp, {r4, sl}
    5fae:	4439      	add	r1, r7
    5fb0:	68a8      	ldr	r0, [r5, #8]
    5fb2:	4c29      	ldr	r4, [pc, #164]	; (6058 <tcp_input+0x27c>)
    5fb4:	47a0      	blx	r4
    5fb6:	e00c      	b.n	5fd2 <tcp_input+0x1f6>
    5fb8:	07dc      	lsls	r4, r3, #31
    5fba:	bf42      	ittt	mi
    5fbc:	4b27      	ldrmi	r3, [pc, #156]	; (605c <tcp_input+0x280>)
    5fbe:	681b      	ldrmi	r3, [r3, #0]
    5fc0:	6243      	strmi	r3, [r0, #36]	; 0x24
    5fc2:	9b02      	ldr	r3, [sp, #8]
    5fc4:	b12b      	cbz	r3, 5fd2 <tcp_input+0x1f6>
    5fc6:	7f83      	ldrb	r3, [r0, #30]
    5fc8:	f043 0302 	orr.w	r3, r3, #2
    5fcc:	7783      	strb	r3, [r0, #30]
    5fce:	4b24      	ldr	r3, [pc, #144]	; (6060 <tcp_input+0x284>)
    5fd0:	4798      	blx	r3
    5fd2:	4b24      	ldr	r3, [pc, #144]	; (6064 <tcp_input+0x288>)
    5fd4:	4630      	mov	r0, r6
    5fd6:	b007      	add	sp, #28
    5fd8:	e8bd 4ff0 	ldmia.w	sp!, {r4, r5, r6, r7, r8, r9, sl, fp, lr}
    5fdc:	4718      	bx	r3
    5fde:	68c0      	ldr	r0, [r0, #12]
    5fe0:	2800      	cmp	r0, #0
    5fe2:	d1c1      	bne.n	5f68 <tcp_input+0x18c>
    5fe4:	4a20      	ldr	r2, [pc, #128]	; (6068 <tcp_input+0x28c>)
    5fe6:	6814      	ldr	r4, [r2, #0]
    5fe8:	46a2      	mov	sl, r4
    5fea:	f1ba 0f00 	cmp.w	sl, #0
    5fee:	d10e      	bne.n	600e <tcp_input+0x232>
    5ff0:	f8be 000c 	ldrh.w	r0, [lr, #12]
    5ff4:	47b8      	blx	r7
    5ff6:	0742      	lsls	r2, r0, #29
    5ff8:	d4eb      	bmi.n	5fd2 <tcp_input+0x1f6>
    5ffa:	68eb      	ldr	r3, [r5, #12]
    5ffc:	8a28      	ldrh	r0, [r5, #16]
    5ffe:	881a      	ldrh	r2, [r3, #0]
    6000:	9201      	str	r2, [sp, #4]
    6002:	885b      	ldrh	r3, [r3, #2]
    6004:	9300      	str	r3, [sp, #0]
    6006:	6829      	ldr	r1, [r5, #0]
    6008:	4b0e      	ldr	r3, [pc, #56]	; (6044 <tcp_input+0x268>)
    600a:	4a0c      	ldr	r2, [pc, #48]	; (603c <tcp_input+0x260>)
    600c:	e2ea      	b.n	65e4 <tcp_input+0x808>
    600e:	f8ba 201a 	ldrh.w	r2, [sl, #26]
    6012:	f8be b002 	ldrh.w	fp, [lr, #2]
    6016:	4593      	cmp	fp, r2
    6018:	d108      	bne.n	602c <tcp_input+0x250>
    601a:	f8da b000 	ldr.w	fp, [sl]
    601e:	45dc      	cmp	ip, fp
    6020:	f000 82c8 	beq.w	65b4 <tcp_input+0x7d8>
    6024:	f1bb 0f00 	cmp.w	fp, #0
    6028:	f000 82c4 	beq.w	65b4 <tcp_input+0x7d8>
    602c:	4650      	mov	r0, sl
    602e:	f8da a00c 	ldr.w	sl, [sl, #12]
    6032:	e7da      	b.n	5fea <tcp_input+0x20e>
    6034:	200080a0 	.word	0x200080a0
    6038:	0000472b 	.word	0x0000472b
    603c:	20012998 	.word	0x20012998
    6040:	00003ac1 	.word	0x00003ac1
    6044:	20012990 	.word	0x20012990
    6048:	0000342b 	.word	0x0000342b
    604c:	200161c4 	.word	0x200161c4
    6050:	200161d8 	.word	0x200161d8
    6054:	200161dc 	.word	0x200161dc
    6058:	00006ecd 	.word	0x00006ecd
    605c:	200161c8 	.word	0x200161c8
    6060:	00006c3d 	.word	0x00006c3d
    6064:	00004785 	.word	0x00004785
    6068:	200161cc 	.word	0x200161cc
    606c:	000036d5 	.word	0x000036d5
    6070:	00003435 	.word	0x00003435
    6074:	0799      	lsls	r1, r3, #30
    6076:	d5ac      	bpl.n	5fd2 <tcp_input+0x1f6>
    6078:	f89a 0019 	ldrb.w	r0, [sl, #25]
    607c:	4b97      	ldr	r3, [pc, #604]	; (62dc <tcp_input+0x500>)
    607e:	4798      	blx	r3
    6080:	4607      	mov	r7, r0
    6082:	2800      	cmp	r0, #0
    6084:	d0a5      	beq.n	5fd2 <tcp_input+0x1f6>
    6086:	f8d8 3000 	ldr.w	r3, [r8]
    608a:	6003      	str	r3, [r0, #0]
    608c:	f8ba 301a 	ldrh.w	r3, [sl, #26]
    6090:	8343      	strh	r3, [r0, #26]
    6092:	9b05      	ldr	r3, [sp, #20]
    6094:	68ea      	ldr	r2, [r5, #12]
    6096:	681b      	ldr	r3, [r3, #0]
    6098:	7851      	ldrb	r1, [r2, #1]
    609a:	6043      	str	r3, [r0, #4]
    609c:	7813      	ldrb	r3, [r2, #0]
    609e:	ea43 2301 	orr.w	r3, r3, r1, lsl #8
    60a2:	8383      	strh	r3, [r0, #28]
    60a4:	2303      	movs	r3, #3
    60a6:	7603      	strb	r3, [r0, #24]
    60a8:	682b      	ldr	r3, [r5, #0]
    60aa:	1c59      	adds	r1, r3, #1
    60ac:	6281      	str	r1, [r0, #40]	; 0x28
    60ae:	6301      	str	r1, [r0, #48]	; 0x30
    60b0:	3b01      	subs	r3, #1
    60b2:	89d2      	ldrh	r2, [r2, #14]
    60b4:	6543      	str	r3, [r0, #84]	; 0x54
    60b6:	f8da 3010 	ldr.w	r3, [sl, #16]
    60ba:	6103      	str	r3, [r0, #16]
    60bc:	f8da 3014 	ldr.w	r3, [sl, #20]
    60c0:	f8a0 2060 	strh.w	r2, [r0, #96]	; 0x60
    60c4:	f8a0 2062 	strh.w	r2, [r0, #98]	; 0x62
    60c8:	f8a0 204e 	strh.w	r2, [r0, #78]	; 0x4e
    60cc:	6143      	str	r3, [r0, #20]
    60ce:	f89a 3008 	ldrb.w	r3, [sl, #8]
    60d2:	f023 0373 	bic.w	r3, r3, #115	; 0x73
    60d6:	7203      	strb	r3, [r0, #8]
    60d8:	f8d9 3000 	ldr.w	r3, [r9]
    60dc:	60c3      	str	r3, [r0, #12]
    60de:	4b80      	ldr	r3, [pc, #512]	; (62e0 <tcp_input+0x504>)
    60e0:	f8c9 0000 	str.w	r0, [r9]
    60e4:	4798      	blx	r3
    60e6:	4b7f      	ldr	r3, [pc, #508]	; (62e4 <tcp_input+0x508>)
    60e8:	2201      	movs	r2, #1
    60ea:	701a      	strb	r2, [r3, #0]
    60ec:	f107 0036 	add.w	r0, r7, #54	; 0x36
    60f0:	4b7d      	ldr	r3, [pc, #500]	; (62e8 <tcp_input+0x50c>)
    60f2:	4798      	blx	r3
    60f4:	1d39      	adds	r1, r7, #4
    60f6:	4b7d      	ldr	r3, [pc, #500]	; (62ec <tcp_input+0x510>)
    60f8:	8ef8      	ldrh	r0, [r7, #54]	; 0x36
    60fa:	4798      	blx	r3
    60fc:	2112      	movs	r1, #18
    60fe:	86f8      	strh	r0, [r7, #54]	; 0x36
    6100:	4b7b      	ldr	r3, [pc, #492]	; (62f0 <tcp_input+0x514>)
    6102:	4638      	mov	r0, r7
    6104:	4798      	blx	r3
    6106:	b120      	cbz	r0, 6112 <tcp_input+0x336>
    6108:	4621      	mov	r1, r4
    610a:	4638      	mov	r0, r7
    610c:	4b79      	ldr	r3, [pc, #484]	; (62f4 <tcp_input+0x518>)
    610e:	4798      	blx	r3
    6110:	e75f      	b.n	5fd2 <tcp_input+0x1f6>
    6112:	4638      	mov	r0, r7
    6114:	e75b      	b.n	5fce <tcp_input+0x1f2>
    6116:	4620      	mov	r0, r4
    6118:	4b77      	ldr	r3, [pc, #476]	; (62f8 <tcp_input+0x51c>)
    611a:	4798      	blx	r3
    611c:	300a      	adds	r0, #10
    611e:	d007      	beq.n	6130 <tcp_input+0x354>
    6120:	6fa3      	ldr	r3, [r4, #120]	; 0x78
    6122:	2b00      	cmp	r3, #0
    6124:	f43f af0a 	beq.w	5f3c <tcp_input+0x160>
    6128:	8a2b      	ldrh	r3, [r5, #16]
    612a:	2b00      	cmp	r3, #0
    612c:	f43f af06 	beq.w	5f3c <tcp_input+0x160>
    6130:	69a8      	ldr	r0, [r5, #24]
    6132:	2400      	movs	r4, #0
    6134:	6034      	str	r4, [r6, #0]
    6136:	626c      	str	r4, [r5, #36]	; 0x24
    6138:	b110      	cbz	r0, 6140 <tcp_input+0x364>
    613a:	4b70      	ldr	r3, [pc, #448]	; (62fc <tcp_input+0x520>)
    613c:	4798      	blx	r3
    613e:	61ac      	str	r4, [r5, #24]
    6140:	b007      	add	sp, #28
    6142:	e8bd 8ff0 	ldmia.w	sp!, {r4, r5, r6, r7, r8, r9, sl, fp, pc}
    6146:	7e23      	ldrb	r3, [r4, #24]
    6148:	2b02      	cmp	r3, #2
    614a:	d10d      	bne.n	6168 <tcp_input+0x38c>
    614c:	6d22      	ldr	r2, [r4, #80]	; 0x50
    614e:	68ab      	ldr	r3, [r5, #8]
    6150:	429a      	cmp	r2, r3
    6152:	d111      	bne.n	6178 <tcp_input+0x39c>
    6154:	f895 3028 	ldrb.w	r3, [r5, #40]	; 0x28
    6158:	f043 0308 	orr.w	r3, r3, #8
    615c:	f885 3028 	strb.w	r3, [r5, #40]	; 0x28
    6160:	7fa3      	ldrb	r3, [r4, #30]
    6162:	f023 0301 	bic.w	r3, r3, #1
    6166:	e6fa      	b.n	5f5e <tcp_input+0x182>
    6168:	682b      	ldr	r3, [r5, #0]
    616a:	6aa2      	ldr	r2, [r4, #40]	; 0x28
    616c:	1a9b      	subs	r3, r3, r2
    616e:	d403      	bmi.n	6178 <tcp_input+0x39c>
    6170:	8da2      	ldrh	r2, [r4, #44]	; 0x2c
    6172:	1a9b      	subs	r3, r3, r2
    6174:	2b00      	cmp	r3, #0
    6176:	dded      	ble.n	6154 <tcp_input+0x378>
    6178:	f895 3028 	ldrb.w	r3, [r5, #40]	; 0x28
    617c:	071a      	lsls	r2, r3, #28
    617e:	f140 81a2 	bpl.w	64c6 <tcp_input+0x6ea>
    6182:	f8d4 308c 	ldr.w	r3, [r4, #140]	; 0x8c
    6186:	b11b      	cbz	r3, 6190 <tcp_input+0x3b4>
    6188:	f06f 010a 	mvn.w	r1, #10
    618c:	6920      	ldr	r0, [r4, #16]
    618e:	4798      	blx	r3
    6190:	4621      	mov	r1, r4
    6192:	485b      	ldr	r0, [pc, #364]	; (6300 <tcp_input+0x524>)
    6194:	4b5b      	ldr	r3, [pc, #364]	; (6304 <tcp_input+0x528>)
    6196:	4798      	blx	r3
    6198:	4621      	mov	r1, r4
    619a:	2001      	movs	r0, #1
    619c:	4b5a      	ldr	r3, [pc, #360]	; (6308 <tcp_input+0x52c>)
    619e:	4798      	blx	r3
    61a0:	e7c6      	b.n	6130 <tcp_input+0x354>
    61a2:	06db      	lsls	r3, r3, #27
    61a4:	bf5e      	ittt	pl
    61a6:	4b59      	ldrpl	r3, [pc, #356]	; (630c <tcp_input+0x530>)
    61a8:	681b      	ldrpl	r3, [r3, #0]
    61aa:	6263      	strpl	r3, [r4, #36]	; 0x24
    61ac:	2300      	movs	r3, #0
    61ae:	f884 3096 	strb.w	r3, [r4, #150]	; 0x96
    61b2:	f104 0036 	add.w	r0, r4, #54	; 0x36
    61b6:	4b4c      	ldr	r3, [pc, #304]	; (62e8 <tcp_input+0x50c>)
    61b8:	4798      	blx	r3
    61ba:	7e23      	ldrb	r3, [r4, #24]
    61bc:	3b02      	subs	r3, #2
    61be:	2b07      	cmp	r3, #7
    61c0:	d8da      	bhi.n	6178 <tcp_input+0x39c>
    61c2:	e8df f013 	tbh	[pc, r3, lsl #1]
    61c6:	0008      	.short	0x0008
    61c8:	00e7006e 	.word	0x00e7006e
    61cc:	013200eb 	.word	0x013200eb
    61d0:	015000e7 	.word	0x015000e7
    61d4:	016e      	.short	0x016e
    61d6:	792b      	ldrb	r3, [r5, #4]
    61d8:	f003 0312 	and.w	r3, r3, #18
    61dc:	2b12      	cmp	r3, #18
    61de:	d14e      	bne.n	627e <tcp_input+0x4a2>
    61e0:	6f23      	ldr	r3, [r4, #112]	; 0x70
    61e2:	68db      	ldr	r3, [r3, #12]
    61e4:	6858      	ldr	r0, [r3, #4]
    61e6:	4b4a      	ldr	r3, [pc, #296]	; (6310 <tcp_input+0x534>)
    61e8:	4798      	blx	r3
    61ea:	68ab      	ldr	r3, [r5, #8]
    61ec:	3001      	adds	r0, #1
    61ee:	4298      	cmp	r0, r3
    61f0:	d145      	bne.n	627e <tcp_input+0x4a2>
    61f2:	f8b4 3066 	ldrh.w	r3, [r4, #102]	; 0x66
    61f6:	64a0      	str	r0, [r4, #72]	; 0x48
    61f8:	3301      	adds	r3, #1
    61fa:	f8a4 3066 	strh.w	r3, [r4, #102]	; 0x66
    61fe:	682b      	ldr	r3, [r5, #0]
    6200:	8ee0      	ldrh	r0, [r4, #54]	; 0x36
    6202:	1c5a      	adds	r2, r3, #1
    6204:	62a2      	str	r2, [r4, #40]	; 0x28
    6206:	6322      	str	r2, [r4, #48]	; 0x30
    6208:	68ea      	ldr	r2, [r5, #12]
    620a:	3b01      	subs	r3, #1
    620c:	89d2      	ldrh	r2, [r2, #14]
    620e:	6563      	str	r3, [r4, #84]	; 0x54
    6210:	2304      	movs	r3, #4
    6212:	18e1      	adds	r1, r4, r3
    6214:	f8a4 2060 	strh.w	r2, [r4, #96]	; 0x60
    6218:	f8a4 2062 	strh.w	r2, [r4, #98]	; 0x62
    621c:	7623      	strb	r3, [r4, #24]
    621e:	4b33      	ldr	r3, [pc, #204]	; (62ec <tcp_input+0x510>)
    6220:	4798      	blx	r3
    6222:	eb00 0380 	add.w	r3, r0, r0, lsl #2
    6226:	005b      	lsls	r3, r3, #1
    6228:	f8a4 304e 	strh.w	r3, [r4, #78]	; 0x4e
    622c:	f8b4 304c 	ldrh.w	r3, [r4, #76]	; 0x4c
    6230:	86e0      	strh	r0, [r4, #54]	; 0x36
    6232:	2b01      	cmp	r3, #1
    6234:	bf04      	itt	eq
    6236:	0040      	lsleq	r0, r0, #1
    6238:	b280      	uxtheq	r0, r0
    623a:	f8b4 3068 	ldrh.w	r3, [r4, #104]	; 0x68
    623e:	f8a4 004c 	strh.w	r0, [r4, #76]	; 0x4c
    6242:	6f20      	ldr	r0, [r4, #112]	; 0x70
    6244:	3b01      	subs	r3, #1
    6246:	f8a4 3068 	strh.w	r3, [r4, #104]	; 0x68
    624a:	6803      	ldr	r3, [r0, #0]
    624c:	6723      	str	r3, [r4, #112]	; 0x70
    624e:	4b31      	ldr	r3, [pc, #196]	; (6314 <tcp_input+0x538>)
    6250:	4798      	blx	r3
    6252:	6f23      	ldr	r3, [r4, #112]	; 0x70
    6254:	b93b      	cbnz	r3, 6266 <tcp_input+0x48a>
    6256:	f64f 73ff 	movw	r3, #65535	; 0xffff
    625a:	86a3      	strh	r3, [r4, #52]	; 0x34
    625c:	f8d4 3084 	ldr.w	r3, [r4, #132]	; 0x84
    6260:	b933      	cbnz	r3, 6270 <tcp_input+0x494>
    6262:	7fa3      	ldrb	r3, [r4, #30]
    6264:	e679      	b.n	5f5a <tcp_input+0x17e>
    6266:	2300      	movs	r3, #0
    6268:	86a3      	strh	r3, [r4, #52]	; 0x34
    626a:	f884 3046 	strb.w	r3, [r4, #70]	; 0x46
    626e:	e7f5      	b.n	625c <tcp_input+0x480>
    6270:	2200      	movs	r2, #0
    6272:	4621      	mov	r1, r4
    6274:	6920      	ldr	r0, [r4, #16]
    6276:	4798      	blx	r3
    6278:	300a      	adds	r0, #10
    627a:	d1f2      	bne.n	6262 <tcp_input+0x486>
    627c:	e758      	b.n	6130 <tcp_input+0x354>
    627e:	792b      	ldrb	r3, [r5, #4]
    6280:	06df      	lsls	r7, r3, #27
    6282:	f57f af79 	bpl.w	6178 <tcp_input+0x39c>
    6286:	68eb      	ldr	r3, [r5, #12]
    6288:	8a28      	ldrh	r0, [r5, #16]
    628a:	881a      	ldrh	r2, [r3, #0]
    628c:	9201      	str	r2, [sp, #4]
    628e:	6829      	ldr	r1, [r5, #0]
    6290:	885b      	ldrh	r3, [r3, #2]
    6292:	9300      	str	r3, [sp, #0]
    6294:	4401      	add	r1, r0
    6296:	4b20      	ldr	r3, [pc, #128]	; (6318 <tcp_input+0x53c>)
    6298:	4a20      	ldr	r2, [pc, #128]	; (631c <tcp_input+0x540>)
    629a:	68a8      	ldr	r0, [r5, #8]
    629c:	4f20      	ldr	r7, [pc, #128]	; (6320 <tcp_input+0x544>)
    629e:	47b8      	blx	r7
    62a0:	e76a      	b.n	6178 <tcp_input+0x39c>
    62a2:	792b      	ldrb	r3, [r5, #4]
    62a4:	06d8      	lsls	r0, r3, #27
    62a6:	d568      	bpl.n	637a <tcp_input+0x59e>
    62a8:	6ca3      	ldr	r3, [r4, #72]	; 0x48
    62aa:	68a8      	ldr	r0, [r5, #8]
    62ac:	43db      	mvns	r3, r3
    62ae:	42c3      	cmn	r3, r0
    62b0:	d458      	bmi.n	6364 <tcp_input+0x588>
    62b2:	6d23      	ldr	r3, [r4, #80]	; 0x50
    62b4:	1ac3      	subs	r3, r0, r3
    62b6:	2b00      	cmp	r3, #0
    62b8:	dc54      	bgt.n	6364 <tcp_input+0x588>
    62ba:	2304      	movs	r3, #4
    62bc:	7623      	strb	r3, [r4, #24]
    62be:	6963      	ldr	r3, [r4, #20]
    62c0:	b91b      	cbnz	r3, 62ca <tcp_input+0x4ee>
    62c2:	4620      	mov	r0, r4
    62c4:	4b17      	ldr	r3, [pc, #92]	; (6324 <tcp_input+0x548>)
    62c6:	4798      	blx	r3
    62c8:	e732      	b.n	6130 <tcp_input+0x354>
    62ca:	2200      	movs	r2, #0
    62cc:	4621      	mov	r1, r4
    62ce:	6920      	ldr	r0, [r4, #16]
    62d0:	4798      	blx	r3
    62d2:	b348      	cbz	r0, 6328 <tcp_input+0x54c>
    62d4:	300a      	adds	r0, #10
    62d6:	d1f4      	bne.n	62c2 <tcp_input+0x4e6>
    62d8:	e72a      	b.n	6130 <tcp_input+0x354>
    62da:	bf00      	nop
    62dc:	000053f9 	.word	0x000053f9
    62e0:	000071f1 	.word	0x000071f1
    62e4:	200161c0 	.word	0x200161c0
    62e8:	00005d59 	.word	0x00005d59
    62ec:	00005521 	.word	0x00005521
    62f0:	00006ac9 	.word	0x00006ac9
    62f4:	00005325 	.word	0x00005325
    62f8:	000051c1 	.word	0x000051c1
    62fc:	00004785 	.word	0x00004785
    6300:	200161c4 	.word	0x200161c4
    6304:	00004f9d 	.word	0x00004f9d
    6308:	00004559 	.word	0x00004559
    630c:	200161c8 	.word	0x200161c8
    6310:	00003435 	.word	0x00003435
    6314:	00004bd1 	.word	0x00004bd1
    6318:	20012990 	.word	0x20012990
    631c:	20012998 	.word	0x20012998
    6320:	00006ecd 	.word	0x00006ecd
    6324:	000053d5 	.word	0x000053d5
    6328:	4b95      	ldr	r3, [pc, #596]	; (6580 <tcp_input+0x7a4>)
    632a:	f8b4 704c 	ldrh.w	r7, [r4, #76]	; 0x4c
    632e:	4620      	mov	r0, r4
    6330:	4798      	blx	r3
    6332:	f8b4 3064 	ldrh.w	r3, [r4, #100]	; 0x64
    6336:	b113      	cbz	r3, 633e <tcp_input+0x562>
    6338:	3b01      	subs	r3, #1
    633a:	f8a4 3064 	strh.w	r3, [r4, #100]	; 0x64
    633e:	8ee3      	ldrh	r3, [r4, #54]	; 0x36
    6340:	2f01      	cmp	r7, #1
    6342:	bf04      	itt	eq
    6344:	005b      	lsleq	r3, r3, #1
    6346:	b29b      	uxtheq	r3, r3
    6348:	f8a4 304c 	strh.w	r3, [r4, #76]	; 0x4c
    634c:	f895 3028 	ldrb.w	r3, [r5, #40]	; 0x28
    6350:	069a      	lsls	r2, r3, #26
    6352:	f57f af11 	bpl.w	6178 <tcp_input+0x39c>
    6356:	7fa3      	ldrb	r3, [r4, #30]
    6358:	f043 0302 	orr.w	r3, r3, #2
    635c:	77a3      	strb	r3, [r4, #30]
    635e:	2307      	movs	r3, #7
    6360:	7623      	strb	r3, [r4, #24]
    6362:	e709      	b.n	6178 <tcp_input+0x39c>
    6364:	68eb      	ldr	r3, [r5, #12]
    6366:	8a2f      	ldrh	r7, [r5, #16]
    6368:	881a      	ldrh	r2, [r3, #0]
    636a:	9201      	str	r2, [sp, #4]
    636c:	6829      	ldr	r1, [r5, #0]
    636e:	885b      	ldrh	r3, [r3, #2]
    6370:	9300      	str	r3, [sp, #0]
    6372:	4a84      	ldr	r2, [pc, #528]	; (6584 <tcp_input+0x7a8>)
    6374:	4b84      	ldr	r3, [pc, #528]	; (6588 <tcp_input+0x7ac>)
    6376:	4439      	add	r1, r7
    6378:	e790      	b.n	629c <tcp_input+0x4c0>
    637a:	0799      	lsls	r1, r3, #30
    637c:	f57f aefc 	bpl.w	6178 <tcp_input+0x39c>
    6380:	6aa3      	ldr	r3, [r4, #40]	; 0x28
    6382:	682a      	ldr	r2, [r5, #0]
    6384:	3b01      	subs	r3, #1
    6386:	4293      	cmp	r3, r2
    6388:	f47f aef6 	bne.w	6178 <tcp_input+0x39c>
    638c:	4620      	mov	r0, r4
    638e:	4b7f      	ldr	r3, [pc, #508]	; (658c <tcp_input+0x7b0>)
    6390:	4798      	blx	r3
    6392:	e6f1      	b.n	6178 <tcp_input+0x39c>
    6394:	4620      	mov	r0, r4
    6396:	4b7a      	ldr	r3, [pc, #488]	; (6580 <tcp_input+0x7a4>)
    6398:	4798      	blx	r3
    639a:	e7d7      	b.n	634c <tcp_input+0x570>
    639c:	4b78      	ldr	r3, [pc, #480]	; (6580 <tcp_input+0x7a4>)
    639e:	4620      	mov	r0, r4
    63a0:	4798      	blx	r3
    63a2:	f895 3028 	ldrb.w	r3, [r5, #40]	; 0x28
    63a6:	f013 0f20 	tst.w	r3, #32
    63aa:	792b      	ldrb	r3, [r5, #4]
    63ac:	d033      	beq.n	6416 <tcp_input+0x63a>
    63ae:	f013 0f10 	tst.w	r3, #16
    63b2:	7fa3      	ldrb	r3, [r4, #30]
    63b4:	f043 0302 	orr.w	r3, r3, #2
    63b8:	d02a      	beq.n	6410 <tcp_input+0x634>
    63ba:	6d21      	ldr	r1, [r4, #80]	; 0x50
    63bc:	68aa      	ldr	r2, [r5, #8]
    63be:	4291      	cmp	r1, r2
    63c0:	d126      	bne.n	6410 <tcp_input+0x634>
    63c2:	77a3      	strb	r3, [r4, #30]
    63c4:	4620      	mov	r0, r4
    63c6:	4b72      	ldr	r3, [pc, #456]	; (6590 <tcp_input+0x7b4>)
    63c8:	4798      	blx	r3
    63ca:	4a72      	ldr	r2, [pc, #456]	; (6594 <tcp_input+0x7b8>)
    63cc:	6813      	ldr	r3, [r2, #0]
    63ce:	429c      	cmp	r4, r3
    63d0:	d102      	bne.n	63d8 <tcp_input+0x5fc>
    63d2:	68e3      	ldr	r3, [r4, #12]
    63d4:	6013      	str	r3, [r2, #0]
    63d6:	e00c      	b.n	63f2 <tcp_input+0x616>
    63d8:	4a6f      	ldr	r2, [pc, #444]	; (6598 <tcp_input+0x7bc>)
    63da:	2100      	movs	r1, #0
    63dc:	6013      	str	r3, [r2, #0]
    63de:	b90b      	cbnz	r3, 63e4 <tcp_input+0x608>
    63e0:	b139      	cbz	r1, 63f2 <tcp_input+0x616>
    63e2:	e7f7      	b.n	63d4 <tcp_input+0x5f8>
    63e4:	68d8      	ldr	r0, [r3, #12]
    63e6:	4284      	cmp	r4, r0
    63e8:	d10f      	bne.n	640a <tcp_input+0x62e>
    63ea:	b101      	cbz	r1, 63ee <tcp_input+0x612>
    63ec:	6013      	str	r3, [r2, #0]
    63ee:	68e2      	ldr	r2, [r4, #12]
    63f0:	60da      	str	r2, [r3, #12]
    63f2:	4b6a      	ldr	r3, [pc, #424]	; (659c <tcp_input+0x7c0>)
    63f4:	2201      	movs	r2, #1
    63f6:	701a      	strb	r2, [r3, #0]
    63f8:	230a      	movs	r3, #10
    63fa:	7623      	strb	r3, [r4, #24]
    63fc:	4b68      	ldr	r3, [pc, #416]	; (65a0 <tcp_input+0x7c4>)
    63fe:	681a      	ldr	r2, [r3, #0]
    6400:	60e2      	str	r2, [r4, #12]
    6402:	601c      	str	r4, [r3, #0]
    6404:	4b67      	ldr	r3, [pc, #412]	; (65a4 <tcp_input+0x7c8>)
    6406:	4798      	blx	r3
    6408:	e6b6      	b.n	6178 <tcp_input+0x39c>
    640a:	2101      	movs	r1, #1
    640c:	4603      	mov	r3, r0
    640e:	e7e6      	b.n	63de <tcp_input+0x602>
    6410:	77a3      	strb	r3, [r4, #30]
    6412:	2308      	movs	r3, #8
    6414:	e7a4      	b.n	6360 <tcp_input+0x584>
    6416:	06db      	lsls	r3, r3, #27
    6418:	f57f aeae 	bpl.w	6178 <tcp_input+0x39c>
    641c:	6d22      	ldr	r2, [r4, #80]	; 0x50
    641e:	68ab      	ldr	r3, [r5, #8]
    6420:	429a      	cmp	r2, r3
    6422:	f47f aea9 	bne.w	6178 <tcp_input+0x39c>
    6426:	2306      	movs	r3, #6
    6428:	e79a      	b.n	6360 <tcp_input+0x584>
    642a:	4b55      	ldr	r3, [pc, #340]	; (6580 <tcp_input+0x7a4>)
    642c:	4620      	mov	r0, r4
    642e:	4798      	blx	r3
    6430:	f895 3028 	ldrb.w	r3, [r5, #40]	; 0x28
    6434:	069f      	lsls	r7, r3, #26
    6436:	f57f ae9f 	bpl.w	6178 <tcp_input+0x39c>
    643a:	7fa3      	ldrb	r3, [r4, #30]
    643c:	f043 0302 	orr.w	r3, r3, #2
    6440:	77a3      	strb	r3, [r4, #30]
    6442:	4620      	mov	r0, r4
    6444:	4b52      	ldr	r3, [pc, #328]	; (6590 <tcp_input+0x7b4>)
    6446:	4798      	blx	r3
    6448:	4a52      	ldr	r2, [pc, #328]	; (6594 <tcp_input+0x7b8>)
    644a:	6813      	ldr	r3, [r2, #0]
    644c:	429c      	cmp	r4, r3
    644e:	d0c0      	beq.n	63d2 <tcp_input+0x5f6>
    6450:	4a51      	ldr	r2, [pc, #324]	; (6598 <tcp_input+0x7bc>)
    6452:	2100      	movs	r1, #0
    6454:	6013      	str	r3, [r2, #0]
    6456:	2b00      	cmp	r3, #0
    6458:	d0c2      	beq.n	63e0 <tcp_input+0x604>
    645a:	68d8      	ldr	r0, [r3, #12]
    645c:	4284      	cmp	r4, r0
    645e:	d0c4      	beq.n	63ea <tcp_input+0x60e>
    6460:	2101      	movs	r1, #1
    6462:	4603      	mov	r3, r0
    6464:	e7f7      	b.n	6456 <tcp_input+0x67a>
    6466:	4620      	mov	r0, r4
    6468:	4b45      	ldr	r3, [pc, #276]	; (6580 <tcp_input+0x7a4>)
    646a:	4798      	blx	r3
    646c:	792b      	ldrb	r3, [r5, #4]
    646e:	06d8      	lsls	r0, r3, #27
    6470:	f57f ae82 	bpl.w	6178 <tcp_input+0x39c>
    6474:	6d22      	ldr	r2, [r4, #80]	; 0x50
    6476:	68ab      	ldr	r3, [r5, #8]
    6478:	429a      	cmp	r2, r3
    647a:	f47f ae7d 	bne.w	6178 <tcp_input+0x39c>
    647e:	4b44      	ldr	r3, [pc, #272]	; (6590 <tcp_input+0x7b4>)
    6480:	4620      	mov	r0, r4
    6482:	4798      	blx	r3
    6484:	4a43      	ldr	r2, [pc, #268]	; (6594 <tcp_input+0x7b8>)
    6486:	6813      	ldr	r3, [r2, #0]
    6488:	429c      	cmp	r4, r3
    648a:	d0a2      	beq.n	63d2 <tcp_input+0x5f6>
    648c:	4a42      	ldr	r2, [pc, #264]	; (6598 <tcp_input+0x7bc>)
    648e:	2100      	movs	r1, #0
    6490:	6013      	str	r3, [r2, #0]
    6492:	2b00      	cmp	r3, #0
    6494:	d0a4      	beq.n	63e0 <tcp_input+0x604>
    6496:	68d8      	ldr	r0, [r3, #12]
    6498:	4284      	cmp	r4, r0
    649a:	d0a6      	beq.n	63ea <tcp_input+0x60e>
    649c:	2101      	movs	r1, #1
    649e:	4603      	mov	r3, r0
    64a0:	e7f7      	b.n	6492 <tcp_input+0x6b6>
    64a2:	4b37      	ldr	r3, [pc, #220]	; (6580 <tcp_input+0x7a4>)
    64a4:	4620      	mov	r0, r4
    64a6:	4798      	blx	r3
    64a8:	792b      	ldrb	r3, [r5, #4]
    64aa:	06d9      	lsls	r1, r3, #27
    64ac:	f57f ae64 	bpl.w	6178 <tcp_input+0x39c>
    64b0:	68ab      	ldr	r3, [r5, #8]
    64b2:	6d22      	ldr	r2, [r4, #80]	; 0x50
    64b4:	429a      	cmp	r2, r3
    64b6:	bf02      	ittt	eq
    64b8:	f895 3028 	ldrbeq.w	r3, [r5, #40]	; 0x28
    64bc:	f043 0310 	orreq.w	r3, r3, #16
    64c0:	f885 3028 	strbeq.w	r3, [r5, #40]	; 0x28
    64c4:	e658      	b.n	6178 <tcp_input+0x39c>
    64c6:	06df      	lsls	r7, r3, #27
    64c8:	d50b      	bpl.n	64e2 <tcp_input+0x706>
    64ca:	7fa3      	ldrb	r3, [r4, #30]
    64cc:	06d8      	lsls	r0, r3, #27
    64ce:	f53f ae5f 	bmi.w	6190 <tcp_input+0x3b4>
    64d2:	f8d4 308c 	ldr.w	r3, [r4, #140]	; 0x8c
    64d6:	2b00      	cmp	r3, #0
    64d8:	f43f ae5a 	beq.w	6190 <tcp_input+0x3b4>
    64dc:	f06f 010b 	mvn.w	r1, #11
    64e0:	e654      	b.n	618c <tcp_input+0x3b0>
    64e2:	f8b4 2064 	ldrh.w	r2, [r4, #100]	; 0x64
    64e6:	b992      	cbnz	r2, 650e <tcp_input+0x732>
    64e8:	6a6a      	ldr	r2, [r5, #36]	; 0x24
    64ea:	b9ca      	cbnz	r2, 6520 <tcp_input+0x744>
    64ec:	f895 3028 	ldrb.w	r3, [r5, #40]	; 0x28
    64f0:	0699      	lsls	r1, r3, #26
    64f2:	d506      	bpl.n	6502 <tcp_input+0x726>
    64f4:	6fa3      	ldr	r3, [r4, #120]	; 0x78
    64f6:	2b00      	cmp	r3, #0
    64f8:	d02e      	beq.n	6558 <tcp_input+0x77c>
    64fa:	7b5a      	ldrb	r2, [r3, #13]
    64fc:	f042 0220 	orr.w	r2, r2, #32
    6500:	735a      	strb	r2, [r3, #13]
    6502:	2300      	movs	r3, #0
    6504:	6033      	str	r3, [r6, #0]
    6506:	4620      	mov	r0, r4
    6508:	4b27      	ldr	r3, [pc, #156]	; (65a8 <tcp_input+0x7cc>)
    650a:	4798      	blx	r3
    650c:	e610      	b.n	6130 <tcp_input+0x354>
    650e:	6fe3      	ldr	r3, [r4, #124]	; 0x7c
    6510:	2b00      	cmp	r3, #0
    6512:	d0e9      	beq.n	64e8 <tcp_input+0x70c>
    6514:	4621      	mov	r1, r4
    6516:	6920      	ldr	r0, [r4, #16]
    6518:	4798      	blx	r3
    651a:	300a      	adds	r0, #10
    651c:	d1e4      	bne.n	64e8 <tcp_input+0x70c>
    651e:	e607      	b.n	6130 <tcp_input+0x354>
    6520:	7fa3      	ldrb	r3, [r4, #30]
    6522:	f013 0310 	ands.w	r3, r3, #16
    6526:	d003      	beq.n	6530 <tcp_input+0x754>
    6528:	4610      	mov	r0, r2
    652a:	4b20      	ldr	r3, [pc, #128]	; (65ac <tcp_input+0x7d0>)
    652c:	4798      	blx	r3
    652e:	e6c8      	b.n	62c2 <tcp_input+0x4e6>
    6530:	f8d4 7080 	ldr.w	r7, [r4, #128]	; 0x80
    6534:	b15f      	cbz	r7, 654e <tcp_input+0x772>
    6536:	6920      	ldr	r0, [r4, #16]
    6538:	4621      	mov	r1, r4
    653a:	47b8      	blx	r7
    653c:	f110 0f0a 	cmn.w	r0, #10
    6540:	f43f adf6 	beq.w	6130 <tcp_input+0x354>
    6544:	2800      	cmp	r0, #0
    6546:	d0d1      	beq.n	64ec <tcp_input+0x710>
    6548:	6a6b      	ldr	r3, [r5, #36]	; 0x24
    654a:	67a3      	str	r3, [r4, #120]	; 0x78
    654c:	e7ce      	b.n	64ec <tcp_input+0x710>
    654e:	463b      	mov	r3, r7
    6550:	4638      	mov	r0, r7
    6552:	4621      	mov	r1, r4
    6554:	4f16      	ldr	r7, [pc, #88]	; (65b0 <tcp_input+0x7d4>)
    6556:	e7f0      	b.n	653a <tcp_input+0x75e>
    6558:	8da3      	ldrh	r3, [r4, #44]	; 0x2c
    655a:	f8d4 7080 	ldr.w	r7, [r4, #128]	; 0x80
    655e:	f241 62d0 	movw	r2, #5840	; 0x16d0
    6562:	4293      	cmp	r3, r2
    6564:	bf1c      	itt	ne
    6566:	3301      	addne	r3, #1
    6568:	85a3      	strhne	r3, [r4, #44]	; 0x2c
    656a:	2f00      	cmp	r7, #0
    656c:	d0c9      	beq.n	6502 <tcp_input+0x726>
    656e:	2300      	movs	r3, #0
    6570:	461a      	mov	r2, r3
    6572:	4621      	mov	r1, r4
    6574:	6920      	ldr	r0, [r4, #16]
    6576:	47b8      	blx	r7
    6578:	300a      	adds	r0, #10
    657a:	d1c2      	bne.n	6502 <tcp_input+0x726>
    657c:	e5d8      	b.n	6130 <tcp_input+0x354>
    657e:	bf00      	nop
    6580:	000055e1 	.word	0x000055e1
    6584:	20012998 	.word	0x20012998
    6588:	20012990 	.word	0x20012990
    658c:	00006fb5 	.word	0x00006fb5
    6590:	00004c61 	.word	0x00004c61
    6594:	200161c4 	.word	0x200161c4
    6598:	200161d0 	.word	0x200161d0
    659c:	200161c0 	.word	0x200161c0
    65a0:	200161d8 	.word	0x200161d8
    65a4:	000071f1 	.word	0x000071f1
    65a8:	00006c3d 	.word	0x00006c3d
    65ac:	00004785 	.word	0x00004785
    65b0:	00005191 	.word	0x00005191
    65b4:	b138      	cbz	r0, 65c6 <tcp_input+0x7ea>
    65b6:	f8da 700c 	ldr.w	r7, [sl, #12]
    65ba:	60c7      	str	r7, [r0, #12]
    65bc:	480a      	ldr	r0, [pc, #40]	; (65e8 <tcp_input+0x80c>)
    65be:	f8ca 400c 	str.w	r4, [sl, #12]
    65c2:	f8c0 a000 	str.w	sl, [r0]
    65c6:	0758      	lsls	r0, r3, #29
    65c8:	f53f ad03 	bmi.w	5fd2 <tcp_input+0x1f6>
    65cc:	f013 0410 	ands.w	r4, r3, #16
    65d0:	f43f ad50 	beq.w	6074 <tcp_input+0x298>
    65d4:	f8be 3000 	ldrh.w	r3, [lr]
    65d8:	6828      	ldr	r0, [r5, #0]
    65da:	9902      	ldr	r1, [sp, #8]
    65dc:	e88d 000c 	stmia.w	sp, {r2, r3}
    65e0:	4b02      	ldr	r3, [pc, #8]	; (65ec <tcp_input+0x810>)
    65e2:	4a03      	ldr	r2, [pc, #12]	; (65f0 <tcp_input+0x814>)
    65e4:	4401      	add	r1, r0
    65e6:	e4e3      	b.n	5fb0 <tcp_input+0x1d4>
    65e8:	200161cc 	.word	0x200161cc
    65ec:	20012990 	.word	0x20012990
    65f0:	20012998 	.word	0x20012998

000065f4 <tcp_pbuf_prealloc>:
    65f4:	b570      	push	{r4, r5, r6, lr}
    65f6:	460d      	mov	r5, r1
    65f8:	4295      	cmp	r5, r2
    65fa:	461e      	mov	r6, r3
    65fc:	f89d 1018 	ldrb.w	r1, [sp, #24]
    6600:	9b04      	ldr	r3, [sp, #16]
    6602:	d21d      	bcs.n	6640 <tcp_pbuf_prealloc+0x4c>
    6604:	f89d 4014 	ldrb.w	r4, [sp, #20]
    6608:	07a4      	lsls	r4, r4, #30
    660a:	d407      	bmi.n	661c <tcp_pbuf_prealloc+0x28>
    660c:	7f9c      	ldrb	r4, [r3, #30]
    660e:	0664      	lsls	r4, r4, #25
    6610:	d416      	bmi.n	6640 <tcp_pbuf_prealloc+0x4c>
    6612:	b119      	cbz	r1, 661c <tcp_pbuf_prealloc+0x28>
    6614:	6ed9      	ldr	r1, [r3, #108]	; 0x6c
    6616:	b909      	cbnz	r1, 661c <tcp_pbuf_prealloc+0x28>
    6618:	6f1b      	ldr	r3, [r3, #112]	; 0x70
    661a:	b18b      	cbz	r3, 6640 <tcp_pbuf_prealloc+0x4c>
    661c:	f205 54b7 	addw	r4, r5, #1463	; 0x5b7
    6620:	f024 0103 	bic.w	r1, r4, #3
    6624:	428a      	cmp	r2, r1
    6626:	bfa8      	it	ge
    6628:	460a      	movge	r2, r1
    662a:	b291      	uxth	r1, r2
    662c:	2200      	movs	r2, #0
    662e:	4b05      	ldr	r3, [pc, #20]	; (6644 <tcp_pbuf_prealloc+0x50>)
    6630:	4798      	blx	r3
    6632:	b120      	cbz	r0, 663e <tcp_pbuf_prealloc+0x4a>
    6634:	8942      	ldrh	r2, [r0, #10]
    6636:	1b52      	subs	r2, r2, r5
    6638:	8032      	strh	r2, [r6, #0]
    663a:	8105      	strh	r5, [r0, #8]
    663c:	8145      	strh	r5, [r0, #10]
    663e:	bd70      	pop	{r4, r5, r6, pc}
    6640:	4629      	mov	r1, r5
    6642:	e7f3      	b.n	662c <tcp_pbuf_prealloc+0x38>
    6644:	000047dd 	.word	0x000047dd

00006648 <tcp_create_segment>:
    6648:	e92d 4ff8 	stmdb	sp!, {r3, r4, r5, r6, r7, r8, r9, sl, fp, lr}
    664c:	f89d 8028 	ldrb.w	r8, [sp, #40]	; 0x28
    6650:	f018 0f01 	tst.w	r8, #1
    6654:	bf14      	ite	ne
    6656:	2504      	movne	r5, #4
    6658:	2500      	moveq	r5, #0
    665a:	f018 0f02 	tst.w	r8, #2
    665e:	469a      	mov	sl, r3
    6660:	bf14      	ite	ne
    6662:	230c      	movne	r3, #12
    6664:	2300      	moveq	r3, #0
    6666:	4681      	mov	r9, r0
    6668:	441d      	add	r5, r3
    666a:	2003      	movs	r0, #3
    666c:	4b24      	ldr	r3, [pc, #144]	; (6700 <tcp_create_segment+0xb8>)
    666e:	460f      	mov	r7, r1
    6670:	4616      	mov	r6, r2
    6672:	4798      	blx	r3
    6674:	4604      	mov	r4, r0
    6676:	b928      	cbnz	r0, 6684 <tcp_create_segment+0x3c>
    6678:	4638      	mov	r0, r7
    667a:	4b22      	ldr	r3, [pc, #136]	; (6704 <tcp_create_segment+0xbc>)
    667c:	4798      	blx	r3
    667e:	4620      	mov	r0, r4
    6680:	e8bd 8ff8 	ldmia.w	sp!, {r3, r4, r5, r6, r7, r8, r9, sl, fp, pc}
    6684:	f880 800a 	strb.w	r8, [r0, #10]
    6688:	893b      	ldrh	r3, [r7, #8]
    668a:	6047      	str	r7, [r0, #4]
    668c:	1b5b      	subs	r3, r3, r5
    668e:	f04f 0800 	mov.w	r8, #0
    6692:	8103      	strh	r3, [r0, #8]
    6694:	f8c0 8000 	str.w	r8, [r0]
    6698:	2114      	movs	r1, #20
    669a:	4638      	mov	r0, r7
    669c:	4b1a      	ldr	r3, [pc, #104]	; (6708 <tcp_create_segment+0xc0>)
    669e:	4798      	blx	r3
    66a0:	4607      	mov	r7, r0
    66a2:	b120      	cbz	r0, 66ae <tcp_create_segment+0x66>
    66a4:	4620      	mov	r0, r4
    66a6:	4b19      	ldr	r3, [pc, #100]	; (670c <tcp_create_segment+0xc4>)
    66a8:	4798      	blx	r3
    66aa:	4644      	mov	r4, r8
    66ac:	e7e7      	b.n	667e <tcp_create_segment+0x36>
    66ae:	6863      	ldr	r3, [r4, #4]
    66b0:	f8df 8060 	ldr.w	r8, [pc, #96]	; 6714 <tcp_create_segment+0xcc>
    66b4:	f8d3 b004 	ldr.w	fp, [r3, #4]
    66b8:	f8c4 b00c 	str.w	fp, [r4, #12]
    66bc:	f8b9 001a 	ldrh.w	r0, [r9, #26]
    66c0:	47c0      	blx	r8
    66c2:	f8ab 0000 	strh.w	r0, [fp]
    66c6:	f8b9 001c 	ldrh.w	r0, [r9, #28]
    66ca:	f8d4 b00c 	ldr.w	fp, [r4, #12]
    66ce:	47c0      	blx	r8
    66d0:	4b0f      	ldr	r3, [pc, #60]	; (6710 <tcp_create_segment+0xc8>)
    66d2:	f8ab 0002 	strh.w	r0, [fp, #2]
    66d6:	4650      	mov	r0, sl
    66d8:	f8d4 900c 	ldr.w	r9, [r4, #12]
    66dc:	f3c5 0587 	ubfx	r5, r5, #2, #8
    66e0:	4798      	blx	r3
    66e2:	3505      	adds	r5, #5
    66e4:	ea46 3505 	orr.w	r5, r6, r5, lsl #12
    66e8:	f8c9 0004 	str.w	r0, [r9, #4]
    66ec:	b2a8      	uxth	r0, r5
    66ee:	f8d4 900c 	ldr.w	r9, [r4, #12]
    66f2:	47c0      	blx	r8
    66f4:	68e3      	ldr	r3, [r4, #12]
    66f6:	f8a9 000c 	strh.w	r0, [r9, #12]
    66fa:	749f      	strb	r7, [r3, #18]
    66fc:	74df      	strb	r7, [r3, #19]
    66fe:	e7be      	b.n	667e <tcp_create_segment+0x36>
    6700:	00004539 	.word	0x00004539
    6704:	00004785 	.word	0x00004785
    6708:	0000472b 	.word	0x0000472b
    670c:	00004bd1 	.word	0x00004bd1
    6710:	00003431 	.word	0x00003431
    6714:	00003425 	.word	0x00003425

00006718 <tcp_output_alloc_header.constprop.0>:
    6718:	3114      	adds	r1, #20
    671a:	e92d 41f0 	stmdb	sp!, {r4, r5, r6, r7, r8, lr}
    671e:	b289      	uxth	r1, r1
    6720:	4605      	mov	r5, r0
    6722:	4690      	mov	r8, r2
    6724:	2001      	movs	r0, #1
    6726:	2200      	movs	r2, #0
    6728:	4b12      	ldr	r3, [pc, #72]	; (6774 <tcp_output_alloc_header.constprop.0+0x5c>)
    672a:	4798      	blx	r3
    672c:	4607      	mov	r7, r0
    672e:	b1e8      	cbz	r0, 676c <tcp_output_alloc_header.constprop.0+0x54>
    6730:	6844      	ldr	r4, [r0, #4]
    6732:	4e11      	ldr	r6, [pc, #68]	; (6778 <tcp_output_alloc_header.constprop.0+0x60>)
    6734:	8b68      	ldrh	r0, [r5, #26]
    6736:	47b0      	blx	r6
    6738:	8020      	strh	r0, [r4, #0]
    673a:	8ba8      	ldrh	r0, [r5, #28]
    673c:	47b0      	blx	r6
    673e:	4b0f      	ldr	r3, [pc, #60]	; (677c <tcp_output_alloc_header.constprop.0+0x64>)
    6740:	8060      	strh	r0, [r4, #2]
    6742:	f8c4 8004 	str.w	r8, [r4, #4]
    6746:	6aa8      	ldr	r0, [r5, #40]	; 0x28
    6748:	4798      	blx	r3
    674a:	60a0      	str	r0, [r4, #8]
    674c:	f245 0010 	movw	r0, #20496	; 0x5010
    6750:	47b0      	blx	r6
    6752:	81a0      	strh	r0, [r4, #12]
    6754:	8de8      	ldrh	r0, [r5, #46]	; 0x2e
    6756:	47b0      	blx	r6
    6758:	2300      	movs	r3, #0
    675a:	7423      	strb	r3, [r4, #16]
    675c:	7463      	strb	r3, [r4, #17]
    675e:	74a3      	strb	r3, [r4, #18]
    6760:	74e3      	strb	r3, [r4, #19]
    6762:	8dea      	ldrh	r2, [r5, #46]	; 0x2e
    6764:	6aab      	ldr	r3, [r5, #40]	; 0x28
    6766:	81e0      	strh	r0, [r4, #14]
    6768:	4413      	add	r3, r2
    676a:	632b      	str	r3, [r5, #48]	; 0x30
    676c:	4638      	mov	r0, r7
    676e:	e8bd 81f0 	ldmia.w	sp!, {r4, r5, r6, r7, r8, pc}
    6772:	bf00      	nop
    6774:	000047dd 	.word	0x000047dd
    6778:	00003425 	.word	0x00003425
    677c:	00003431 	.word	0x00003431

00006780 <tcp_write>:
    6780:	e92d 4ff0 	stmdb	sp!, {r4, r5, r6, r7, r8, r9, sl, fp, lr}
    6784:	b08f      	sub	sp, #60	; 0x3c
    6786:	4605      	mov	r5, r0
    6788:	9306      	str	r3, [sp, #24]
    678a:	2300      	movs	r3, #0
    678c:	4693      	mov	fp, r2
    678e:	f8ad 3036 	strh.w	r3, [sp, #54]	; 0x36
    6792:	9105      	str	r1, [sp, #20]
    6794:	b901      	cbnz	r1, 6798 <tcp_write+0x18>
    6796:	e7fe      	b.n	6796 <tcp_write+0x16>
    6798:	7e03      	ldrb	r3, [r0, #24]
    679a:	2b07      	cmp	r3, #7
    679c:	d003      	beq.n	67a6 <tcp_write+0x26>
    679e:	3b02      	subs	r3, #2
    67a0:	2b02      	cmp	r3, #2
    67a2:	f200 816b 	bhi.w	6a7c <tcp_write+0x2fc>
    67a6:	f1bb 0f00 	cmp.w	fp, #0
    67aa:	d00e      	beq.n	67ca <tcp_write+0x4a>
    67ac:	f8b5 3066 	ldrh.w	r3, [r5, #102]	; 0x66
    67b0:	455b      	cmp	r3, fp
    67b2:	d206      	bcs.n	67c2 <tcp_write+0x42>
    67b4:	7fab      	ldrb	r3, [r5, #30]
    67b6:	f063 037f 	orn	r3, r3, #127	; 0x7f
    67ba:	77ab      	strb	r3, [r5, #30]
    67bc:	f04f 30ff 	mov.w	r0, #4294967295
    67c0:	e15e      	b.n	6a80 <tcp_write+0x300>
    67c2:	f8b5 3068 	ldrh.w	r3, [r5, #104]	; 0x68
    67c6:	2b07      	cmp	r3, #7
    67c8:	d8f4      	bhi.n	67b4 <tcp_write+0x34>
    67ca:	f8b5 3062 	ldrh.w	r3, [r5, #98]	; 0x62
    67ce:	8eea      	ldrh	r2, [r5, #54]	; 0x36
    67d0:	6eec      	ldr	r4, [r5, #108]	; 0x6c
    67d2:	085b      	lsrs	r3, r3, #1
    67d4:	4293      	cmp	r3, r2
    67d6:	bf28      	it	cs
    67d8:	4613      	movcs	r3, r2
    67da:	9309      	str	r3, [sp, #36]	; 0x24
    67dc:	f8b5 3068 	ldrh.w	r3, [r5, #104]	; 0x68
    67e0:	9304      	str	r3, [sp, #16]
    67e2:	4627      	mov	r7, r4
    67e4:	b924      	cbnz	r4, 67f0 <tcp_write+0x70>
    67e6:	46a0      	mov	r8, r4
    67e8:	46a1      	mov	r9, r4
    67ea:	4626      	mov	r6, r4
    67ec:	e05c      	b.n	68a8 <tcp_write+0x128>
    67ee:	4657      	mov	r7, sl
    67f0:	f8d7 a000 	ldr.w	sl, [r7]
    67f4:	f1ba 0f00 	cmp.w	sl, #0
    67f8:	d1f9      	bne.n	67ee <tcp_write+0x6e>
    67fa:	7ab9      	ldrb	r1, [r7, #10]
    67fc:	893e      	ldrh	r6, [r7, #8]
    67fe:	9a09      	ldr	r2, [sp, #36]	; 0x24
    6800:	f011 0f01 	tst.w	r1, #1
    6804:	bf14      	ite	ne
    6806:	2004      	movne	r0, #4
    6808:	2000      	moveq	r0, #0
    680a:	1b92      	subs	r2, r2, r6
    680c:	f011 0f02 	tst.w	r1, #2
    6810:	eba2 0200 	sub.w	r2, r2, r0
    6814:	bf14      	ite	ne
    6816:	230c      	movne	r3, #12
    6818:	2300      	moveq	r3, #0
    681a:	1ad3      	subs	r3, r2, r3
    681c:	b29a      	uxth	r2, r3
    681e:	f8b5 306a 	ldrh.w	r3, [r5, #106]	; 0x6a
    6822:	f8ad 3036 	strh.w	r3, [sp, #54]	; 0x36
    6826:	2b00      	cmp	r3, #0
    6828:	f000 8135 	beq.w	6a96 <tcp_write+0x316>
    682c:	459b      	cmp	fp, r3
    682e:	46d8      	mov	r8, fp
    6830:	bf28      	it	cs
    6832:	4698      	movcs	r8, r3
    6834:	eba3 0308 	sub.w	r3, r3, r8
    6838:	eba2 0208 	sub.w	r2, r2, r8
    683c:	45c3      	cmp	fp, r8
    683e:	f8ad 3036 	strh.w	r3, [sp, #54]	; 0x36
    6842:	b292      	uxth	r2, r2
    6844:	463c      	mov	r4, r7
    6846:	f240 811e 	bls.w	6a86 <tcp_write+0x306>
    684a:	2a00      	cmp	r2, #0
    684c:	d066      	beq.n	691c <tcp_write+0x19c>
    684e:	2e00      	cmp	r6, #0
    6850:	d067      	beq.n	6922 <tcp_write+0x1a2>
    6852:	ebab 0408 	sub.w	r4, fp, r8
    6856:	9b06      	ldr	r3, [sp, #24]
    6858:	4294      	cmp	r4, r2
    685a:	bfa8      	it	ge
    685c:	4614      	movge	r4, r2
    685e:	07db      	lsls	r3, r3, #31
    6860:	fa1f f984 	uxth.w	r9, r4
    6864:	d54d      	bpl.n	6902 <tcp_write+0x182>
    6866:	2301      	movs	r3, #1
    6868:	9302      	str	r3, [sp, #8]
    686a:	9b06      	ldr	r3, [sp, #24]
    686c:	9301      	str	r3, [sp, #4]
    686e:	4e8d      	ldr	r6, [pc, #564]	; (6aa4 <tcp_write+0x324>)
    6870:	9500      	str	r5, [sp, #0]
    6872:	f10d 0336 	add.w	r3, sp, #54	; 0x36
    6876:	4649      	mov	r1, r9
    6878:	2003      	movs	r0, #3
    687a:	47b0      	blx	r6
    687c:	4606      	mov	r6, r0
    687e:	2800      	cmp	r0, #0
    6880:	f000 80fa 	beq.w	6a78 <tcp_write+0x2f8>
    6884:	9b05      	ldr	r3, [sp, #20]
    6886:	6840      	ldr	r0, [r0, #4]
    6888:	eb03 0108 	add.w	r1, r3, r8
    688c:	464a      	mov	r2, r9
    688e:	4b86      	ldr	r3, [pc, #536]	; (6aa8 <tcp_write+0x328>)
    6890:	4798      	blx	r3
    6892:	4b86      	ldr	r3, [pc, #536]	; (6aac <tcp_write+0x32c>)
    6894:	4630      	mov	r0, r6
    6896:	4798      	blx	r3
    6898:	9b04      	ldr	r3, [sp, #16]
    689a:	4403      	add	r3, r0
    689c:	44c1      	add	r9, r8
    689e:	b29b      	uxth	r3, r3
    68a0:	fa1f f989 	uxth.w	r9, r9
    68a4:	9304      	str	r3, [sp, #16]
    68a6:	463c      	mov	r4, r7
    68a8:	9b06      	ldr	r3, [sp, #24]
    68aa:	f04f 0a00 	mov.w	sl, #0
    68ae:	f003 0301 	and.w	r3, r3, #1
    68b2:	f8cd a028 	str.w	sl, [sp, #40]	; 0x28
    68b6:	9307      	str	r3, [sp, #28]
    68b8:	45d9      	cmp	r9, fp
    68ba:	d334      	bcc.n	6926 <tcp_write+0x1a6>
    68bc:	f1b8 0f00 	cmp.w	r8, #0
    68c0:	d00a      	beq.n	68d8 <tcp_write+0x158>
    68c2:	f8d7 9004 	ldr.w	r9, [r7, #4]
    68c6:	4b78      	ldr	r3, [pc, #480]	; (6aa8 <tcp_write+0x328>)
    68c8:	f1b9 0f00 	cmp.w	r9, #0
    68cc:	f040 8099 	bne.w	6a02 <tcp_write+0x282>
    68d0:	893b      	ldrh	r3, [r7, #8]
    68d2:	4498      	add	r8, r3
    68d4:	f8a7 8008 	strh.w	r8, [r7, #8]
    68d8:	f8bd 3036 	ldrh.w	r3, [sp, #54]	; 0x36
    68dc:	f8a5 306a 	strh.w	r3, [r5, #106]	; 0x6a
    68e0:	2e00      	cmp	r6, #0
    68e2:	f000 80a8 	beq.w	6a36 <tcp_write+0x2b6>
    68e6:	4b72      	ldr	r3, [pc, #456]	; (6ab0 <tcp_write+0x330>)
    68e8:	6878      	ldr	r0, [r7, #4]
    68ea:	4631      	mov	r1, r6
    68ec:	4798      	blx	r3
    68ee:	893b      	ldrh	r3, [r7, #8]
    68f0:	8932      	ldrh	r2, [r6, #8]
    68f2:	4413      	add	r3, r2
    68f4:	813b      	strh	r3, [r7, #8]
    68f6:	f8c7 a000 	str.w	sl, [r7]
    68fa:	e0a1      	b.n	6a40 <tcp_write+0x2c0>
    68fc:	46d0      	mov	r8, sl
    68fe:	4654      	mov	r4, sl
    6900:	e7a3      	b.n	684a <tcp_write+0xca>
    6902:	2201      	movs	r2, #1
    6904:	4649      	mov	r1, r9
    6906:	2003      	movs	r0, #3
    6908:	4b6a      	ldr	r3, [pc, #424]	; (6ab4 <tcp_write+0x334>)
    690a:	4798      	blx	r3
    690c:	4606      	mov	r6, r0
    690e:	2800      	cmp	r0, #0
    6910:	f000 80b2 	beq.w	6a78 <tcp_write+0x2f8>
    6914:	9b05      	ldr	r3, [sp, #20]
    6916:	4443      	add	r3, r8
    6918:	6043      	str	r3, [r0, #4]
    691a:	e7ba      	b.n	6892 <tcp_write+0x112>
    691c:	46c1      	mov	r9, r8
    691e:	4616      	mov	r6, r2
    6920:	e7c2      	b.n	68a8 <tcp_write+0x128>
    6922:	46c1      	mov	r9, r8
    6924:	e7c0      	b.n	68a8 <tcp_write+0x128>
    6926:	9a09      	ldr	r2, [sp, #36]	; 0x24
    6928:	ebab 0309 	sub.w	r3, fp, r9
    692c:	b29b      	uxth	r3, r3
    692e:	4293      	cmp	r3, r2
    6930:	bf28      	it	cs
    6932:	4613      	movcs	r3, r2
    6934:	9308      	str	r3, [sp, #32]
    6936:	9b07      	ldr	r3, [sp, #28]
    6938:	b303      	cbz	r3, 697c <tcp_write+0x1fc>
    693a:	faba f38a 	clz	r3, sl
    693e:	095b      	lsrs	r3, r3, #5
    6940:	9302      	str	r3, [sp, #8]
    6942:	9b06      	ldr	r3, [sp, #24]
    6944:	9301      	str	r3, [sp, #4]
    6946:	4c57      	ldr	r4, [pc, #348]	; (6aa4 <tcp_write+0x324>)
    6948:	9500      	str	r5, [sp, #0]
    694a:	f10d 0336 	add.w	r3, sp, #54	; 0x36
    694e:	9908      	ldr	r1, [sp, #32]
    6950:	2000      	movs	r0, #0
    6952:	47a0      	blx	r4
    6954:	4604      	mov	r4, r0
    6956:	b330      	cbz	r0, 69a6 <tcp_write+0x226>
    6958:	9b05      	ldr	r3, [sp, #20]
    695a:	9a08      	ldr	r2, [sp, #32]
    695c:	6840      	ldr	r0, [r0, #4]
    695e:	eb03 0109 	add.w	r1, r3, r9
    6962:	4b51      	ldr	r3, [pc, #324]	; (6aa8 <tcp_write+0x328>)
    6964:	4798      	blx	r3
    6966:	4b51      	ldr	r3, [pc, #324]	; (6aac <tcp_write+0x32c>)
    6968:	4620      	mov	r0, r4
    696a:	4798      	blx	r3
    696c:	9b04      	ldr	r3, [sp, #16]
    696e:	4403      	add	r3, r0
    6970:	b29b      	uxth	r3, r3
    6972:	2b08      	cmp	r3, #8
    6974:	9304      	str	r3, [sp, #16]
    6976:	d92a      	bls.n	69ce <tcp_write+0x24e>
    6978:	4620      	mov	r0, r4
    697a:	e012      	b.n	69a2 <tcp_write+0x222>
    697c:	2201      	movs	r2, #1
    697e:	9908      	ldr	r1, [sp, #32]
    6980:	9807      	ldr	r0, [sp, #28]
    6982:	4b4c      	ldr	r3, [pc, #304]	; (6ab4 <tcp_write+0x334>)
    6984:	4798      	blx	r3
    6986:	b170      	cbz	r0, 69a6 <tcp_write+0x226>
    6988:	9a05      	ldr	r2, [sp, #20]
    698a:	900b      	str	r0, [sp, #44]	; 0x2c
    698c:	444a      	add	r2, r9
    698e:	6042      	str	r2, [r0, #4]
    6990:	9a07      	ldr	r2, [sp, #28]
    6992:	4b48      	ldr	r3, [pc, #288]	; (6ab4 <tcp_write+0x334>)
    6994:	4611      	mov	r1, r2
    6996:	4610      	mov	r0, r2
    6998:	4798      	blx	r3
    699a:	9b0b      	ldr	r3, [sp, #44]	; 0x2c
    699c:	4604      	mov	r4, r0
    699e:	b990      	cbnz	r0, 69c6 <tcp_write+0x246>
    69a0:	4618      	mov	r0, r3
    69a2:	4b45      	ldr	r3, [pc, #276]	; (6ab8 <tcp_write+0x338>)
    69a4:	4798      	blx	r3
    69a6:	7fab      	ldrb	r3, [r5, #30]
    69a8:	f063 037f 	orn	r3, r3, #127	; 0x7f
    69ac:	77ab      	strb	r3, [r5, #30]
    69ae:	b116      	cbz	r6, 69b6 <tcp_write+0x236>
    69b0:	4630      	mov	r0, r6
    69b2:	4b41      	ldr	r3, [pc, #260]	; (6ab8 <tcp_write+0x338>)
    69b4:	4798      	blx	r3
    69b6:	f1ba 0f00 	cmp.w	sl, #0
    69ba:	f43f aeff 	beq.w	67bc <tcp_write+0x3c>
    69be:	4650      	mov	r0, sl
    69c0:	4b3e      	ldr	r3, [pc, #248]	; (6abc <tcp_write+0x33c>)
    69c2:	4798      	blx	r3
    69c4:	e6fa      	b.n	67bc <tcp_write+0x3c>
    69c6:	4619      	mov	r1, r3
    69c8:	4b39      	ldr	r3, [pc, #228]	; (6ab0 <tcp_write+0x330>)
    69ca:	4798      	blx	r3
    69cc:	e7cb      	b.n	6966 <tcp_write+0x1e6>
    69ce:	6deb      	ldr	r3, [r5, #92]	; 0x5c
    69d0:	2200      	movs	r2, #0
    69d2:	4621      	mov	r1, r4
    69d4:	9200      	str	r2, [sp, #0]
    69d6:	4c3a      	ldr	r4, [pc, #232]	; (6ac0 <tcp_write+0x340>)
    69d8:	444b      	add	r3, r9
    69da:	4628      	mov	r0, r5
    69dc:	47a0      	blx	r4
    69de:	4604      	mov	r4, r0
    69e0:	2800      	cmp	r0, #0
    69e2:	d0e0      	beq.n	69a6 <tcp_write+0x226>
    69e4:	f1ba 0f00 	cmp.w	sl, #0
    69e8:	d007      	beq.n	69fa <tcp_write+0x27a>
    69ea:	9b0a      	ldr	r3, [sp, #40]	; 0x28
    69ec:	6018      	str	r0, [r3, #0]
    69ee:	9b08      	ldr	r3, [sp, #32]
    69f0:	940a      	str	r4, [sp, #40]	; 0x28
    69f2:	4499      	add	r9, r3
    69f4:	fa1f f989 	uxth.w	r9, r9
    69f8:	e75e      	b.n	68b8 <tcp_write+0x138>
    69fa:	4682      	mov	sl, r0
    69fc:	e7f7      	b.n	69ee <tcp_write+0x26e>
    69fe:	4656      	mov	r6, sl
    6a00:	e75f      	b.n	68c2 <tcp_write+0x142>
    6a02:	f8b9 2008 	ldrh.w	r2, [r9, #8]
    6a06:	4442      	add	r2, r8
    6a08:	f8a9 2008 	strh.w	r2, [r9, #8]
    6a0c:	f8d9 2000 	ldr.w	r2, [r9]
    6a10:	b972      	cbnz	r2, 6a30 <tcp_write+0x2b0>
    6a12:	f8b9 e00a 	ldrh.w	lr, [r9, #10]
    6a16:	f8d9 0004 	ldr.w	r0, [r9, #4]
    6a1a:	9905      	ldr	r1, [sp, #20]
    6a1c:	9307      	str	r3, [sp, #28]
    6a1e:	4642      	mov	r2, r8
    6a20:	4470      	add	r0, lr
    6a22:	4798      	blx	r3
    6a24:	f8b9 200a 	ldrh.w	r2, [r9, #10]
    6a28:	9b07      	ldr	r3, [sp, #28]
    6a2a:	4442      	add	r2, r8
    6a2c:	f8a9 200a 	strh.w	r2, [r9, #10]
    6a30:	f8d9 9000 	ldr.w	r9, [r9]
    6a34:	e748      	b.n	68c8 <tcp_write+0x148>
    6a36:	2f00      	cmp	r7, #0
    6a38:	f47f af5d 	bne.w	68f6 <tcp_write+0x176>
    6a3c:	f8c5 a06c 	str.w	sl, [r5, #108]	; 0x6c
    6a40:	6deb      	ldr	r3, [r5, #92]	; 0x5c
    6a42:	445b      	add	r3, fp
    6a44:	65eb      	str	r3, [r5, #92]	; 0x5c
    6a46:	f8b5 3066 	ldrh.w	r3, [r5, #102]	; 0x66
    6a4a:	eba3 0b0b 	sub.w	fp, r3, fp
    6a4e:	f8bd 3010 	ldrh.w	r3, [sp, #16]
    6a52:	f8a5 b066 	strh.w	fp, [r5, #102]	; 0x66
    6a56:	f8a5 3068 	strh.w	r3, [r5, #104]	; 0x68
    6a5a:	b15c      	cbz	r4, 6a74 <tcp_write+0x2f4>
    6a5c:	68e4      	ldr	r4, [r4, #12]
    6a5e:	b14c      	cbz	r4, 6a74 <tcp_write+0x2f4>
    6a60:	9b06      	ldr	r3, [sp, #24]
    6a62:	f013 0602 	ands.w	r6, r3, #2
    6a66:	d105      	bne.n	6a74 <tcp_write+0x2f4>
    6a68:	2008      	movs	r0, #8
    6a6a:	4b16      	ldr	r3, [pc, #88]	; (6ac4 <tcp_write+0x344>)
    6a6c:	89a5      	ldrh	r5, [r4, #12]
    6a6e:	4798      	blx	r3
    6a70:	4328      	orrs	r0, r5
    6a72:	81a0      	strh	r0, [r4, #12]
    6a74:	2000      	movs	r0, #0
    6a76:	e003      	b.n	6a80 <tcp_write+0x300>
    6a78:	2600      	movs	r6, #0
    6a7a:	e794      	b.n	69a6 <tcp_write+0x226>
    6a7c:	f06f 000c 	mvn.w	r0, #12
    6a80:	b00f      	add	sp, #60	; 0x3c
    6a82:	e8bd 8ff0 	ldmia.w	sp!, {r4, r5, r6, r7, r8, r9, sl, fp, pc}
    6a86:	f1b8 0f00 	cmp.w	r8, #0
    6a8a:	d1b8      	bne.n	69fe <tcp_write+0x27e>
    6a8c:	f8bd 3036 	ldrh.w	r3, [sp, #54]	; 0x36
    6a90:	f8a5 306a 	strh.w	r3, [r5, #106]	; 0x6a
    6a94:	e72f      	b.n	68f6 <tcp_write+0x176>
    6a96:	f1bb 0f00 	cmp.w	fp, #0
    6a9a:	f47f af2f 	bne.w	68fc <tcp_write+0x17c>
    6a9e:	465c      	mov	r4, fp
    6aa0:	e7f4      	b.n	6a8c <tcp_write+0x30c>
    6aa2:	bf00      	nop
    6aa4:	000065f5 	.word	0x000065f5
    6aa8:	0000a88f 	.word	0x0000a88f
    6aac:	00004949 	.word	0x00004949
    6ab0:	00004963 	.word	0x00004963
    6ab4:	000047dd 	.word	0x000047dd
    6ab8:	00004785 	.word	0x00004785
    6abc:	00004bf5 	.word	0x00004bf5
    6ac0:	00006649 	.word	0x00006649
    6ac4:	00003425 	.word	0x00003425

00006ac8 <tcp_enqueue_flags>:
    6ac8:	f8b0 3068 	ldrh.w	r3, [r0, #104]	; 0x68
    6acc:	2b07      	cmp	r3, #7
    6ace:	b573      	push	{r0, r1, r4, r5, r6, lr}
    6ad0:	4604      	mov	r4, r0
    6ad2:	460d      	mov	r5, r1
    6ad4:	d906      	bls.n	6ae4 <tcp_enqueue_flags+0x1c>
    6ad6:	7fa3      	ldrb	r3, [r4, #30]
    6ad8:	f063 037f 	orn	r3, r3, #127	; 0x7f
    6adc:	77a3      	strb	r3, [r4, #30]
    6ade:	f04f 30ff 	mov.w	r0, #4294967295
    6ae2:	e039      	b.n	6b58 <tcp_enqueue_flags+0x90>
    6ae4:	f001 0302 	and.w	r3, r1, #2
    6ae8:	2b00      	cmp	r3, #0
    6aea:	f8b0 3066 	ldrh.w	r3, [r0, #102]	; 0x66
    6aee:	bf15      	itete	ne
    6af0:	2601      	movne	r6, #1
    6af2:	2600      	moveq	r6, #0
    6af4:	2104      	movne	r1, #4
    6af6:	2100      	moveq	r1, #0
    6af8:	2b00      	cmp	r3, #0
    6afa:	d0f0      	beq.n	6ade <tcp_enqueue_flags+0x16>
    6afc:	2200      	movs	r2, #0
    6afe:	4610      	mov	r0, r2
    6b00:	4b19      	ldr	r3, [pc, #100]	; (6b68 <tcp_enqueue_flags+0xa0>)
    6b02:	4798      	blx	r3
    6b04:	4601      	mov	r1, r0
    6b06:	2800      	cmp	r0, #0
    6b08:	d0e5      	beq.n	6ad6 <tcp_enqueue_flags+0xe>
    6b0a:	9600      	str	r6, [sp, #0]
    6b0c:	6de3      	ldr	r3, [r4, #92]	; 0x5c
    6b0e:	4e17      	ldr	r6, [pc, #92]	; (6b6c <tcp_enqueue_flags+0xa4>)
    6b10:	462a      	mov	r2, r5
    6b12:	4620      	mov	r0, r4
    6b14:	47b0      	blx	r6
    6b16:	2800      	cmp	r0, #0
    6b18:	d0dd      	beq.n	6ad6 <tcp_enqueue_flags+0xe>
    6b1a:	6ee3      	ldr	r3, [r4, #108]	; 0x6c
    6b1c:	b9fb      	cbnz	r3, 6b5e <tcp_enqueue_flags+0x96>
    6b1e:	66e0      	str	r0, [r4, #108]	; 0x6c
    6b20:	2300      	movs	r3, #0
    6b22:	07aa      	lsls	r2, r5, #30
    6b24:	f8a4 306a 	strh.w	r3, [r4, #106]	; 0x6a
    6b28:	d007      	beq.n	6b3a <tcp_enqueue_flags+0x72>
    6b2a:	6de3      	ldr	r3, [r4, #92]	; 0x5c
    6b2c:	3301      	adds	r3, #1
    6b2e:	65e3      	str	r3, [r4, #92]	; 0x5c
    6b30:	f8b4 3066 	ldrh.w	r3, [r4, #102]	; 0x66
    6b34:	3b01      	subs	r3, #1
    6b36:	f8a4 3066 	strh.w	r3, [r4, #102]	; 0x66
    6b3a:	07eb      	lsls	r3, r5, #31
    6b3c:	bf42      	ittt	mi
    6b3e:	7fa3      	ldrbmi	r3, [r4, #30]
    6b40:	f043 0320 	orrmi.w	r3, r3, #32
    6b44:	77a3      	strbmi	r3, [r4, #30]
    6b46:	6840      	ldr	r0, [r0, #4]
    6b48:	4b09      	ldr	r3, [pc, #36]	; (6b70 <tcp_enqueue_flags+0xa8>)
    6b4a:	4798      	blx	r3
    6b4c:	f8b4 3068 	ldrh.w	r3, [r4, #104]	; 0x68
    6b50:	4418      	add	r0, r3
    6b52:	f8a4 0068 	strh.w	r0, [r4, #104]	; 0x68
    6b56:	2000      	movs	r0, #0
    6b58:	b002      	add	sp, #8
    6b5a:	bd70      	pop	{r4, r5, r6, pc}
    6b5c:	4613      	mov	r3, r2
    6b5e:	681a      	ldr	r2, [r3, #0]
    6b60:	2a00      	cmp	r2, #0
    6b62:	d1fb      	bne.n	6b5c <tcp_enqueue_flags+0x94>
    6b64:	6018      	str	r0, [r3, #0]
    6b66:	e7db      	b.n	6b20 <tcp_enqueue_flags+0x58>
    6b68:	000047dd 	.word	0x000047dd
    6b6c:	00006649 	.word	0x00006649
    6b70:	00004949 	.word	0x00004949

00006b74 <tcp_send_fin>:
    6b74:	e92d 41f0 	stmdb	sp!, {r4, r5, r6, r7, r8, lr}
    6b78:	6ec4      	ldr	r4, [r0, #108]	; 0x6c
    6b7a:	4605      	mov	r5, r0
    6b7c:	b934      	cbnz	r4, 6b8c <tcp_send_fin+0x18>
    6b7e:	4628      	mov	r0, r5
    6b80:	2101      	movs	r1, #1
    6b82:	4b0e      	ldr	r3, [pc, #56]	; (6bbc <tcp_send_fin+0x48>)
    6b84:	e8bd 41f0 	ldmia.w	sp!, {r4, r5, r6, r7, r8, lr}
    6b88:	4718      	bx	r3
    6b8a:	461c      	mov	r4, r3
    6b8c:	6823      	ldr	r3, [r4, #0]
    6b8e:	2b00      	cmp	r3, #0
    6b90:	d1fb      	bne.n	6b8a <tcp_send_fin+0x16>
    6b92:	68e3      	ldr	r3, [r4, #12]
    6b94:	8998      	ldrh	r0, [r3, #12]
    6b96:	4b0a      	ldr	r3, [pc, #40]	; (6bc0 <tcp_send_fin+0x4c>)
    6b98:	4798      	blx	r3
    6b9a:	f010 0707 	ands.w	r7, r0, #7
    6b9e:	d1ee      	bne.n	6b7e <tcp_send_fin+0xa>
    6ba0:	68e6      	ldr	r6, [r4, #12]
    6ba2:	4b08      	ldr	r3, [pc, #32]	; (6bc4 <tcp_send_fin+0x50>)
    6ba4:	89b4      	ldrh	r4, [r6, #12]
    6ba6:	2001      	movs	r0, #1
    6ba8:	4798      	blx	r3
    6baa:	4320      	orrs	r0, r4
    6bac:	81b0      	strh	r0, [r6, #12]
    6bae:	7fab      	ldrb	r3, [r5, #30]
    6bb0:	f043 0320 	orr.w	r3, r3, #32
    6bb4:	77ab      	strb	r3, [r5, #30]
    6bb6:	4638      	mov	r0, r7
    6bb8:	e8bd 81f0 	ldmia.w	sp!, {r4, r5, r6, r7, r8, pc}
    6bbc:	00006ac9 	.word	0x00006ac9
    6bc0:	0000342b 	.word	0x0000342b
    6bc4:	00003425 	.word	0x00003425

00006bc8 <tcp_send_empty_ack>:
    6bc8:	e92d 41f3 	stmdb	sp!, {r0, r1, r4, r5, r6, r7, r8, lr}
    6bcc:	4b16      	ldr	r3, [pc, #88]	; (6c28 <tcp_send_empty_ack+0x60>)
    6bce:	4604      	mov	r4, r0
    6bd0:	6d00      	ldr	r0, [r0, #80]	; 0x50
    6bd2:	4798      	blx	r3
    6bd4:	2100      	movs	r1, #0
    6bd6:	4602      	mov	r2, r0
    6bd8:	4b14      	ldr	r3, [pc, #80]	; (6c2c <tcp_send_empty_ack+0x64>)
    6bda:	4620      	mov	r0, r4
    6bdc:	4798      	blx	r3
    6bde:	4605      	mov	r5, r0
    6be0:	b1f8      	cbz	r0, 6c22 <tcp_send_empty_ack+0x5a>
    6be2:	7fa3      	ldrb	r3, [r4, #30]
    6be4:	6847      	ldr	r7, [r0, #4]
    6be6:	f8df 8050 	ldr.w	r8, [pc, #80]	; 6c38 <tcp_send_empty_ack+0x70>
    6bea:	f023 0303 	bic.w	r3, r3, #3
    6bee:	77a3      	strb	r3, [r4, #30]
    6bf0:	1d26      	adds	r6, r4, #4
    6bf2:	8903      	ldrh	r3, [r0, #8]
    6bf4:	9300      	str	r3, [sp, #0]
    6bf6:	4621      	mov	r1, r4
    6bf8:	2306      	movs	r3, #6
    6bfa:	4632      	mov	r2, r6
    6bfc:	47c0      	blx	r8
    6bfe:	2206      	movs	r2, #6
    6c00:	8238      	strh	r0, [r7, #16]
    6c02:	7aa3      	ldrb	r3, [r4, #10]
    6c04:	9201      	str	r2, [sp, #4]
    6c06:	7a62      	ldrb	r2, [r4, #9]
    6c08:	9200      	str	r2, [sp, #0]
    6c0a:	4621      	mov	r1, r4
    6c0c:	4632      	mov	r2, r6
    6c0e:	4628      	mov	r0, r5
    6c10:	4c07      	ldr	r4, [pc, #28]	; (6c30 <tcp_send_empty_ack+0x68>)
    6c12:	47a0      	blx	r4
    6c14:	4628      	mov	r0, r5
    6c16:	4b07      	ldr	r3, [pc, #28]	; (6c34 <tcp_send_empty_ack+0x6c>)
    6c18:	4798      	blx	r3
    6c1a:	2000      	movs	r0, #0
    6c1c:	b002      	add	sp, #8
    6c1e:	e8bd 81f0 	ldmia.w	sp!, {r4, r5, r6, r7, r8, pc}
    6c22:	f06f 0001 	mvn.w	r0, #1
    6c26:	e7f9      	b.n	6c1c <tcp_send_empty_ack+0x54>
    6c28:	00003431 	.word	0x00003431
    6c2c:	00006719 	.word	0x00006719
    6c30:	00003a81 	.word	0x00003a81
    6c34:	00004785 	.word	0x00004785
    6c38:	000036d5 	.word	0x000036d5

00006c3c <tcp_output>:
    6c3c:	4b97      	ldr	r3, [pc, #604]	; (6e9c <tcp_output+0x260>)
    6c3e:	681b      	ldr	r3, [r3, #0]
    6c40:	4283      	cmp	r3, r0
    6c42:	e92d 4ff7 	stmdb	sp!, {r0, r1, r2, r4, r5, r6, r7, r8, r9, sl, fp, lr}
    6c46:	4604      	mov	r4, r0
    6c48:	d029      	beq.n	6c9e <tcp_output+0x62>
    6c4a:	f8b0 2060 	ldrh.w	r2, [r0, #96]	; 0x60
    6c4e:	f8b0 304c 	ldrh.w	r3, [r0, #76]	; 0x4c
    6c52:	6ec5      	ldr	r5, [r0, #108]	; 0x6c
    6c54:	429a      	cmp	r2, r3
    6c56:	bf28      	it	cs
    6c58:	461a      	movcs	r2, r3
    6c5a:	7f83      	ldrb	r3, [r0, #30]
    6c5c:	079b      	lsls	r3, r3, #30
    6c5e:	4692      	mov	sl, r2
    6c60:	d510      	bpl.n	6c84 <tcp_output+0x48>
    6c62:	b92d      	cbnz	r5, 6c70 <tcp_output+0x34>
    6c64:	4b8e      	ldr	r3, [pc, #568]	; (6ea0 <tcp_output+0x264>)
    6c66:	4620      	mov	r0, r4
    6c68:	b003      	add	sp, #12
    6c6a:	e8bd 4ff0 	ldmia.w	sp!, {r4, r5, r6, r7, r8, r9, sl, fp, lr}
    6c6e:	4718      	bx	r3
    6c70:	68eb      	ldr	r3, [r5, #12]
    6c72:	6858      	ldr	r0, [r3, #4]
    6c74:	4b8b      	ldr	r3, [pc, #556]	; (6ea4 <tcp_output+0x268>)
    6c76:	4798      	blx	r3
    6c78:	892b      	ldrh	r3, [r5, #8]
    6c7a:	6ca2      	ldr	r2, [r4, #72]	; 0x48
    6c7c:	1a9b      	subs	r3, r3, r2
    6c7e:	4418      	add	r0, r3
    6c80:	4582      	cmp	sl, r0
    6c82:	d3ef      	bcc.n	6c64 <tcp_output+0x28>
    6c84:	6f26      	ldr	r6, [r4, #112]	; 0x70
    6c86:	b97e      	cbnz	r6, 6ca8 <tcp_output+0x6c>
    6c88:	4f86      	ldr	r7, [pc, #536]	; (6ea4 <tcp_output+0x268>)
    6c8a:	2d00      	cmp	r5, #0
    6c8c:	d13b      	bne.n	6d06 <tcp_output+0xca>
    6c8e:	6ee3      	ldr	r3, [r4, #108]	; 0x6c
    6c90:	b90b      	cbnz	r3, 6c96 <tcp_output+0x5a>
    6c92:	f8a4 306a 	strh.w	r3, [r4, #106]	; 0x6a
    6c96:	7fa3      	ldrb	r3, [r4, #30]
    6c98:	f003 037f 	and.w	r3, r3, #127	; 0x7f
    6c9c:	77a3      	strb	r3, [r4, #30]
    6c9e:	2000      	movs	r0, #0
    6ca0:	b003      	add	sp, #12
    6ca2:	e8bd 8ff0 	ldmia.w	sp!, {r4, r5, r6, r7, r8, r9, sl, fp, pc}
    6ca6:	461e      	mov	r6, r3
    6ca8:	6833      	ldr	r3, [r6, #0]
    6caa:	2b00      	cmp	r3, #0
    6cac:	d1fb      	bne.n	6ca6 <tcp_output+0x6a>
    6cae:	e7eb      	b.n	6c88 <tcp_output+0x4c>
    6cb0:	68eb      	ldr	r3, [r5, #12]
    6cb2:	6858      	ldr	r0, [r3, #4]
    6cb4:	47b8      	blx	r7
    6cb6:	68f3      	ldr	r3, [r6, #12]
    6cb8:	4680      	mov	r8, r0
    6cba:	6858      	ldr	r0, [r3, #4]
    6cbc:	47b8      	blx	r7
    6cbe:	eba8 0000 	sub.w	r0, r8, r0
    6cc2:	2800      	cmp	r0, #0
    6cc4:	da19      	bge.n	6cfa <tcp_output+0xbe>
    6cc6:	f104 0870 	add.w	r8, r4, #112	; 0x70
    6cca:	f8d8 3000 	ldr.w	r3, [r8]
    6cce:	b933      	cbnz	r3, 6cde <tcp_output+0xa2>
    6cd0:	f8d8 3000 	ldr.w	r3, [r8]
    6cd4:	602b      	str	r3, [r5, #0]
    6cd6:	f8c8 5000 	str.w	r5, [r8]
    6cda:	6ee5      	ldr	r5, [r4, #108]	; 0x6c
    6cdc:	e7d5      	b.n	6c8a <tcp_output+0x4e>
    6cde:	68db      	ldr	r3, [r3, #12]
    6ce0:	6858      	ldr	r0, [r3, #4]
    6ce2:	47b8      	blx	r7
    6ce4:	68eb      	ldr	r3, [r5, #12]
    6ce6:	4681      	mov	r9, r0
    6ce8:	6858      	ldr	r0, [r3, #4]
    6cea:	47b8      	blx	r7
    6cec:	eba9 0000 	sub.w	r0, r9, r0
    6cf0:	2800      	cmp	r0, #0
    6cf2:	daed      	bge.n	6cd0 <tcp_output+0x94>
    6cf4:	f8d8 8000 	ldr.w	r8, [r8]
    6cf8:	e7e7      	b.n	6cca <tcp_output+0x8e>
    6cfa:	6035      	str	r5, [r6, #0]
    6cfc:	e0c7      	b.n	6e8e <tcp_output+0x252>
    6cfe:	4628      	mov	r0, r5
    6d00:	4b69      	ldr	r3, [pc, #420]	; (6ea8 <tcp_output+0x26c>)
    6d02:	4798      	blx	r3
    6d04:	e7e9      	b.n	6cda <tcp_output+0x9e>
    6d06:	68eb      	ldr	r3, [r5, #12]
    6d08:	6858      	ldr	r0, [r3, #4]
    6d0a:	47b8      	blx	r7
    6d0c:	892b      	ldrh	r3, [r5, #8]
    6d0e:	6ca2      	ldr	r2, [r4, #72]	; 0x48
    6d10:	1a9b      	subs	r3, r3, r2
    6d12:	4418      	add	r0, r3
    6d14:	4582      	cmp	sl, r0
    6d16:	d3ba      	bcc.n	6c8e <tcp_output+0x52>
    6d18:	6f23      	ldr	r3, [r4, #112]	; 0x70
    6d1a:	b19b      	cbz	r3, 6d44 <tcp_output+0x108>
    6d1c:	7fa2      	ldrb	r2, [r4, #30]
    6d1e:	f012 0f44 	tst.w	r2, #68	; 0x44
    6d22:	d10f      	bne.n	6d44 <tcp_output+0x108>
    6d24:	6ee3      	ldr	r3, [r4, #108]	; 0x6c
    6d26:	b12b      	cbz	r3, 6d34 <tcp_output+0xf8>
    6d28:	6819      	ldr	r1, [r3, #0]
    6d2a:	b959      	cbnz	r1, 6d44 <tcp_output+0x108>
    6d2c:	8919      	ldrh	r1, [r3, #8]
    6d2e:	8ee3      	ldrh	r3, [r4, #54]	; 0x36
    6d30:	4299      	cmp	r1, r3
    6d32:	d207      	bcs.n	6d44 <tcp_output+0x108>
    6d34:	f8b4 3066 	ldrh.w	r3, [r4, #102]	; 0x66
    6d38:	b123      	cbz	r3, 6d44 <tcp_output+0x108>
    6d3a:	f8b4 3068 	ldrh.w	r3, [r4, #104]	; 0x68
    6d3e:	2b07      	cmp	r3, #7
    6d40:	f240 80a7 	bls.w	6e92 <tcp_output+0x256>
    6d44:	682b      	ldr	r3, [r5, #0]
    6d46:	66e3      	str	r3, [r4, #108]	; 0x6c
    6d48:	7e23      	ldrb	r3, [r4, #24]
    6d4a:	2b02      	cmp	r3, #2
    6d4c:	d00e      	beq.n	6d6c <tcp_output+0x130>
    6d4e:	f8d5 900c 	ldr.w	r9, [r5, #12]
    6d52:	4b56      	ldr	r3, [pc, #344]	; (6eac <tcp_output+0x270>)
    6d54:	f8b9 800c 	ldrh.w	r8, [r9, #12]
    6d58:	2010      	movs	r0, #16
    6d5a:	4798      	blx	r3
    6d5c:	ea48 0000 	orr.w	r0, r8, r0
    6d60:	f8a9 000c 	strh.w	r0, [r9, #12]
    6d64:	7fa3      	ldrb	r3, [r4, #30]
    6d66:	f023 0303 	bic.w	r3, r3, #3
    6d6a:	77a3      	strb	r3, [r4, #30]
    6d6c:	6aa0      	ldr	r0, [r4, #40]	; 0x28
    6d6e:	f8df 814c 	ldr.w	r8, [pc, #332]	; 6ebc <tcp_output+0x280>
    6d72:	f8d5 900c 	ldr.w	r9, [r5, #12]
    6d76:	47c0      	blx	r8
    6d78:	4b4c      	ldr	r3, [pc, #304]	; (6eac <tcp_output+0x270>)
    6d7a:	f8c9 0008 	str.w	r0, [r9, #8]
    6d7e:	8de0      	ldrh	r0, [r4, #46]	; 0x2e
    6d80:	f8d5 900c 	ldr.w	r9, [r5, #12]
    6d84:	4798      	blx	r3
    6d86:	8de2      	ldrh	r2, [r4, #46]	; 0x2e
    6d88:	6aa3      	ldr	r3, [r4, #40]	; 0x28
    6d8a:	f8a9 000e 	strh.w	r0, [r9, #14]
    6d8e:	4413      	add	r3, r2
    6d90:	6323      	str	r3, [r4, #48]	; 0x30
    6d92:	7aab      	ldrb	r3, [r5, #10]
    6d94:	f013 0f01 	tst.w	r3, #1
    6d98:	f104 0904 	add.w	r9, r4, #4
    6d9c:	d00b      	beq.n	6db6 <tcp_output+0x17a>
    6d9e:	4649      	mov	r1, r9
    6da0:	4b43      	ldr	r3, [pc, #268]	; (6eb0 <tcp_output+0x274>)
    6da2:	f8d5 b00c 	ldr.w	fp, [r5, #12]
    6da6:	f240 50b4 	movw	r0, #1460	; 0x5b4
    6daa:	4798      	blx	r3
    6dac:	f040 7001 	orr.w	r0, r0, #33816576	; 0x2040000
    6db0:	47c0      	blx	r8
    6db2:	f8cb 0014 	str.w	r0, [fp, #20]
    6db6:	f9b4 3034 	ldrsh.w	r3, [r4, #52]	; 0x34
    6dba:	3301      	adds	r3, #1
    6dbc:	bf04      	itt	eq
    6dbe:	2300      	moveq	r3, #0
    6dc0:	86a3      	strheq	r3, [r4, #52]	; 0x34
    6dc2:	6823      	ldr	r3, [r4, #0]
    6dc4:	b933      	cbnz	r3, 6dd4 <tcp_output+0x198>
    6dc6:	4648      	mov	r0, r9
    6dc8:	4b3a      	ldr	r3, [pc, #232]	; (6eb4 <tcp_output+0x278>)
    6dca:	4798      	blx	r3
    6dcc:	2800      	cmp	r0, #0
    6dce:	d033      	beq.n	6e38 <tcp_output+0x1fc>
    6dd0:	6843      	ldr	r3, [r0, #4]
    6dd2:	6023      	str	r3, [r4, #0]
    6dd4:	6ba3      	ldr	r3, [r4, #56]	; 0x38
    6dd6:	b933      	cbnz	r3, 6de6 <tcp_output+0x1aa>
    6dd8:	4b37      	ldr	r3, [pc, #220]	; (6eb8 <tcp_output+0x27c>)
    6dda:	681b      	ldr	r3, [r3, #0]
    6ddc:	63a3      	str	r3, [r4, #56]	; 0x38
    6dde:	68eb      	ldr	r3, [r5, #12]
    6de0:	6858      	ldr	r0, [r3, #4]
    6de2:	47b8      	blx	r7
    6de4:	63e0      	str	r0, [r4, #60]	; 0x3c
    6de6:	6868      	ldr	r0, [r5, #4]
    6de8:	f8d5 800c 	ldr.w	r8, [r5, #12]
    6dec:	6843      	ldr	r3, [r0, #4]
    6dee:	f8df b0d0 	ldr.w	fp, [pc, #208]	; 6ec0 <tcp_output+0x284>
    6df2:	f8c0 8004 	str.w	r8, [r0, #4]
    6df6:	eba8 0303 	sub.w	r3, r8, r3
    6dfa:	b29a      	uxth	r2, r3
    6dfc:	8943      	ldrh	r3, [r0, #10]
    6dfe:	1a9b      	subs	r3, r3, r2
    6e00:	8143      	strh	r3, [r0, #10]
    6e02:	8903      	ldrh	r3, [r0, #8]
    6e04:	1a9b      	subs	r3, r3, r2
    6e06:	b29b      	uxth	r3, r3
    6e08:	2200      	movs	r2, #0
    6e0a:	8103      	strh	r3, [r0, #8]
    6e0c:	4621      	mov	r1, r4
    6e0e:	f888 2010 	strb.w	r2, [r8, #16]
    6e12:	f888 2011 	strb.w	r2, [r8, #17]
    6e16:	9300      	str	r3, [sp, #0]
    6e18:	464a      	mov	r2, r9
    6e1a:	2306      	movs	r3, #6
    6e1c:	47d8      	blx	fp
    6e1e:	2206      	movs	r2, #6
    6e20:	f8a8 0010 	strh.w	r0, [r8, #16]
    6e24:	9201      	str	r2, [sp, #4]
    6e26:	7a62      	ldrb	r2, [r4, #9]
    6e28:	9200      	str	r2, [sp, #0]
    6e2a:	7aa3      	ldrb	r3, [r4, #10]
    6e2c:	6868      	ldr	r0, [r5, #4]
    6e2e:	f8df 8094 	ldr.w	r8, [pc, #148]	; 6ec4 <tcp_output+0x288>
    6e32:	464a      	mov	r2, r9
    6e34:	4621      	mov	r1, r4
    6e36:	47c0      	blx	r8
    6e38:	68eb      	ldr	r3, [r5, #12]
    6e3a:	f8df 808c 	ldr.w	r8, [pc, #140]	; 6ec8 <tcp_output+0x28c>
    6e3e:	6858      	ldr	r0, [r3, #4]
    6e40:	47b8      	blx	r7
    6e42:	68eb      	ldr	r3, [r5, #12]
    6e44:	f8b5 b008 	ldrh.w	fp, [r5, #8]
    6e48:	4681      	mov	r9, r0
    6e4a:	8998      	ldrh	r0, [r3, #12]
    6e4c:	47c0      	blx	r8
    6e4e:	f010 0003 	ands.w	r0, r0, #3
    6e52:	bf18      	it	ne
    6e54:	2001      	movne	r0, #1
    6e56:	6d23      	ldr	r3, [r4, #80]	; 0x50
    6e58:	68ea      	ldr	r2, [r5, #12]
    6e5a:	4458      	add	r0, fp
    6e5c:	4448      	add	r0, r9
    6e5e:	1a1b      	subs	r3, r3, r0
    6e60:	2b00      	cmp	r3, #0
    6e62:	bfb8      	it	lt
    6e64:	6520      	strlt	r0, [r4, #80]	; 0x50
    6e66:	4643      	mov	r3, r8
    6e68:	8990      	ldrh	r0, [r2, #12]
    6e6a:	f8b5 8008 	ldrh.w	r8, [r5, #8]
    6e6e:	4798      	blx	r3
    6e70:	f010 0003 	ands.w	r0, r0, #3
    6e74:	bf18      	it	ne
    6e76:	2001      	movne	r0, #1
    6e78:	eb10 0f08 	cmn.w	r0, r8
    6e7c:	f43f af3f 	beq.w	6cfe <tcp_output+0xc2>
    6e80:	2300      	movs	r3, #0
    6e82:	602b      	str	r3, [r5, #0]
    6e84:	6f23      	ldr	r3, [r4, #112]	; 0x70
    6e86:	2b00      	cmp	r3, #0
    6e88:	f47f af12 	bne.w	6cb0 <tcp_output+0x74>
    6e8c:	6725      	str	r5, [r4, #112]	; 0x70
    6e8e:	462e      	mov	r6, r5
    6e90:	e723      	b.n	6cda <tcp_output+0x9e>
    6e92:	f012 0fa0 	tst.w	r2, #160	; 0xa0
    6e96:	f47f af55 	bne.w	6d44 <tcp_output+0x108>
    6e9a:	e6f8      	b.n	6c8e <tcp_output+0x52>
    6e9c:	200161dc 	.word	0x200161dc
    6ea0:	00006bc9 	.word	0x00006bc9
    6ea4:	00003435 	.word	0x00003435
    6ea8:	00004bd1 	.word	0x00004bd1
    6eac:	00003425 	.word	0x00003425
    6eb0:	00005521 	.word	0x00005521
    6eb4:	000037c1 	.word	0x000037c1
    6eb8:	200161c8 	.word	0x200161c8
    6ebc:	00003431 	.word	0x00003431
    6ec0:	000036d5 	.word	0x000036d5
    6ec4:	00003a81 	.word	0x00003a81
    6ec8:	0000342b 	.word	0x0000342b

00006ecc <tcp_rst>:
    6ecc:	e92d 4ff7 	stmdb	sp!, {r0, r1, r2, r4, r5, r6, r7, r8, r9, sl, fp, lr}
    6ed0:	4681      	mov	r9, r0
    6ed2:	468a      	mov	sl, r1
    6ed4:	4617      	mov	r7, r2
    6ed6:	4698      	mov	r8, r3
    6ed8:	2200      	movs	r2, #0
    6eda:	2114      	movs	r1, #20
    6edc:	2001      	movs	r0, #1
    6ede:	4b21      	ldr	r3, [pc, #132]	; (6f64 <tcp_rst+0x98>)
    6ee0:	f8bd 6030 	ldrh.w	r6, [sp, #48]	; 0x30
    6ee4:	f8bd b034 	ldrh.w	fp, [sp, #52]	; 0x34
    6ee8:	4798      	blx	r3
    6eea:	4605      	mov	r5, r0
    6eec:	2800      	cmp	r0, #0
    6eee:	d036      	beq.n	6f5e <tcp_rst+0x92>
    6ef0:	6844      	ldr	r4, [r0, #4]
    6ef2:	4630      	mov	r0, r6
    6ef4:	4e1c      	ldr	r6, [pc, #112]	; (6f68 <tcp_rst+0x9c>)
    6ef6:	47b0      	blx	r6
    6ef8:	8020      	strh	r0, [r4, #0]
    6efa:	4658      	mov	r0, fp
    6efc:	47b0      	blx	r6
    6efe:	8060      	strh	r0, [r4, #2]
    6f00:	4648      	mov	r0, r9
    6f02:	f8df 9070 	ldr.w	r9, [pc, #112]	; 6f74 <tcp_rst+0xa8>
    6f06:	47c8      	blx	r9
    6f08:	6060      	str	r0, [r4, #4]
    6f0a:	4650      	mov	r0, sl
    6f0c:	47c8      	blx	r9
    6f0e:	60a0      	str	r0, [r4, #8]
    6f10:	f245 0014 	movw	r0, #20500	; 0x5014
    6f14:	47b0      	blx	r6
    6f16:	2316      	movs	r3, #22
    6f18:	73a3      	strb	r3, [r4, #14]
    6f1a:	f06f 032f 	mvn.w	r3, #47	; 0x2f
    6f1e:	2600      	movs	r6, #0
    6f20:	73e3      	strb	r3, [r4, #15]
    6f22:	892b      	ldrh	r3, [r5, #8]
    6f24:	81a0      	strh	r0, [r4, #12]
    6f26:	7426      	strb	r6, [r4, #16]
    6f28:	7466      	strb	r6, [r4, #17]
    6f2a:	74a6      	strb	r6, [r4, #18]
    6f2c:	74e6      	strb	r6, [r4, #19]
    6f2e:	4642      	mov	r2, r8
    6f30:	9300      	str	r3, [sp, #0]
    6f32:	4639      	mov	r1, r7
    6f34:	2306      	movs	r3, #6
    6f36:	4628      	mov	r0, r5
    6f38:	f8df 903c 	ldr.w	r9, [pc, #60]	; 6f78 <tcp_rst+0xac>
    6f3c:	47c8      	blx	r9
    6f3e:	2306      	movs	r3, #6
    6f40:	8220      	strh	r0, [r4, #16]
    6f42:	4642      	mov	r2, r8
    6f44:	9301      	str	r3, [sp, #4]
    6f46:	9600      	str	r6, [sp, #0]
    6f48:	23ff      	movs	r3, #255	; 0xff
    6f4a:	4639      	mov	r1, r7
    6f4c:	4628      	mov	r0, r5
    6f4e:	4c07      	ldr	r4, [pc, #28]	; (6f6c <tcp_rst+0xa0>)
    6f50:	47a0      	blx	r4
    6f52:	4b07      	ldr	r3, [pc, #28]	; (6f70 <tcp_rst+0xa4>)
    6f54:	4628      	mov	r0, r5
    6f56:	b003      	add	sp, #12
    6f58:	e8bd 4ff0 	ldmia.w	sp!, {r4, r5, r6, r7, r8, r9, sl, fp, lr}
    6f5c:	4718      	bx	r3
    6f5e:	b003      	add	sp, #12
    6f60:	e8bd 8ff0 	ldmia.w	sp!, {r4, r5, r6, r7, r8, r9, sl, fp, pc}
    6f64:	000047dd 	.word	0x000047dd
    6f68:	00003425 	.word	0x00003425
    6f6c:	00003a81 	.word	0x00003a81
    6f70:	00004785 	.word	0x00004785
    6f74:	00003431 	.word	0x00003431
    6f78:	000036d5 	.word	0x000036d5

00006f7c <tcp_rexmit_rto>:
    6f7c:	6f02      	ldr	r2, [r0, #112]	; 0x70
    6f7e:	b410      	push	{r4}
    6f80:	b192      	cbz	r2, 6fa8 <tcp_rexmit_rto+0x2c>
    6f82:	4611      	mov	r1, r2
    6f84:	680b      	ldr	r3, [r1, #0]
    6f86:	b96b      	cbnz	r3, 6fa4 <tcp_rexmit_rto+0x28>
    6f88:	6ec4      	ldr	r4, [r0, #108]	; 0x6c
    6f8a:	600c      	str	r4, [r1, #0]
    6f8c:	66c2      	str	r2, [r0, #108]	; 0x6c
    6f8e:	f890 2046 	ldrb.w	r2, [r0, #70]	; 0x46
    6f92:	6703      	str	r3, [r0, #112]	; 0x70
    6f94:	3201      	adds	r2, #1
    6f96:	f880 2046 	strb.w	r2, [r0, #70]	; 0x46
    6f9a:	6383      	str	r3, [r0, #56]	; 0x38
    6f9c:	f85d 4b04 	ldr.w	r4, [sp], #4
    6fa0:	4b03      	ldr	r3, [pc, #12]	; (6fb0 <tcp_rexmit_rto+0x34>)
    6fa2:	4718      	bx	r3
    6fa4:	4619      	mov	r1, r3
    6fa6:	e7ed      	b.n	6f84 <tcp_rexmit_rto+0x8>
    6fa8:	f85d 4b04 	ldr.w	r4, [sp], #4
    6fac:	4770      	bx	lr
    6fae:	bf00      	nop
    6fb0:	00006c3d 	.word	0x00006c3d

00006fb4 <tcp_rexmit>:
    6fb4:	e92d 41f0 	stmdb	sp!, {r4, r5, r6, r7, r8, lr}
    6fb8:	6f05      	ldr	r5, [r0, #112]	; 0x70
    6fba:	4604      	mov	r4, r0
    6fbc:	b1ad      	cbz	r5, 6fea <tcp_rexmit+0x36>
    6fbe:	682b      	ldr	r3, [r5, #0]
    6fc0:	f8df 8044 	ldr.w	r8, [pc, #68]	; 7008 <tcp_rexmit+0x54>
    6fc4:	6703      	str	r3, [r0, #112]	; 0x70
    6fc6:	f100 066c 	add.w	r6, r0, #108	; 0x6c
    6fca:	6833      	ldr	r3, [r6, #0]
    6fcc:	b97b      	cbnz	r3, 6fee <tcp_rexmit+0x3a>
    6fce:	6833      	ldr	r3, [r6, #0]
    6fd0:	602b      	str	r3, [r5, #0]
    6fd2:	6035      	str	r5, [r6, #0]
    6fd4:	682b      	ldr	r3, [r5, #0]
    6fd6:	b90b      	cbnz	r3, 6fdc <tcp_rexmit+0x28>
    6fd8:	f8a4 306a 	strh.w	r3, [r4, #106]	; 0x6a
    6fdc:	f894 3046 	ldrb.w	r3, [r4, #70]	; 0x46
    6fe0:	3301      	adds	r3, #1
    6fe2:	f884 3046 	strb.w	r3, [r4, #70]	; 0x46
    6fe6:	2300      	movs	r3, #0
    6fe8:	63a3      	str	r3, [r4, #56]	; 0x38
    6fea:	e8bd 81f0 	ldmia.w	sp!, {r4, r5, r6, r7, r8, pc}
    6fee:	68db      	ldr	r3, [r3, #12]
    6ff0:	6858      	ldr	r0, [r3, #4]
    6ff2:	47c0      	blx	r8
    6ff4:	68eb      	ldr	r3, [r5, #12]
    6ff6:	4607      	mov	r7, r0
    6ff8:	6858      	ldr	r0, [r3, #4]
    6ffa:	47c0      	blx	r8
    6ffc:	1a38      	subs	r0, r7, r0
    6ffe:	2800      	cmp	r0, #0
    7000:	dae5      	bge.n	6fce <tcp_rexmit+0x1a>
    7002:	6836      	ldr	r6, [r6, #0]
    7004:	e7e1      	b.n	6fca <tcp_rexmit+0x16>
    7006:	bf00      	nop
    7008:	00003435 	.word	0x00003435

0000700c <tcp_rexmit_fast>:
    700c:	6f03      	ldr	r3, [r0, #112]	; 0x70
    700e:	b510      	push	{r4, lr}
    7010:	4604      	mov	r4, r0
    7012:	b313      	cbz	r3, 705a <tcp_rexmit_fast+0x4e>
    7014:	7f83      	ldrb	r3, [r0, #30]
    7016:	075b      	lsls	r3, r3, #29
    7018:	d41f      	bmi.n	705a <tcp_rexmit_fast+0x4e>
    701a:	4b10      	ldr	r3, [pc, #64]	; (705c <tcp_rexmit_fast+0x50>)
    701c:	4798      	blx	r3
    701e:	f8b4 304c 	ldrh.w	r3, [r4, #76]	; 0x4c
    7022:	f8b4 2060 	ldrh.w	r2, [r4, #96]	; 0x60
    7026:	4293      	cmp	r3, r2
    7028:	bf8b      	itete	hi
    702a:	0852      	lsrhi	r2, r2, #1
    702c:	085b      	lsrls	r3, r3, #1
    702e:	f8a4 204e 	strhhi.w	r2, [r4, #78]	; 0x4e
    7032:	f8a4 304e 	strhls.w	r3, [r4, #78]	; 0x4e
    7036:	8ee3      	ldrh	r3, [r4, #54]	; 0x36
    7038:	f8b4 104e 	ldrh.w	r1, [r4, #78]	; 0x4e
    703c:	005a      	lsls	r2, r3, #1
    703e:	4291      	cmp	r1, r2
    7040:	bfb8      	it	lt
    7042:	f8a4 204e 	strhlt.w	r2, [r4, #78]	; 0x4e
    7046:	4413      	add	r3, r2
    7048:	f8b4 204e 	ldrh.w	r2, [r4, #78]	; 0x4e
    704c:	4413      	add	r3, r2
    704e:	f8a4 304c 	strh.w	r3, [r4, #76]	; 0x4c
    7052:	7fa3      	ldrb	r3, [r4, #30]
    7054:	f043 0304 	orr.w	r3, r3, #4
    7058:	77a3      	strb	r3, [r4, #30]
    705a:	bd10      	pop	{r4, pc}
    705c:	00006fb5 	.word	0x00006fb5

00007060 <tcp_keepalive>:
    7060:	e92d 41f3 	stmdb	sp!, {r0, r1, r4, r5, r6, r7, r8, lr}
    7064:	4604      	mov	r4, r0
    7066:	6d00      	ldr	r0, [r0, #80]	; 0x50
    7068:	4b13      	ldr	r3, [pc, #76]	; (70b8 <tcp_keepalive+0x58>)
    706a:	3801      	subs	r0, #1
    706c:	4798      	blx	r3
    706e:	2100      	movs	r1, #0
    7070:	4602      	mov	r2, r0
    7072:	4b12      	ldr	r3, [pc, #72]	; (70bc <tcp_keepalive+0x5c>)
    7074:	4620      	mov	r0, r4
    7076:	4798      	blx	r3
    7078:	4605      	mov	r5, r0
    707a:	b1d0      	cbz	r0, 70b2 <tcp_keepalive+0x52>
    707c:	1d26      	adds	r6, r4, #4
    707e:	8903      	ldrh	r3, [r0, #8]
    7080:	6847      	ldr	r7, [r0, #4]
    7082:	f8df 8044 	ldr.w	r8, [pc, #68]	; 70c8 <tcp_keepalive+0x68>
    7086:	9300      	str	r3, [sp, #0]
    7088:	4632      	mov	r2, r6
    708a:	4621      	mov	r1, r4
    708c:	2306      	movs	r3, #6
    708e:	47c0      	blx	r8
    7090:	2100      	movs	r1, #0
    7092:	8238      	strh	r0, [r7, #16]
    7094:	2206      	movs	r2, #6
    7096:	7aa3      	ldrb	r3, [r4, #10]
    7098:	4628      	mov	r0, r5
    709a:	e88d 0006 	stmia.w	sp, {r1, r2}
    709e:	4621      	mov	r1, r4
    70a0:	4632      	mov	r2, r6
    70a2:	4c07      	ldr	r4, [pc, #28]	; (70c0 <tcp_keepalive+0x60>)
    70a4:	47a0      	blx	r4
    70a6:	4b07      	ldr	r3, [pc, #28]	; (70c4 <tcp_keepalive+0x64>)
    70a8:	4628      	mov	r0, r5
    70aa:	b002      	add	sp, #8
    70ac:	e8bd 41f0 	ldmia.w	sp!, {r4, r5, r6, r7, r8, lr}
    70b0:	4718      	bx	r3
    70b2:	b002      	add	sp, #8
    70b4:	e8bd 81f0 	ldmia.w	sp!, {r4, r5, r6, r7, r8, pc}
    70b8:	00003431 	.word	0x00003431
    70bc:	00006719 	.word	0x00006719
    70c0:	00003a81 	.word	0x00003a81
    70c4:	00004785 	.word	0x00004785
    70c8:	000036d5 	.word	0x000036d5

000070cc <tcp_zero_window_probe>:
    70cc:	e92d 41f3 	stmdb	sp!, {r0, r1, r4, r5, r6, r7, r8, lr}
    70d0:	6f05      	ldr	r5, [r0, #112]	; 0x70
    70d2:	4606      	mov	r6, r0
    70d4:	b915      	cbnz	r5, 70dc <tcp_zero_window_probe+0x10>
    70d6:	6ec5      	ldr	r5, [r0, #108]	; 0x6c
    70d8:	2d00      	cmp	r5, #0
    70da:	d048      	beq.n	716e <tcp_zero_window_probe+0xa2>
    70dc:	68eb      	ldr	r3, [r5, #12]
    70de:	8998      	ldrh	r0, [r3, #12]
    70e0:	4b24      	ldr	r3, [pc, #144]	; (7174 <tcp_zero_window_probe+0xa8>)
    70e2:	4798      	blx	r3
    70e4:	f010 0401 	ands.w	r4, r0, #1
    70e8:	bf18      	it	ne
    70ea:	892c      	ldrhne	r4, [r5, #8]
    70ec:	68eb      	ldr	r3, [r5, #12]
    70ee:	bf1c      	itt	ne
    70f0:	fab4 f484 	clzne	r4, r4
    70f4:	0964      	lsrne	r4, r4, #5
    70f6:	685a      	ldr	r2, [r3, #4]
    70f8:	4b1f      	ldr	r3, [pc, #124]	; (7178 <tcp_zero_window_probe+0xac>)
    70fa:	f084 0101 	eor.w	r1, r4, #1
    70fe:	4630      	mov	r0, r6
    7100:	4798      	blx	r3
    7102:	4607      	mov	r7, r0
    7104:	2800      	cmp	r0, #0
    7106:	d032      	beq.n	716e <tcp_zero_window_probe+0xa2>
    7108:	f8d0 8004 	ldr.w	r8, [r0, #4]
    710c:	b324      	cbz	r4, 7158 <tcp_zero_window_probe+0x8c>
    710e:	2011      	movs	r0, #17
    7110:	4b1a      	ldr	r3, [pc, #104]	; (717c <tcp_zero_window_probe+0xb0>)
    7112:	f9b8 400c 	ldrsh.w	r4, [r8, #12]
    7116:	4798      	blx	r3
    7118:	f424 547c 	bic.w	r4, r4, #16128	; 0x3f00
    711c:	4320      	orrs	r0, r4
    711e:	f8a8 000c 	strh.w	r0, [r8, #12]
    7122:	1d34      	adds	r4, r6, #4
    7124:	893b      	ldrh	r3, [r7, #8]
    7126:	9300      	str	r3, [sp, #0]
    7128:	4622      	mov	r2, r4
    712a:	4631      	mov	r1, r6
    712c:	2306      	movs	r3, #6
    712e:	4638      	mov	r0, r7
    7130:	4d13      	ldr	r5, [pc, #76]	; (7180 <tcp_zero_window_probe+0xb4>)
    7132:	47a8      	blx	r5
    7134:	2100      	movs	r1, #0
    7136:	f8a8 0010 	strh.w	r0, [r8, #16]
    713a:	2206      	movs	r2, #6
    713c:	e88d 0006 	stmia.w	sp, {r1, r2}
    7140:	7ab3      	ldrb	r3, [r6, #10]
    7142:	4622      	mov	r2, r4
    7144:	4631      	mov	r1, r6
    7146:	4638      	mov	r0, r7
    7148:	4c0e      	ldr	r4, [pc, #56]	; (7184 <tcp_zero_window_probe+0xb8>)
    714a:	47a0      	blx	r4
    714c:	4b0e      	ldr	r3, [pc, #56]	; (7188 <tcp_zero_window_probe+0xbc>)
    714e:	4638      	mov	r0, r7
    7150:	b002      	add	sp, #8
    7152:	e8bd 41f0 	ldmia.w	sp!, {r4, r5, r6, r7, r8, lr}
    7156:	4718      	bx	r3
    7158:	6868      	ldr	r0, [r5, #4]
    715a:	892a      	ldrh	r2, [r5, #8]
    715c:	8903      	ldrh	r3, [r0, #8]
    715e:	4c0b      	ldr	r4, [pc, #44]	; (718c <tcp_zero_window_probe+0xc0>)
    7160:	1a9b      	subs	r3, r3, r2
    7162:	b29b      	uxth	r3, r3
    7164:	2201      	movs	r2, #1
    7166:	f108 0114 	add.w	r1, r8, #20
    716a:	47a0      	blx	r4
    716c:	e7d9      	b.n	7122 <tcp_zero_window_probe+0x56>
    716e:	b002      	add	sp, #8
    7170:	e8bd 81f0 	ldmia.w	sp!, {r4, r5, r6, r7, r8, pc}
    7174:	0000342b 	.word	0x0000342b
    7178:	00006719 	.word	0x00006719
    717c:	00003425 	.word	0x00003425
    7180:	000036d5 	.word	0x000036d5
    7184:	00003a81 	.word	0x00003a81
    7188:	00004785 	.word	0x00004785
    718c:	00004a31 	.word	0x00004a31

00007190 <sys_timeout>:
    7190:	b570      	push	{r4, r5, r6, lr}
    7192:	4b15      	ldr	r3, [pc, #84]	; (71e8 <sys_timeout+0x58>)
    7194:	4604      	mov	r4, r0
    7196:	200a      	movs	r0, #10
    7198:	460e      	mov	r6, r1
    719a:	4615      	mov	r5, r2
    719c:	4798      	blx	r3
    719e:	b308      	cbz	r0, 71e4 <sys_timeout+0x54>
    71a0:	4912      	ldr	r1, [pc, #72]	; (71ec <sys_timeout+0x5c>)
    71a2:	6086      	str	r6, [r0, #8]
    71a4:	2300      	movs	r3, #0
    71a6:	6003      	str	r3, [r0, #0]
    71a8:	680b      	ldr	r3, [r1, #0]
    71aa:	60c5      	str	r5, [r0, #12]
    71ac:	6044      	str	r4, [r0, #4]
    71ae:	b90b      	cbnz	r3, 71b4 <sys_timeout+0x24>
    71b0:	6008      	str	r0, [r1, #0]
    71b2:	bd70      	pop	{r4, r5, r6, pc}
    71b4:	685a      	ldr	r2, [r3, #4]
    71b6:	4294      	cmp	r4, r2
    71b8:	d207      	bcs.n	71ca <sys_timeout+0x3a>
    71ba:	1b12      	subs	r2, r2, r4
    71bc:	605a      	str	r2, [r3, #4]
    71be:	6003      	str	r3, [r0, #0]
    71c0:	e7f6      	b.n	71b0 <sys_timeout+0x20>
    71c2:	6854      	ldr	r4, [r2, #4]
    71c4:	42a1      	cmp	r1, r4
    71c6:	d30a      	bcc.n	71de <sys_timeout+0x4e>
    71c8:	4613      	mov	r3, r2
    71ca:	685a      	ldr	r2, [r3, #4]
    71cc:	6841      	ldr	r1, [r0, #4]
    71ce:	1a89      	subs	r1, r1, r2
    71d0:	681a      	ldr	r2, [r3, #0]
    71d2:	6041      	str	r1, [r0, #4]
    71d4:	2a00      	cmp	r2, #0
    71d6:	d1f4      	bne.n	71c2 <sys_timeout+0x32>
    71d8:	6002      	str	r2, [r0, #0]
    71da:	6018      	str	r0, [r3, #0]
    71dc:	bd70      	pop	{r4, r5, r6, pc}
    71de:	1a61      	subs	r1, r4, r1
    71e0:	6051      	str	r1, [r2, #4]
    71e2:	e7f9      	b.n	71d8 <sys_timeout+0x48>
    71e4:	bd70      	pop	{r4, r5, r6, pc}
    71e6:	bf00      	nop
    71e8:	00004539 	.word	0x00004539
    71ec:	200080cc 	.word	0x200080cc

000071f0 <tcp_timer_needed>:
    71f0:	4b08      	ldr	r3, [pc, #32]	; (7214 <tcp_timer_needed+0x24>)
    71f2:	685a      	ldr	r2, [r3, #4]
    71f4:	b962      	cbnz	r2, 7210 <tcp_timer_needed+0x20>
    71f6:	4a08      	ldr	r2, [pc, #32]	; (7218 <tcp_timer_needed+0x28>)
    71f8:	6812      	ldr	r2, [r2, #0]
    71fa:	b912      	cbnz	r2, 7202 <tcp_timer_needed+0x12>
    71fc:	4a07      	ldr	r2, [pc, #28]	; (721c <tcp_timer_needed+0x2c>)
    71fe:	6812      	ldr	r2, [r2, #0]
    7200:	b132      	cbz	r2, 7210 <tcp_timer_needed+0x20>
    7202:	2201      	movs	r2, #1
    7204:	605a      	str	r2, [r3, #4]
    7206:	4906      	ldr	r1, [pc, #24]	; (7220 <tcp_timer_needed+0x30>)
    7208:	4b06      	ldr	r3, [pc, #24]	; (7224 <tcp_timer_needed+0x34>)
    720a:	2200      	movs	r2, #0
    720c:	20fa      	movs	r0, #250	; 0xfa
    720e:	4718      	bx	r3
    7210:	4770      	bx	lr
    7212:	bf00      	nop
    7214:	200080cc 	.word	0x200080cc
    7218:	200161c4 	.word	0x200161c4
    721c:	200161d8 	.word	0x200161d8
    7220:	00007229 	.word	0x00007229
    7224:	00007191 	.word	0x00007191

00007228 <tcpip_tcp_timer>:
    7228:	4b09      	ldr	r3, [pc, #36]	; (7250 <tcpip_tcp_timer+0x28>)
    722a:	b510      	push	{r4, lr}
    722c:	4798      	blx	r3
    722e:	4b09      	ldr	r3, [pc, #36]	; (7254 <tcpip_tcp_timer+0x2c>)
    7230:	681b      	ldr	r3, [r3, #0]
    7232:	b913      	cbnz	r3, 723a <tcpip_tcp_timer+0x12>
    7234:	4b08      	ldr	r3, [pc, #32]	; (7258 <tcpip_tcp_timer+0x30>)
    7236:	681b      	ldr	r3, [r3, #0]
    7238:	b133      	cbz	r3, 7248 <tcpip_tcp_timer+0x20>
    723a:	2200      	movs	r2, #0
    723c:	4907      	ldr	r1, [pc, #28]	; (725c <tcpip_tcp_timer+0x34>)
    723e:	4b08      	ldr	r3, [pc, #32]	; (7260 <tcpip_tcp_timer+0x38>)
    7240:	20fa      	movs	r0, #250	; 0xfa
    7242:	e8bd 4010 	ldmia.w	sp!, {r4, lr}
    7246:	4718      	bx	r3
    7248:	4a06      	ldr	r2, [pc, #24]	; (7264 <tcpip_tcp_timer+0x3c>)
    724a:	6053      	str	r3, [r2, #4]
    724c:	bd10      	pop	{r4, pc}
    724e:	bf00      	nop
    7250:	000052a5 	.word	0x000052a5
    7254:	200161c4 	.word	0x200161c4
    7258:	200161d8 	.word	0x200161d8
    725c:	00007229 	.word	0x00007229
    7260:	00007191 	.word	0x00007191
    7264:	200080cc 	.word	0x200080cc

00007268 <sys_timeouts_init>:
    7268:	b510      	push	{r4, lr}
    726a:	4c07      	ldr	r4, [pc, #28]	; (7288 <sys_timeouts_init+0x20>)
    726c:	4907      	ldr	r1, [pc, #28]	; (728c <sys_timeouts_init+0x24>)
    726e:	2200      	movs	r2, #0
    7270:	f44f 707a 	mov.w	r0, #1000	; 0x3e8
    7274:	47a0      	blx	r4
    7276:	4623      	mov	r3, r4
    7278:	2200      	movs	r2, #0
    727a:	4905      	ldr	r1, [pc, #20]	; (7290 <sys_timeouts_init+0x28>)
    727c:	f241 3088 	movw	r0, #5000	; 0x1388
    7280:	e8bd 4010 	ldmia.w	sp!, {r4, lr}
    7284:	4718      	bx	r3
    7286:	bf00      	nop
    7288:	00007191 	.word	0x00007191
    728c:	000072b9 	.word	0x000072b9
    7290:	00007295 	.word	0x00007295

00007294 <arp_timer>:
    7294:	b510      	push	{r4, lr}
    7296:	4b05      	ldr	r3, [pc, #20]	; (72ac <arp_timer+0x18>)
    7298:	4798      	blx	r3
    729a:	2200      	movs	r2, #0
    729c:	4904      	ldr	r1, [pc, #16]	; (72b0 <arp_timer+0x1c>)
    729e:	4b05      	ldr	r3, [pc, #20]	; (72b4 <arp_timer+0x20>)
    72a0:	f241 3088 	movw	r0, #5000	; 0x1388
    72a4:	e8bd 4010 	ldmia.w	sp!, {r4, lr}
    72a8:	4718      	bx	r3
    72aa:	bf00      	nop
    72ac:	00007871 	.word	0x00007871
    72b0:	00007295 	.word	0x00007295
    72b4:	00007191 	.word	0x00007191

000072b8 <ip_reass_timer>:
    72b8:	b510      	push	{r4, lr}
    72ba:	4b05      	ldr	r3, [pc, #20]	; (72d0 <ip_reass_timer+0x18>)
    72bc:	4798      	blx	r3
    72be:	2200      	movs	r2, #0
    72c0:	4904      	ldr	r1, [pc, #16]	; (72d4 <ip_reass_timer+0x1c>)
    72c2:	4b05      	ldr	r3, [pc, #20]	; (72d8 <ip_reass_timer+0x20>)
    72c4:	f44f 707a 	mov.w	r0, #1000	; 0x3e8
    72c8:	e8bd 4010 	ldmia.w	sp!, {r4, lr}
    72cc:	4718      	bx	r3
    72ce:	bf00      	nop
    72d0:	00003dc5 	.word	0x00003dc5
    72d4:	000072b9 	.word	0x000072b9
    72d8:	00007191 	.word	0x00007191

000072dc <sys_untimeout>:
    72dc:	b470      	push	{r4, r5, r6}
    72de:	4c10      	ldr	r4, [pc, #64]	; (7320 <sys_untimeout+0x44>)
    72e0:	6823      	ldr	r3, [r4, #0]
    72e2:	b1db      	cbz	r3, 731c <sys_untimeout+0x40>
    72e4:	2500      	movs	r5, #0
    72e6:	689a      	ldr	r2, [r3, #8]
    72e8:	4282      	cmp	r2, r0
    72ea:	681a      	ldr	r2, [r3, #0]
    72ec:	d113      	bne.n	7316 <sys_untimeout+0x3a>
    72ee:	68de      	ldr	r6, [r3, #12]
    72f0:	428e      	cmp	r6, r1
    72f2:	d110      	bne.n	7316 <sys_untimeout+0x3a>
    72f4:	b96d      	cbnz	r5, 7312 <sys_untimeout+0x36>
    72f6:	6022      	str	r2, [r4, #0]
    72f8:	681a      	ldr	r2, [r3, #0]
    72fa:	b11a      	cbz	r2, 7304 <sys_untimeout+0x28>
    72fc:	6851      	ldr	r1, [r2, #4]
    72fe:	6858      	ldr	r0, [r3, #4]
    7300:	4401      	add	r1, r0
    7302:	6051      	str	r1, [r2, #4]
    7304:	4619      	mov	r1, r3
    7306:	200a      	movs	r0, #10
    7308:	4b06      	ldr	r3, [pc, #24]	; (7324 <sys_untimeout+0x48>)
    730a:	bc70      	pop	{r4, r5, r6}
    730c:	4718      	bx	r3
    730e:	4613      	mov	r3, r2
    7310:	e7e9      	b.n	72e6 <sys_untimeout+0xa>
    7312:	602a      	str	r2, [r5, #0]
    7314:	e7f0      	b.n	72f8 <sys_untimeout+0x1c>
    7316:	461d      	mov	r5, r3
    7318:	2a00      	cmp	r2, #0
    731a:	d1f8      	bne.n	730e <sys_untimeout+0x32>
    731c:	bc70      	pop	{r4, r5, r6}
    731e:	4770      	bx	lr
    7320:	200080cc 	.word	0x200080cc
    7324:	00004559 	.word	0x00004559

00007328 <sys_timeouts_mbox_fetch>:
    7328:	e92d 47f0 	stmdb	sp!, {r4, r5, r6, r7, r8, r9, sl, lr}
    732c:	4c16      	ldr	r4, [pc, #88]	; (7388 <sys_timeouts_mbox_fetch+0x60>)
    732e:	f8df 805c 	ldr.w	r8, [pc, #92]	; 738c <sys_timeouts_mbox_fetch+0x64>
    7332:	4605      	mov	r5, r0
    7334:	460e      	mov	r6, r1
    7336:	4627      	mov	r7, r4
    7338:	6822      	ldr	r2, [r4, #0]
    733a:	b92a      	cbnz	r2, 7348 <sys_timeouts_mbox_fetch+0x20>
    733c:	4631      	mov	r1, r6
    733e:	4628      	mov	r0, r5
    7340:	4b12      	ldr	r3, [pc, #72]	; (738c <sys_timeouts_mbox_fetch+0x64>)
    7342:	e8bd 47f0 	ldmia.w	sp!, {r4, r5, r6, r7, r8, r9, sl, lr}
    7346:	4718      	bx	r3
    7348:	6852      	ldr	r2, [r2, #4]
    734a:	b97a      	cbnz	r2, 736c <sys_timeouts_mbox_fetch+0x44>
    734c:	6839      	ldr	r1, [r7, #0]
    734e:	680b      	ldr	r3, [r1, #0]
    7350:	f8d1 9008 	ldr.w	r9, [r1, #8]
    7354:	603b      	str	r3, [r7, #0]
    7356:	200a      	movs	r0, #10
    7358:	4b0d      	ldr	r3, [pc, #52]	; (7390 <sys_timeouts_mbox_fetch+0x68>)
    735a:	f8d1 a00c 	ldr.w	sl, [r1, #12]
    735e:	4798      	blx	r3
    7360:	f1b9 0f00 	cmp.w	r9, #0
    7364:	d0e8      	beq.n	7338 <sys_timeouts_mbox_fetch+0x10>
    7366:	4650      	mov	r0, sl
    7368:	47c8      	blx	r9
    736a:	e7e5      	b.n	7338 <sys_timeouts_mbox_fetch+0x10>
    736c:	4631      	mov	r1, r6
    736e:	4628      	mov	r0, r5
    7370:	47c0      	blx	r8
    7372:	1c43      	adds	r3, r0, #1
    7374:	d0ea      	beq.n	734c <sys_timeouts_mbox_fetch+0x24>
    7376:	6822      	ldr	r2, [r4, #0]
    7378:	6853      	ldr	r3, [r2, #4]
    737a:	4298      	cmp	r0, r3
    737c:	bf34      	ite	cc
    737e:	1a1b      	subcc	r3, r3, r0
    7380:	2300      	movcs	r3, #0
    7382:	6053      	str	r3, [r2, #4]
    7384:	e8bd 87f0 	ldmia.w	sp!, {r4, r5, r6, r7, r8, r9, sl, pc}
    7388:	200080cc 	.word	0x200080cc
    738c:	00001e29 	.word	0x00001e29
    7390:	00004559 	.word	0x00004559

00007394 <udp_init>:
    7394:	4770      	bx	lr
	...

00007398 <udp_input>:
    7398:	e92d 4ff0 	stmdb	sp!, {r4, r5, r6, r7, r8, r9, sl, fp, lr}
    739c:	f8d0 8004 	ldr.w	r8, [r0, #4]
    73a0:	8903      	ldrh	r3, [r0, #8]
    73a2:	468a      	mov	sl, r1
    73a4:	f898 1000 	ldrb.w	r1, [r8]
    73a8:	f001 010f 	and.w	r1, r1, #15
    73ac:	1c8a      	adds	r2, r1, #2
    73ae:	ebb3 0f82 	cmp.w	r3, r2, lsl #2
    73b2:	b085      	sub	sp, #20
    73b4:	4605      	mov	r5, r0
    73b6:	db05      	blt.n	73c4 <udp_input+0x2c>
    73b8:	0089      	lsls	r1, r1, #2
    73ba:	4249      	negs	r1, r1
    73bc:	4b47      	ldr	r3, [pc, #284]	; (74dc <udp_input+0x144>)
    73be:	4798      	blx	r3
    73c0:	4604      	mov	r4, r0
    73c2:	b128      	cbz	r0, 73d0 <udp_input+0x38>
    73c4:	4b46      	ldr	r3, [pc, #280]	; (74e0 <udp_input+0x148>)
    73c6:	4628      	mov	r0, r5
    73c8:	b005      	add	sp, #20
    73ca:	e8bd 4ff0 	ldmia.w	sp!, {r4, r5, r6, r7, r8, r9, sl, fp, lr}
    73ce:	4718      	bx	r3
    73d0:	f8df b120 	ldr.w	fp, [pc, #288]	; 74f4 <udp_input+0x15c>
    73d4:	4b43      	ldr	r3, [pc, #268]	; (74e4 <udp_input+0x14c>)
    73d6:	f8db 0000 	ldr.w	r0, [fp]
    73da:	686e      	ldr	r6, [r5, #4]
    73dc:	4651      	mov	r1, sl
    73de:	4798      	blx	r3
    73e0:	4b41      	ldr	r3, [pc, #260]	; (74e8 <udp_input+0x150>)
    73e2:	9303      	str	r3, [sp, #12]
    73e4:	4607      	mov	r7, r0
    73e6:	8830      	ldrh	r0, [r6, #0]
    73e8:	4798      	blx	r3
    73ea:	9b03      	ldr	r3, [sp, #12]
    73ec:	4681      	mov	r9, r0
    73ee:	8870      	ldrh	r0, [r6, #2]
    73f0:	4798      	blx	r3
    73f2:	4b3e      	ldr	r3, [pc, #248]	; (74ec <udp_input+0x154>)
    73f4:	f8db 1000 	ldr.w	r1, [fp]
    73f8:	681b      	ldr	r3, [r3, #0]
    73fa:	9303      	str	r3, [sp, #12]
    73fc:	4b3c      	ldr	r3, [pc, #240]	; (74f0 <udp_input+0x158>)
    73fe:	f8d3 e000 	ldr.w	lr, [r3]
    7402:	9b03      	ldr	r3, [sp, #12]
    7404:	4684      	mov	ip, r0
    7406:	46a3      	mov	fp, r4
    7408:	b92b      	cbnz	r3, 7416 <udp_input+0x7e>
    740a:	bb24      	cbnz	r4, 7456 <udp_input+0xbe>
    740c:	f8da 3004 	ldr.w	r3, [sl, #4]
    7410:	4299      	cmp	r1, r3
    7412:	d1d7      	bne.n	73c4 <udp_input+0x2c>
    7414:	e01f      	b.n	7456 <udp_input+0xbe>
    7416:	8a5a      	ldrh	r2, [r3, #18]
    7418:	4562      	cmp	r2, ip
    741a:	d13f      	bne.n	749c <udp_input+0x104>
    741c:	681a      	ldr	r2, [r3, #0]
    741e:	b907      	cbnz	r7, 7422 <udp_input+0x8a>
    7420:	b152      	cbz	r2, 7438 <udp_input+0xa0>
    7422:	428a      	cmp	r2, r1
    7424:	d008      	beq.n	7438 <udp_input+0xa0>
    7426:	2f00      	cmp	r7, #0
    7428:	d038      	beq.n	749c <udp_input+0x104>
    742a:	b12a      	cbz	r2, 7438 <udp_input+0xa0>
    742c:	404a      	eors	r2, r1
    742e:	4610      	mov	r0, r2
    7430:	f8da 2008 	ldr.w	r2, [sl, #8]
    7434:	4210      	tst	r0, r2
    7436:	d131      	bne.n	749c <udp_input+0x104>
    7438:	b924      	cbnz	r4, 7444 <udp_input+0xac>
    743a:	7c1a      	ldrb	r2, [r3, #16]
    743c:	f012 0f04 	tst.w	r2, #4
    7440:	bf08      	it	eq
    7442:	461c      	moveq	r4, r3
    7444:	8a9a      	ldrh	r2, [r3, #20]
    7446:	454a      	cmp	r2, r9
    7448:	d128      	bne.n	749c <udp_input+0x104>
    744a:	685a      	ldr	r2, [r3, #4]
    744c:	bb22      	cbnz	r2, 7498 <udp_input+0x100>
    744e:	f1bb 0f00 	cmp.w	fp, #0
    7452:	d126      	bne.n	74a2 <udp_input+0x10a>
    7454:	461c      	mov	r4, r3
    7456:	88f3      	ldrh	r3, [r6, #6]
    7458:	b14b      	cbz	r3, 746e <udp_input+0xd6>
    745a:	892b      	ldrh	r3, [r5, #8]
    745c:	9300      	str	r3, [sp, #0]
    745e:	4a25      	ldr	r2, [pc, #148]	; (74f4 <udp_input+0x15c>)
    7460:	4923      	ldr	r1, [pc, #140]	; (74f0 <udp_input+0x158>)
    7462:	4e25      	ldr	r6, [pc, #148]	; (74f8 <udp_input+0x160>)
    7464:	2311      	movs	r3, #17
    7466:	4628      	mov	r0, r5
    7468:	47b0      	blx	r6
    746a:	2800      	cmp	r0, #0
    746c:	d1aa      	bne.n	73c4 <udp_input+0x2c>
    746e:	f06f 0107 	mvn.w	r1, #7
    7472:	4628      	mov	r0, r5
    7474:	4e19      	ldr	r6, [pc, #100]	; (74dc <udp_input+0x144>)
    7476:	47b0      	blx	r6
    7478:	2800      	cmp	r0, #0
    747a:	d1a3      	bne.n	73c4 <udp_input+0x2c>
    747c:	b1cc      	cbz	r4, 74b2 <udp_input+0x11a>
    747e:	69a6      	ldr	r6, [r4, #24]
    7480:	2e00      	cmp	r6, #0
    7482:	d09f      	beq.n	73c4 <udp_input+0x2c>
    7484:	f8cd 9000 	str.w	r9, [sp]
    7488:	4b19      	ldr	r3, [pc, #100]	; (74f0 <udp_input+0x158>)
    748a:	69e0      	ldr	r0, [r4, #28]
    748c:	462a      	mov	r2, r5
    748e:	4621      	mov	r1, r4
    7490:	47b0      	blx	r6
    7492:	b005      	add	sp, #20
    7494:	e8bd 8ff0 	ldmia.w	sp!, {r4, r5, r6, r7, r8, r9, sl, fp, pc}
    7498:	4572      	cmp	r2, lr
    749a:	d0d8      	beq.n	744e <udp_input+0xb6>
    749c:	469b      	mov	fp, r3
    749e:	68db      	ldr	r3, [r3, #12]
    74a0:	e7b2      	b.n	7408 <udp_input+0x70>
    74a2:	68da      	ldr	r2, [r3, #12]
    74a4:	f8cb 200c 	str.w	r2, [fp, #12]
    74a8:	9a03      	ldr	r2, [sp, #12]
    74aa:	60da      	str	r2, [r3, #12]
    74ac:	4a0f      	ldr	r2, [pc, #60]	; (74ec <udp_input+0x154>)
    74ae:	6013      	str	r3, [r2, #0]
    74b0:	e7d0      	b.n	7454 <udp_input+0xbc>
    74b2:	2f00      	cmp	r7, #0
    74b4:	d186      	bne.n	73c4 <udp_input+0x2c>
    74b6:	4b0f      	ldr	r3, [pc, #60]	; (74f4 <udp_input+0x15c>)
    74b8:	681b      	ldr	r3, [r3, #0]
    74ba:	f003 03f0 	and.w	r3, r3, #240	; 0xf0
    74be:	2be0      	cmp	r3, #224	; 0xe0
    74c0:	d080      	beq.n	73c4 <udp_input+0x2c>
    74c2:	f898 1000 	ldrb.w	r1, [r8]
    74c6:	f001 010f 	and.w	r1, r1, #15
    74ca:	3102      	adds	r1, #2
    74cc:	0089      	lsls	r1, r1, #2
    74ce:	4628      	mov	r0, r5
    74d0:	47b0      	blx	r6
    74d2:	2103      	movs	r1, #3
    74d4:	4628      	mov	r0, r5
    74d6:	4b09      	ldr	r3, [pc, #36]	; (74fc <udp_input+0x164>)
    74d8:	4798      	blx	r3
    74da:	e773      	b.n	73c4 <udp_input+0x2c>
    74dc:	0000472b 	.word	0x0000472b
    74e0:	00004785 	.word	0x00004785
    74e4:	00003ac1 	.word	0x00003ac1
    74e8:	0000342b 	.word	0x0000342b
    74ec:	200161e0 	.word	0x200161e0
    74f0:	20012990 	.word	0x20012990
    74f4:	20012998 	.word	0x20012998
    74f8:	000036d5 	.word	0x000036d5
    74fc:	00003655 	.word	0x00003655

00007500 <udp_bind>:
    7500:	b5f0      	push	{r4, r5, r6, r7, lr}
    7502:	4e23      	ldr	r6, [pc, #140]	; (7590 <udp_bind+0x90>)
    7504:	6837      	ldr	r7, [r6, #0]
    7506:	2300      	movs	r3, #0
    7508:	463c      	mov	r4, r7
    750a:	b9d4      	cbnz	r4, 7542 <udp_bind+0x42>
    750c:	b101      	cbz	r1, 7510 <udp_bind+0x10>
    750e:	6809      	ldr	r1, [r1, #0]
    7510:	6001      	str	r1, [r0, #0]
    7512:	b982      	cbnz	r2, 7536 <udp_bind+0x36>
    7514:	4c1f      	ldr	r4, [pc, #124]	; (7594 <udp_bind+0x94>)
    7516:	8821      	ldrh	r1, [r4, #0]
    7518:	f44f 4580 	mov.w	r5, #16384	; 0x4000
    751c:	f64f 7cff 	movw	ip, #65535	; 0xffff
    7520:	4561      	cmp	r1, ip
    7522:	bf1a      	itte	ne
    7524:	1c4a      	addne	r2, r1, #1
    7526:	b292      	uxthne	r2, r2
    7528:	f44f 4240 	moveq.w	r2, #49152	; 0xc000
    752c:	46be      	mov	lr, r7
    752e:	f1be 0f00 	cmp.w	lr, #0
    7532:	d11f      	bne.n	7574 <udp_bind+0x74>
    7534:	8022      	strh	r2, [r4, #0]
    7536:	8242      	strh	r2, [r0, #18]
    7538:	b90b      	cbnz	r3, 753e <udp_bind+0x3e>
    753a:	60c7      	str	r7, [r0, #12]
    753c:	6030      	str	r0, [r6, #0]
    753e:	2000      	movs	r0, #0
    7540:	bdf0      	pop	{r4, r5, r6, r7, pc}
    7542:	4284      	cmp	r4, r0
    7544:	d014      	beq.n	7570 <udp_bind+0x70>
    7546:	8a65      	ldrh	r5, [r4, #18]
    7548:	4295      	cmp	r5, r2
    754a:	d10f      	bne.n	756c <udp_bind+0x6c>
    754c:	b914      	cbnz	r4, 7554 <udp_bind+0x54>
    754e:	f06f 0007 	mvn.w	r0, #7
    7552:	bdf0      	pop	{r4, r5, r6, r7, pc}
    7554:	f8d4 e000 	ldr.w	lr, [r4]
    7558:	f1be 0f00 	cmp.w	lr, #0
    755c:	d0f7      	beq.n	754e <udp_bind+0x4e>
    755e:	2900      	cmp	r1, #0
    7560:	d0f5      	beq.n	754e <udp_bind+0x4e>
    7562:	680d      	ldr	r5, [r1, #0]
    7564:	2d00      	cmp	r5, #0
    7566:	d0f2      	beq.n	754e <udp_bind+0x4e>
    7568:	45ae      	cmp	lr, r5
    756a:	d0f0      	beq.n	754e <udp_bind+0x4e>
    756c:	68e4      	ldr	r4, [r4, #12]
    756e:	e7cc      	b.n	750a <udp_bind+0xa>
    7570:	2301      	movs	r3, #1
    7572:	e7fb      	b.n	756c <udp_bind+0x6c>
    7574:	f8be 1012 	ldrh.w	r1, [lr, #18]
    7578:	4291      	cmp	r1, r2
    757a:	d105      	bne.n	7588 <udp_bind+0x88>
    757c:	3d01      	subs	r5, #1
    757e:	b2ad      	uxth	r5, r5
    7580:	2d00      	cmp	r5, #0
    7582:	d1cd      	bne.n	7520 <udp_bind+0x20>
    7584:	8022      	strh	r2, [r4, #0]
    7586:	e7e2      	b.n	754e <udp_bind+0x4e>
    7588:	f8de e00c 	ldr.w	lr, [lr, #12]
    758c:	e7cf      	b.n	752e <udp_bind+0x2e>
    758e:	bf00      	nop
    7590:	200161e0 	.word	0x200161e0
    7594:	20000044 	.word	0x20000044

00007598 <udp_sendto_if>:
    7598:	e92d 4ff0 	stmdb	sp!, {r4, r5, r6, r7, r8, r9, sl, fp, lr}
    759c:	4691      	mov	r9, r2
    759e:	b085      	sub	sp, #20
    75a0:	8a42      	ldrh	r2, [r0, #18]
    75a2:	f8dd 8038 	ldr.w	r8, [sp, #56]	; 0x38
    75a6:	4605      	mov	r5, r0
    75a8:	460f      	mov	r7, r1
    75aa:	469a      	mov	sl, r3
    75ac:	2a00      	cmp	r2, #0
    75ae:	d040      	beq.n	7632 <udp_sendto_if+0x9a>
    75b0:	2108      	movs	r1, #8
    75b2:	4638      	mov	r0, r7
    75b4:	4b33      	ldr	r3, [pc, #204]	; (7684 <udp_sendto_if+0xec>)
    75b6:	4798      	blx	r3
    75b8:	2800      	cmp	r0, #0
    75ba:	d144      	bne.n	7646 <udp_sendto_if+0xae>
    75bc:	463c      	mov	r4, r7
    75be:	f8df b0dc 	ldr.w	fp, [pc, #220]	; 769c <udp_sendto_if+0x104>
    75c2:	8a68      	ldrh	r0, [r5, #18]
    75c4:	6866      	ldr	r6, [r4, #4]
    75c6:	47d8      	blx	fp
    75c8:	8030      	strh	r0, [r6, #0]
    75ca:	4650      	mov	r0, sl
    75cc:	47d8      	blx	fp
    75ce:	682a      	ldr	r2, [r5, #0]
    75d0:	8070      	strh	r0, [r6, #2]
    75d2:	2300      	movs	r3, #0
    75d4:	71b3      	strb	r3, [r6, #6]
    75d6:	71f3      	strb	r3, [r6, #7]
    75d8:	465b      	mov	r3, fp
    75da:	2a00      	cmp	r2, #0
    75dc:	d141      	bne.n	7662 <udp_sendto_if+0xca>
    75de:	f108 0a04 	add.w	sl, r8, #4
    75e2:	8920      	ldrh	r0, [r4, #8]
    75e4:	4798      	blx	r3
    75e6:	80b0      	strh	r0, [r6, #4]
    75e8:	7c2b      	ldrb	r3, [r5, #16]
    75ea:	07db      	lsls	r3, r3, #31
    75ec:	d40e      	bmi.n	760c <udp_sendto_if+0x74>
    75ee:	8923      	ldrh	r3, [r4, #8]
    75f0:	9300      	str	r3, [sp, #0]
    75f2:	464a      	mov	r2, r9
    75f4:	2311      	movs	r3, #17
    75f6:	4651      	mov	r1, sl
    75f8:	4620      	mov	r0, r4
    75fa:	f8df b0a4 	ldr.w	fp, [pc, #164]	; 76a0 <udp_sendto_if+0x108>
    75fe:	47d8      	blx	fp
    7600:	f64f 73ff 	movw	r3, #65535	; 0xffff
    7604:	2800      	cmp	r0, #0
    7606:	bf08      	it	eq
    7608:	4618      	moveq	r0, r3
    760a:	80f0      	strh	r0, [r6, #6]
    760c:	2211      	movs	r2, #17
    760e:	7aab      	ldrb	r3, [r5, #10]
    7610:	f8cd 8008 	str.w	r8, [sp, #8]
    7614:	9201      	str	r2, [sp, #4]
    7616:	7a6a      	ldrb	r2, [r5, #9]
    7618:	9200      	str	r2, [sp, #0]
    761a:	4651      	mov	r1, sl
    761c:	464a      	mov	r2, r9
    761e:	4620      	mov	r0, r4
    7620:	4d19      	ldr	r5, [pc, #100]	; (7688 <udp_sendto_if+0xf0>)
    7622:	47a8      	blx	r5
    7624:	42bc      	cmp	r4, r7
    7626:	4606      	mov	r6, r0
    7628:	d009      	beq.n	763e <udp_sendto_if+0xa6>
    762a:	4620      	mov	r0, r4
    762c:	4b17      	ldr	r3, [pc, #92]	; (768c <udp_sendto_if+0xf4>)
    762e:	4798      	blx	r3
    7630:	e005      	b.n	763e <udp_sendto_if+0xa6>
    7632:	4601      	mov	r1, r0
    7634:	4b16      	ldr	r3, [pc, #88]	; (7690 <udp_sendto_if+0xf8>)
    7636:	4798      	blx	r3
    7638:	4606      	mov	r6, r0
    763a:	2800      	cmp	r0, #0
    763c:	d0b8      	beq.n	75b0 <udp_sendto_if+0x18>
    763e:	4630      	mov	r0, r6
    7640:	b005      	add	sp, #20
    7642:	e8bd 8ff0 	ldmia.w	sp!, {r4, r5, r6, r7, r8, r9, sl, fp, pc}
    7646:	2200      	movs	r2, #0
    7648:	2108      	movs	r1, #8
    764a:	2001      	movs	r0, #1
    764c:	4b11      	ldr	r3, [pc, #68]	; (7694 <udp_sendto_if+0xfc>)
    764e:	4798      	blx	r3
    7650:	4604      	mov	r4, r0
    7652:	b1a0      	cbz	r0, 767e <udp_sendto_if+0xe6>
    7654:	893b      	ldrh	r3, [r7, #8]
    7656:	2b00      	cmp	r3, #0
    7658:	d0b1      	beq.n	75be <udp_sendto_if+0x26>
    765a:	4639      	mov	r1, r7
    765c:	4b0e      	ldr	r3, [pc, #56]	; (7698 <udp_sendto_if+0x100>)
    765e:	4798      	blx	r3
    7660:	e7ad      	b.n	75be <udp_sendto_if+0x26>
    7662:	f8d8 1004 	ldr.w	r1, [r8, #4]
    7666:	428a      	cmp	r2, r1
    7668:	d007      	beq.n	767a <udp_sendto_if+0xe2>
    766a:	42bc      	cmp	r4, r7
    766c:	d002      	beq.n	7674 <udp_sendto_if+0xdc>
    766e:	4620      	mov	r0, r4
    7670:	4b06      	ldr	r3, [pc, #24]	; (768c <udp_sendto_if+0xf4>)
    7672:	4798      	blx	r3
    7674:	f06f 0605 	mvn.w	r6, #5
    7678:	e7e1      	b.n	763e <udp_sendto_if+0xa6>
    767a:	46aa      	mov	sl, r5
    767c:	e7b1      	b.n	75e2 <udp_sendto_if+0x4a>
    767e:	f04f 36ff 	mov.w	r6, #4294967295
    7682:	e7dc      	b.n	763e <udp_sendto_if+0xa6>
    7684:	0000472b 	.word	0x0000472b
    7688:	00003985 	.word	0x00003985
    768c:	00004785 	.word	0x00004785
    7690:	00007501 	.word	0x00007501
    7694:	000047dd 	.word	0x000047dd
    7698:	00004981 	.word	0x00004981
    769c:	00003425 	.word	0x00003425
    76a0:	000036d5 	.word	0x000036d5

000076a4 <udp_sendto>:
    76a4:	b5f7      	push	{r0, r1, r2, r4, r5, r6, r7, lr}
    76a6:	4605      	mov	r5, r0
    76a8:	461f      	mov	r7, r3
    76aa:	4610      	mov	r0, r2
    76ac:	4b08      	ldr	r3, [pc, #32]	; (76d0 <udp_sendto+0x2c>)
    76ae:	460e      	mov	r6, r1
    76b0:	4614      	mov	r4, r2
    76b2:	4798      	blx	r3
    76b4:	b140      	cbz	r0, 76c8 <udp_sendto+0x24>
    76b6:	9000      	str	r0, [sp, #0]
    76b8:	4622      	mov	r2, r4
    76ba:	463b      	mov	r3, r7
    76bc:	4631      	mov	r1, r6
    76be:	4628      	mov	r0, r5
    76c0:	4c04      	ldr	r4, [pc, #16]	; (76d4 <udp_sendto+0x30>)
    76c2:	47a0      	blx	r4
    76c4:	b003      	add	sp, #12
    76c6:	bdf0      	pop	{r4, r5, r6, r7, pc}
    76c8:	f06f 0003 	mvn.w	r0, #3
    76cc:	e7fa      	b.n	76c4 <udp_sendto+0x20>
    76ce:	bf00      	nop
    76d0:	000037c1 	.word	0x000037c1
    76d4:	00007599 	.word	0x00007599

000076d8 <udp_send>:
    76d8:	b410      	push	{r4}
    76da:	4c04      	ldr	r4, [pc, #16]	; (76ec <udp_send+0x14>)
    76dc:	8a83      	ldrh	r3, [r0, #20]
    76de:	4602      	mov	r2, r0
    76e0:	46a4      	mov	ip, r4
    76e2:	3204      	adds	r2, #4
    76e4:	f85d 4b04 	ldr.w	r4, [sp], #4
    76e8:	4760      	bx	ip
    76ea:	bf00      	nop
    76ec:	000076a5 	.word	0x000076a5

000076f0 <udp_recv>:
    76f0:	6181      	str	r1, [r0, #24]
    76f2:	61c2      	str	r2, [r0, #28]
    76f4:	4770      	bx	lr
	...

000076f8 <udp_remove>:
    76f8:	4a09      	ldr	r2, [pc, #36]	; (7720 <udp_remove+0x28>)
    76fa:	6813      	ldr	r3, [r2, #0]
    76fc:	4283      	cmp	r3, r0
    76fe:	4601      	mov	r1, r0
    7700:	d10b      	bne.n	771a <udp_remove+0x22>
    7702:	68c3      	ldr	r3, [r0, #12]
    7704:	6013      	str	r3, [r2, #0]
    7706:	2000      	movs	r0, #0
    7708:	4b06      	ldr	r3, [pc, #24]	; (7724 <udp_remove+0x2c>)
    770a:	4718      	bx	r3
    770c:	68da      	ldr	r2, [r3, #12]
    770e:	b11a      	cbz	r2, 7718 <udp_remove+0x20>
    7710:	4291      	cmp	r1, r2
    7712:	bf04      	itt	eq
    7714:	68ca      	ldreq	r2, [r1, #12]
    7716:	60da      	streq	r2, [r3, #12]
    7718:	68db      	ldr	r3, [r3, #12]
    771a:	2b00      	cmp	r3, #0
    771c:	d1f6      	bne.n	770c <udp_remove+0x14>
    771e:	e7f2      	b.n	7706 <udp_remove+0xe>
    7720:	200161e0 	.word	0x200161e0
    7724:	00004559 	.word	0x00004559

00007728 <udp_new>:
    7728:	b510      	push	{r4, lr}
    772a:	2000      	movs	r0, #0
    772c:	4b05      	ldr	r3, [pc, #20]	; (7744 <udp_new+0x1c>)
    772e:	4798      	blx	r3
    7730:	4604      	mov	r4, r0
    7732:	b128      	cbz	r0, 7740 <udp_new+0x18>
    7734:	4b04      	ldr	r3, [pc, #16]	; (7748 <udp_new+0x20>)
    7736:	2220      	movs	r2, #32
    7738:	2100      	movs	r1, #0
    773a:	4798      	blx	r3
    773c:	23ff      	movs	r3, #255	; 0xff
    773e:	72a3      	strb	r3, [r4, #10]
    7740:	4620      	mov	r0, r4
    7742:	bd10      	pop	{r4, pc}
    7744:	00004539 	.word	0x00004539
    7748:	0000a8a5 	.word	0x0000a8a5

0000774c <etharp_free_entry>:
    774c:	b570      	push	{r4, r5, r6, lr}
    774e:	2614      	movs	r6, #20
    7750:	4c07      	ldr	r4, [pc, #28]	; (7770 <etharp_free_entry+0x24>)
    7752:	4346      	muls	r6, r0
    7754:	4605      	mov	r5, r0
    7756:	59a0      	ldr	r0, [r4, r6]
    7758:	b118      	cbz	r0, 7762 <etharp_free_entry+0x16>
    775a:	4b06      	ldr	r3, [pc, #24]	; (7774 <etharp_free_entry+0x28>)
    775c:	4798      	blx	r3
    775e:	2300      	movs	r3, #0
    7760:	51a3      	str	r3, [r4, r6]
    7762:	2314      	movs	r3, #20
    7764:	fb03 4405 	mla	r4, r3, r5, r4
    7768:	2300      	movs	r3, #0
    776a:	74a3      	strb	r3, [r4, #18]
    776c:	bd70      	pop	{r4, r5, r6, pc}
    776e:	bf00      	nop
    7770:	200080d4 	.word	0x200080d4
    7774:	00004785 	.word	0x00004785

00007778 <etharp_find_entry>:
    7778:	e92d 4ff7 	stmdb	sp!, {r0, r1, r2, r4, r5, r6, r7, r8, r9, sl, fp, lr}
    777c:	4b31      	ldr	r3, [pc, #196]	; (7844 <etharp_find_entry+0xcc>)
    777e:	9101      	str	r1, [sp, #4]
    7780:	220a      	movs	r2, #10
    7782:	4605      	mov	r5, r0
    7784:	2000      	movs	r0, #0
    7786:	4681      	mov	r9, r0
    7788:	4684      	mov	ip, r0
    778a:	4683      	mov	fp, r0
    778c:	4614      	mov	r4, r2
    778e:	4696      	mov	lr, r2
    7790:	4616      	mov	r6, r2
    7792:	4698      	mov	r8, r3
    7794:	2c0a      	cmp	r4, #10
    7796:	7c9f      	ldrb	r7, [r3, #18]
    7798:	d110      	bne.n	77bc <etharp_find_entry+0x44>
    779a:	b98f      	cbnz	r7, 77c0 <etharp_find_entry+0x48>
    779c:	b244      	sxtb	r4, r0
    779e:	3001      	adds	r0, #1
    77a0:	280a      	cmp	r0, #10
    77a2:	f103 0314 	add.w	r3, r3, #20
    77a6:	d1f5      	bne.n	7794 <etharp_find_entry+0x1c>
    77a8:	9b01      	ldr	r3, [sp, #4]
    77aa:	0799      	lsls	r1, r3, #30
    77ac:	d403      	bmi.n	77b6 <etharp_find_entry+0x3e>
    77ae:	2c0a      	cmp	r4, #10
    77b0:	d11c      	bne.n	77ec <etharp_find_entry+0x74>
    77b2:	07db      	lsls	r3, r3, #31
    77b4:	d429      	bmi.n	780a <etharp_find_entry+0x92>
    77b6:	f04f 30ff 	mov.w	r0, #4294967295
    77ba:	e009      	b.n	77d0 <etharp_find_entry+0x58>
    77bc:	2f00      	cmp	r7, #0
    77be:	d0ee      	beq.n	779e <etharp_find_entry+0x26>
    77c0:	2d00      	cmp	r5, #0
    77c2:	d033      	beq.n	782c <etharp_find_entry+0xb4>
    77c4:	6829      	ldr	r1, [r5, #0]
    77c6:	468a      	mov	sl, r1
    77c8:	6859      	ldr	r1, [r3, #4]
    77ca:	458a      	cmp	sl, r1
    77cc:	d12e      	bne.n	782c <etharp_find_entry+0xb4>
    77ce:	b240      	sxtb	r0, r0
    77d0:	b003      	add	sp, #12
    77d2:	e8bd 8ff0 	ldmia.w	sp!, {r4, r5, r6, r7, r8, r9, sl, fp, pc}
    77d6:	45da      	cmp	sl, fp
    77d8:	d3e1      	bcc.n	779e <etharp_find_entry+0x26>
    77da:	b246      	sxtb	r6, r0
    77dc:	46d3      	mov	fp, sl
    77de:	e7de      	b.n	779e <etharp_find_entry+0x26>
    77e0:	45e2      	cmp	sl, ip
    77e2:	bf24      	itt	cs
    77e4:	fa4f fe80 	sxtbcs.w	lr, r0
    77e8:	46d4      	movcs	ip, sl
    77ea:	e7d8      	b.n	779e <etharp_find_entry+0x26>
    77ec:	b2e4      	uxtb	r4, r4
    77ee:	b125      	cbz	r5, 77fa <etharp_find_entry+0x82>
    77f0:	2314      	movs	r3, #20
    77f2:	fb03 8304 	mla	r3, r3, r4, r8
    77f6:	682a      	ldr	r2, [r5, #0]
    77f8:	605a      	str	r2, [r3, #4]
    77fa:	2314      	movs	r3, #20
    77fc:	fb03 8804 	mla	r8, r3, r4, r8
    7800:	2300      	movs	r3, #0
    7802:	f888 3013 	strb.w	r3, [r8, #19]
    7806:	b260      	sxtb	r0, r4
    7808:	e7e2      	b.n	77d0 <etharp_find_entry+0x58>
    780a:	f1be 0f0a 	cmp.w	lr, #10
    780e:	d005      	beq.n	781c <etharp_find_entry+0xa4>
    7810:	fa5f f48e 	uxtb.w	r4, lr
    7814:	4620      	mov	r0, r4
    7816:	4b0c      	ldr	r3, [pc, #48]	; (7848 <etharp_find_entry+0xd0>)
    7818:	4798      	blx	r3
    781a:	e7e8      	b.n	77ee <etharp_find_entry+0x76>
    781c:	2e0a      	cmp	r6, #10
    781e:	d001      	beq.n	7824 <etharp_find_entry+0xac>
    7820:	b2f4      	uxtb	r4, r6
    7822:	e7f7      	b.n	7814 <etharp_find_entry+0x9c>
    7824:	2a0a      	cmp	r2, #10
    7826:	d0c6      	beq.n	77b6 <etharp_find_entry+0x3e>
    7828:	b2d4      	uxtb	r4, r2
    782a:	e7f3      	b.n	7814 <etharp_find_entry+0x9c>
    782c:	2f01      	cmp	r7, #1
    782e:	f893 a013 	ldrb.w	sl, [r3, #19]
    7832:	d1d5      	bne.n	77e0 <etharp_find_entry+0x68>
    7834:	681f      	ldr	r7, [r3, #0]
    7836:	2f00      	cmp	r7, #0
    7838:	d0cd      	beq.n	77d6 <etharp_find_entry+0x5e>
    783a:	45ca      	cmp	sl, r9
    783c:	d3af      	bcc.n	779e <etharp_find_entry+0x26>
    783e:	b242      	sxtb	r2, r0
    7840:	46d1      	mov	r9, sl
    7842:	e7ac      	b.n	779e <etharp_find_entry+0x26>
    7844:	200080d4 	.word	0x200080d4
    7848:	0000774d 	.word	0x0000774d

0000784c <etharp_send_ip>:
    784c:	b430      	push	{r4, r5}
    784e:	684c      	ldr	r4, [r1, #4]
    7850:	681d      	ldr	r5, [r3, #0]
    7852:	f8c4 5002 	str.w	r5, [r4, #2]
    7856:	889b      	ldrh	r3, [r3, #4]
    7858:	80e3      	strh	r3, [r4, #6]
    785a:	6813      	ldr	r3, [r2, #0]
    785c:	60a3      	str	r3, [r4, #8]
    785e:	8893      	ldrh	r3, [r2, #4]
    7860:	81a3      	strh	r3, [r4, #12]
    7862:	2308      	movs	r3, #8
    7864:	73a3      	strb	r3, [r4, #14]
    7866:	2300      	movs	r3, #0
    7868:	73e3      	strb	r3, [r4, #15]
    786a:	6983      	ldr	r3, [r0, #24]
    786c:	bc30      	pop	{r4, r5}
    786e:	4718      	bx	r3

00007870 <etharp_tmr>:
    7870:	b5f8      	push	{r3, r4, r5, r6, r7, lr}
    7872:	4c0e      	ldr	r4, [pc, #56]	; (78ac <etharp_tmr+0x3c>)
    7874:	4e0e      	ldr	r6, [pc, #56]	; (78b0 <etharp_tmr+0x40>)
    7876:	2500      	movs	r5, #0
    7878:	2702      	movs	r7, #2
    787a:	7ca2      	ldrb	r2, [r4, #18]
    787c:	b15a      	cbz	r2, 7896 <etharp_tmr+0x26>
    787e:	7ce3      	ldrb	r3, [r4, #19]
    7880:	3301      	adds	r3, #1
    7882:	b2db      	uxtb	r3, r3
    7884:	2bef      	cmp	r3, #239	; 0xef
    7886:	74e3      	strb	r3, [r4, #19]
    7888:	d803      	bhi.n	7892 <etharp_tmr+0x22>
    788a:	2a01      	cmp	r2, #1
    788c:	d109      	bne.n	78a2 <etharp_tmr+0x32>
    788e:	2b01      	cmp	r3, #1
    7890:	d901      	bls.n	7896 <etharp_tmr+0x26>
    7892:	4628      	mov	r0, r5
    7894:	47b0      	blx	r6
    7896:	3501      	adds	r5, #1
    7898:	2d0a      	cmp	r5, #10
    789a:	f104 0414 	add.w	r4, r4, #20
    789e:	d1ec      	bne.n	787a <etharp_tmr+0xa>
    78a0:	bdf8      	pop	{r3, r4, r5, r6, r7, pc}
    78a2:	2a03      	cmp	r2, #3
    78a4:	bf08      	it	eq
    78a6:	74a7      	strbeq	r7, [r4, #18]
    78a8:	e7f5      	b.n	7896 <etharp_tmr+0x26>
    78aa:	bf00      	nop
    78ac:	200080d4 	.word	0x200080d4
    78b0:	0000774d 	.word	0x0000774d

000078b4 <etharp_request>:
    78b4:	e92d 41f0 	stmdb	sp!, {r4, r5, r6, r7, r8, lr}
    78b8:	2200      	movs	r2, #0
    78ba:	4606      	mov	r6, r0
    78bc:	4688      	mov	r8, r1
    78be:	2003      	movs	r0, #3
    78c0:	212c      	movs	r1, #44	; 0x2c
    78c2:	4b21      	ldr	r3, [pc, #132]	; (7948 <etharp_request+0x94>)
    78c4:	4798      	blx	r3
    78c6:	4605      	mov	r5, r0
    78c8:	2800      	cmp	r0, #0
    78ca:	d03a      	beq.n	7942 <etharp_request+0x8e>
    78cc:	6844      	ldr	r4, [r0, #4]
    78ce:	4b1f      	ldr	r3, [pc, #124]	; (794c <etharp_request+0x98>)
    78d0:	2001      	movs	r0, #1
    78d2:	4798      	blx	r3
    78d4:	82e0      	strh	r0, [r4, #22]
    78d6:	f8d6 3027 	ldr.w	r3, [r6, #39]	; 0x27
    78da:	61a3      	str	r3, [r4, #24]
    78dc:	f8b6 302b 	ldrh.w	r3, [r6, #43]	; 0x2b
    78e0:	83a3      	strh	r3, [r4, #28]
    78e2:	4b1b      	ldr	r3, [pc, #108]	; (7950 <etharp_request+0x9c>)
    78e4:	681a      	ldr	r2, [r3, #0]
    78e6:	f8c4 2022 	str.w	r2, [r4, #34]	; 0x22
    78ea:	889a      	ldrh	r2, [r3, #4]
    78ec:	84e2      	strh	r2, [r4, #38]	; 0x26
    78ee:	f853 2f06 	ldr.w	r2, [r3, #6]!
    78f2:	f8c4 2002 	str.w	r2, [r4, #2]
    78f6:	889b      	ldrh	r3, [r3, #4]
    78f8:	80e3      	strh	r3, [r4, #6]
    78fa:	f8d6 3027 	ldr.w	r3, [r6, #39]	; 0x27
    78fe:	60a3      	str	r3, [r4, #8]
    7900:	f8b6 302b 	ldrh.w	r3, [r6, #43]	; 0x2b
    7904:	81a3      	strh	r3, [r4, #12]
    7906:	6873      	ldr	r3, [r6, #4]
    7908:	f8c4 301e 	str.w	r3, [r4, #30]
    790c:	f8d8 3000 	ldr.w	r3, [r8]
    7910:	62a3      	str	r3, [r4, #40]	; 0x28
    7912:	2300      	movs	r3, #0
    7914:	7423      	strb	r3, [r4, #16]
    7916:	74e3      	strb	r3, [r4, #19]
    7918:	2201      	movs	r2, #1
    791a:	2306      	movs	r3, #6
    791c:	2104      	movs	r1, #4
    791e:	7561      	strb	r1, [r4, #21]
    7920:	7462      	strb	r2, [r4, #17]
    7922:	7523      	strb	r3, [r4, #20]
    7924:	2208      	movs	r2, #8
    7926:	73e3      	strb	r3, [r4, #15]
    7928:	74a2      	strb	r2, [r4, #18]
    792a:	73a2      	strb	r2, [r4, #14]
    792c:	69b3      	ldr	r3, [r6, #24]
    792e:	4629      	mov	r1, r5
    7930:	4630      	mov	r0, r6
    7932:	4798      	blx	r3
    7934:	4b07      	ldr	r3, [pc, #28]	; (7954 <etharp_request+0xa0>)
    7936:	4604      	mov	r4, r0
    7938:	4628      	mov	r0, r5
    793a:	4798      	blx	r3
    793c:	4620      	mov	r0, r4
    793e:	e8bd 81f0 	ldmia.w	sp!, {r4, r5, r6, r7, r8, pc}
    7942:	f04f 34ff 	mov.w	r4, #4294967295
    7946:	e7f9      	b.n	793c <etharp_request+0x88>
    7948:	000047dd 	.word	0x000047dd
    794c:	00003425 	.word	0x00003425
    7950:	0000bb08 	.word	0x0000bb08
    7954:	00004785 	.word	0x00004785

00007958 <etharp_output_to_arp_index>:
    7958:	e92d 41f0 	stmdb	sp!, {r4, r5, r6, r7, r8, lr}
    795c:	4d11      	ldr	r5, [pc, #68]	; (79a4 <etharp_output_to_arp_index+0x4c>)
    795e:	460f      	mov	r7, r1
    7960:	2114      	movs	r1, #20
    7962:	fb01 5802 	mla	r8, r1, r2, r5
    7966:	4614      	mov	r4, r2
    7968:	f898 2012 	ldrb.w	r2, [r8, #18]
    796c:	2a02      	cmp	r2, #2
    796e:	4606      	mov	r6, r0
    7970:	d10b      	bne.n	798a <etharp_output_to_arp_index+0x32>
    7972:	f898 3013 	ldrb.w	r3, [r8, #19]
    7976:	2be3      	cmp	r3, #227	; 0xe3
    7978:	d907      	bls.n	798a <etharp_output_to_arp_index+0x32>
    797a:	4641      	mov	r1, r8
    797c:	3104      	adds	r1, #4
    797e:	4b0a      	ldr	r3, [pc, #40]	; (79a8 <etharp_output_to_arp_index+0x50>)
    7980:	4798      	blx	r3
    7982:	b910      	cbnz	r0, 798a <etharp_output_to_arp_index+0x32>
    7984:	2303      	movs	r3, #3
    7986:	f888 3012 	strb.w	r3, [r8, #18]
    798a:	2314      	movs	r3, #20
    798c:	fb03 5304 	mla	r3, r3, r4, r5
    7990:	4c06      	ldr	r4, [pc, #24]	; (79ac <etharp_output_to_arp_index+0x54>)
    7992:	f106 0227 	add.w	r2, r6, #39	; 0x27
    7996:	4639      	mov	r1, r7
    7998:	4630      	mov	r0, r6
    799a:	46a4      	mov	ip, r4
    799c:	330c      	adds	r3, #12
    799e:	e8bd 41f0 	ldmia.w	sp!, {r4, r5, r6, r7, r8, lr}
    79a2:	4760      	bx	ip
    79a4:	200080d4 	.word	0x200080d4
    79a8:	000078b5 	.word	0x000078b5
    79ac:	0000784d 	.word	0x0000784d

000079b0 <etharp_query>:
    79b0:	e92d 41f0 	stmdb	sp!, {r4, r5, r6, r7, r8, lr}
    79b4:	4688      	mov	r8, r1
    79b6:	4607      	mov	r7, r0
    79b8:	4601      	mov	r1, r0
    79ba:	4b3b      	ldr	r3, [pc, #236]	; (7aa8 <etharp_query+0xf8>)
    79bc:	f8d8 0000 	ldr.w	r0, [r8]
    79c0:	4616      	mov	r6, r2
    79c2:	4798      	blx	r3
    79c4:	2800      	cmp	r0, #0
    79c6:	d152      	bne.n	7a6e <etharp_query+0xbe>
    79c8:	f8d8 3000 	ldr.w	r3, [r8]
    79cc:	f003 02f0 	and.w	r2, r3, #240	; 0xf0
    79d0:	2ae0      	cmp	r2, #224	; 0xe0
    79d2:	d04c      	beq.n	7a6e <etharp_query+0xbe>
    79d4:	2b00      	cmp	r3, #0
    79d6:	d04a      	beq.n	7a6e <etharp_query+0xbe>
    79d8:	2101      	movs	r1, #1
    79da:	4640      	mov	r0, r8
    79dc:	4b33      	ldr	r3, [pc, #204]	; (7aac <etharp_query+0xfc>)
    79de:	4798      	blx	r3
    79e0:	1e05      	subs	r5, r0, #0
    79e2:	db48      	blt.n	7a76 <etharp_query+0xc6>
    79e4:	4c32      	ldr	r4, [pc, #200]	; (7ab0 <etharp_query+0x100>)
    79e6:	2314      	movs	r3, #20
    79e8:	fb03 4205 	mla	r2, r3, r5, r4
    79ec:	7c91      	ldrb	r1, [r2, #18]
    79ee:	b909      	cbnz	r1, 79f4 <etharp_query+0x44>
    79f0:	2101      	movs	r1, #1
    79f2:	7491      	strb	r1, [r2, #18]
    79f4:	fb03 4305 	mla	r3, r3, r5, r4
    79f8:	7c9b      	ldrb	r3, [r3, #18]
    79fa:	2b01      	cmp	r3, #1
    79fc:	d000      	beq.n	7a00 <etharp_query+0x50>
    79fe:	b936      	cbnz	r6, 7a0e <etharp_query+0x5e>
    7a00:	4641      	mov	r1, r8
    7a02:	4638      	mov	r0, r7
    7a04:	4b2b      	ldr	r3, [pc, #172]	; (7ab4 <etharp_query+0x104>)
    7a06:	4798      	blx	r3
    7a08:	b91e      	cbnz	r6, 7a12 <etharp_query+0x62>
    7a0a:	e8bd 81f0 	ldmia.w	sp!, {r4, r5, r6, r7, r8, pc}
    7a0e:	f04f 30ff 	mov.w	r0, #4294967295
    7a12:	2314      	movs	r3, #20
    7a14:	fb03 4205 	mla	r2, r3, r5, r4
    7a18:	7c92      	ldrb	r2, [r2, #18]
    7a1a:	2a01      	cmp	r2, #1
    7a1c:	d90e      	bls.n	7a3c <etharp_query+0x8c>
    7a1e:	220c      	movs	r2, #12
    7a20:	fb13 2305 	smlabb	r3, r3, r5, r2
    7a24:	f884 50c8 	strb.w	r5, [r4, #200]	; 0xc8
    7a28:	4423      	add	r3, r4
    7a2a:	4c23      	ldr	r4, [pc, #140]	; (7ab8 <etharp_query+0x108>)
    7a2c:	f107 0227 	add.w	r2, r7, #39	; 0x27
    7a30:	4631      	mov	r1, r6
    7a32:	4638      	mov	r0, r7
    7a34:	46a4      	mov	ip, r4
    7a36:	e8bd 41f0 	ldmia.w	sp!, {r4, r5, r6, r7, r8, lr}
    7a3a:	4760      	bx	ip
    7a3c:	d131      	bne.n	7aa2 <etharp_query+0xf2>
    7a3e:	4633      	mov	r3, r6
    7a40:	b983      	cbnz	r3, 7a64 <etharp_query+0xb4>
    7a42:	4630      	mov	r0, r6
    7a44:	4b1d      	ldr	r3, [pc, #116]	; (7abc <etharp_query+0x10c>)
    7a46:	4798      	blx	r3
    7a48:	b33e      	cbz	r6, 7a9a <etharp_query+0xea>
    7a4a:	4637      	mov	r7, r6
    7a4c:	2314      	movs	r3, #20
    7a4e:	436b      	muls	r3, r5
    7a50:	58e0      	ldr	r0, [r4, r3]
    7a52:	b108      	cbz	r0, 7a58 <etharp_query+0xa8>
    7a54:	4b1a      	ldr	r3, [pc, #104]	; (7ac0 <etharp_query+0x110>)
    7a56:	4798      	blx	r3
    7a58:	2314      	movs	r3, #20
    7a5a:	435d      	muls	r5, r3
    7a5c:	2000      	movs	r0, #0
    7a5e:	5167      	str	r7, [r4, r5]
    7a60:	e8bd 81f0 	ldmia.w	sp!, {r4, r5, r6, r7, r8, pc}
    7a64:	7b1a      	ldrb	r2, [r3, #12]
    7a66:	2a01      	cmp	r2, #1
    7a68:	d108      	bne.n	7a7c <etharp_query+0xcc>
    7a6a:	681b      	ldr	r3, [r3, #0]
    7a6c:	e7e8      	b.n	7a40 <etharp_query+0x90>
    7a6e:	f06f 000d 	mvn.w	r0, #13
    7a72:	e8bd 81f0 	ldmia.w	sp!, {r4, r5, r6, r7, r8, pc}
    7a76:	4628      	mov	r0, r5
    7a78:	e8bd 81f0 	ldmia.w	sp!, {r4, r5, r6, r7, r8, pc}
    7a7c:	8919      	ldrh	r1, [r3, #8]
    7a7e:	4b11      	ldr	r3, [pc, #68]	; (7ac4 <etharp_query+0x114>)
    7a80:	2200      	movs	r2, #0
    7a82:	2003      	movs	r0, #3
    7a84:	4798      	blx	r3
    7a86:	4607      	mov	r7, r0
    7a88:	b138      	cbz	r0, 7a9a <etharp_query+0xea>
    7a8a:	4631      	mov	r1, r6
    7a8c:	4b0e      	ldr	r3, [pc, #56]	; (7ac8 <etharp_query+0x118>)
    7a8e:	4798      	blx	r3
    7a90:	2800      	cmp	r0, #0
    7a92:	d0db      	beq.n	7a4c <etharp_query+0x9c>
    7a94:	4638      	mov	r0, r7
    7a96:	4b0a      	ldr	r3, [pc, #40]	; (7ac0 <etharp_query+0x110>)
    7a98:	4798      	blx	r3
    7a9a:	f04f 30ff 	mov.w	r0, #4294967295
    7a9e:	e8bd 81f0 	ldmia.w	sp!, {r4, r5, r6, r7, r8, pc}
    7aa2:	e8bd 81f0 	ldmia.w	sp!, {r4, r5, r6, r7, r8, pc}
    7aa6:	bf00      	nop
    7aa8:	00003ac1 	.word	0x00003ac1
    7aac:	00007779 	.word	0x00007779
    7ab0:	200080d4 	.word	0x200080d4
    7ab4:	000078b5 	.word	0x000078b5
    7ab8:	0000784d 	.word	0x0000784d
    7abc:	00004959 	.word	0x00004959
    7ac0:	00004785 	.word	0x00004785
    7ac4:	000047dd 	.word	0x000047dd
    7ac8:	00004999 	.word	0x00004999

00007acc <etharp_output>:
    7acc:	b5f7      	push	{r0, r1, r2, r4, r5, r6, r7, lr}
    7ace:	460e      	mov	r6, r1
    7ad0:	4604      	mov	r4, r0
    7ad2:	2110      	movs	r1, #16
    7ad4:	4630      	mov	r0, r6
    7ad6:	4b36      	ldr	r3, [pc, #216]	; (7bb0 <etharp_output+0xe4>)
    7ad8:	4615      	mov	r5, r2
    7ada:	4798      	blx	r3
    7adc:	2800      	cmp	r0, #0
    7ade:	d160      	bne.n	7ba2 <etharp_output+0xd6>
    7ae0:	4621      	mov	r1, r4
    7ae2:	6828      	ldr	r0, [r5, #0]
    7ae4:	4b33      	ldr	r3, [pc, #204]	; (7bb4 <etharp_output+0xe8>)
    7ae6:	4798      	blx	r3
    7ae8:	2800      	cmp	r0, #0
    7aea:	d158      	bne.n	7b9e <etharp_output+0xd2>
    7aec:	682b      	ldr	r3, [r5, #0]
    7aee:	f003 02f0 	and.w	r2, r3, #240	; 0xf0
    7af2:	2ae0      	cmp	r2, #224	; 0xe0
    7af4:	d11a      	bne.n	7b2c <etharp_output+0x60>
    7af6:	2301      	movs	r3, #1
    7af8:	f88d 3000 	strb.w	r3, [sp]
    7afc:	235e      	movs	r3, #94	; 0x5e
    7afe:	f88d 3002 	strb.w	r3, [sp, #2]
    7b02:	786b      	ldrb	r3, [r5, #1]
    7b04:	f88d 0001 	strb.w	r0, [sp, #1]
    7b08:	f003 037f 	and.w	r3, r3, #127	; 0x7f
    7b0c:	f88d 3003 	strb.w	r3, [sp, #3]
    7b10:	78ab      	ldrb	r3, [r5, #2]
    7b12:	f88d 3004 	strb.w	r3, [sp, #4]
    7b16:	78eb      	ldrb	r3, [r5, #3]
    7b18:	f88d 3005 	strb.w	r3, [sp, #5]
    7b1c:	466b      	mov	r3, sp
    7b1e:	f104 0227 	add.w	r2, r4, #39	; 0x27
    7b22:	4631      	mov	r1, r6
    7b24:	4620      	mov	r0, r4
    7b26:	4c24      	ldr	r4, [pc, #144]	; (7bb8 <etharp_output+0xec>)
    7b28:	47a0      	blx	r4
    7b2a:	e01e      	b.n	7b6a <etharp_output+0x9e>
    7b2c:	6862      	ldr	r2, [r4, #4]
    7b2e:	68a1      	ldr	r1, [r4, #8]
    7b30:	405a      	eors	r2, r3
    7b32:	420a      	tst	r2, r1
    7b34:	d008      	beq.n	7b48 <etharp_output+0x7c>
    7b36:	b29b      	uxth	r3, r3
    7b38:	f64f 62a9 	movw	r2, #65193	; 0xfea9
    7b3c:	4293      	cmp	r3, r2
    7b3e:	d003      	beq.n	7b48 <etharp_output+0x7c>
    7b40:	68e3      	ldr	r3, [r4, #12]
    7b42:	f104 050c 	add.w	r5, r4, #12
    7b46:	b37b      	cbz	r3, 7ba8 <etharp_output+0xdc>
    7b48:	4b1c      	ldr	r3, [pc, #112]	; (7bbc <etharp_output+0xf0>)
    7b4a:	f893 20c8 	ldrb.w	r2, [r3, #200]	; 0xc8
    7b4e:	2114      	movs	r1, #20
    7b50:	fb01 3102 	mla	r1, r1, r2, r3
    7b54:	7c88      	ldrb	r0, [r1, #18]
    7b56:	2801      	cmp	r0, #1
    7b58:	d909      	bls.n	7b6e <etharp_output+0xa2>
    7b5a:	6828      	ldr	r0, [r5, #0]
    7b5c:	6849      	ldr	r1, [r1, #4]
    7b5e:	4288      	cmp	r0, r1
    7b60:	d105      	bne.n	7b6e <etharp_output+0xa2>
    7b62:	4631      	mov	r1, r6
    7b64:	4620      	mov	r0, r4
    7b66:	4b16      	ldr	r3, [pc, #88]	; (7bc0 <etharp_output+0xf4>)
    7b68:	4798      	blx	r3
    7b6a:	b003      	add	sp, #12
    7b6c:	bdf0      	pop	{r4, r5, r6, r7, pc}
    7b6e:	4913      	ldr	r1, [pc, #76]	; (7bbc <etharp_output+0xf0>)
    7b70:	2200      	movs	r2, #0
    7b72:	7c88      	ldrb	r0, [r1, #18]
    7b74:	2801      	cmp	r0, #1
    7b76:	d907      	bls.n	7b88 <etharp_output+0xbc>
    7b78:	682f      	ldr	r7, [r5, #0]
    7b7a:	6848      	ldr	r0, [r1, #4]
    7b7c:	4287      	cmp	r7, r0
    7b7e:	d103      	bne.n	7b88 <etharp_output+0xbc>
    7b80:	b2d2      	uxtb	r2, r2
    7b82:	f883 20c8 	strb.w	r2, [r3, #200]	; 0xc8
    7b86:	e7ec      	b.n	7b62 <etharp_output+0x96>
    7b88:	3201      	adds	r2, #1
    7b8a:	2a0a      	cmp	r2, #10
    7b8c:	f101 0114 	add.w	r1, r1, #20
    7b90:	d1ef      	bne.n	7b72 <etharp_output+0xa6>
    7b92:	4632      	mov	r2, r6
    7b94:	4629      	mov	r1, r5
    7b96:	4620      	mov	r0, r4
    7b98:	4b0a      	ldr	r3, [pc, #40]	; (7bc4 <etharp_output+0xf8>)
    7b9a:	4798      	blx	r3
    7b9c:	e7e5      	b.n	7b6a <etharp_output+0x9e>
    7b9e:	4b0a      	ldr	r3, [pc, #40]	; (7bc8 <etharp_output+0xfc>)
    7ba0:	e7bd      	b.n	7b1e <etharp_output+0x52>
    7ba2:	f06f 0001 	mvn.w	r0, #1
    7ba6:	e7e0      	b.n	7b6a <etharp_output+0x9e>
    7ba8:	f06f 0003 	mvn.w	r0, #3
    7bac:	e7dd      	b.n	7b6a <etharp_output+0x9e>
    7bae:	bf00      	nop
    7bb0:	0000472b 	.word	0x0000472b
    7bb4:	00003ac1 	.word	0x00003ac1
    7bb8:	0000784d 	.word	0x0000784d
    7bbc:	200080d4 	.word	0x200080d4
    7bc0:	00007959 	.word	0x00007959
    7bc4:	000079b1 	.word	0x000079b1
    7bc8:	0000bb0e 	.word	0x0000bb0e

00007bcc <ethernet_input>:
    7bcc:	e92d 4ff7 	stmdb	sp!, {r0, r1, r2, r4, r5, r6, r7, r8, r9, sl, fp, lr}
    7bd0:	8947      	ldrh	r7, [r0, #10]
    7bd2:	2f10      	cmp	r7, #16
    7bd4:	4605      	mov	r5, r0
    7bd6:	460e      	mov	r6, r1
    7bd8:	d916      	bls.n	7c08 <ethernet_input+0x3c>
    7bda:	6844      	ldr	r4, [r0, #4]
    7bdc:	78a3      	ldrb	r3, [r4, #2]
    7bde:	f8b4 800e 	ldrh.w	r8, [r4, #14]
    7be2:	07d8      	lsls	r0, r3, #31
    7be4:	d50a      	bpl.n	7bfc <ethernet_input+0x30>
    7be6:	2b01      	cmp	r3, #1
    7be8:	d112      	bne.n	7c10 <ethernet_input+0x44>
    7bea:	78e3      	ldrb	r3, [r4, #3]
    7bec:	b933      	cbnz	r3, 7bfc <ethernet_input+0x30>
    7bee:	7923      	ldrb	r3, [r4, #4]
    7bf0:	2b5e      	cmp	r3, #94	; 0x5e
    7bf2:	d103      	bne.n	7bfc <ethernet_input+0x30>
    7bf4:	7b6b      	ldrb	r3, [r5, #13]
    7bf6:	f043 0310 	orr.w	r3, r3, #16
    7bfa:	736b      	strb	r3, [r5, #13]
    7bfc:	f1b8 0f08 	cmp.w	r8, #8
    7c00:	d011      	beq.n	7c26 <ethernet_input+0x5a>
    7c02:	f5b8 6fc1 	cmp.w	r8, #1544	; 0x608
    7c06:	d021      	beq.n	7c4c <ethernet_input+0x80>
    7c08:	4628      	mov	r0, r5
    7c0a:	4b5c      	ldr	r3, [pc, #368]	; (7d7c <ethernet_input+0x1b0>)
    7c0c:	4798      	blx	r3
    7c0e:	e019      	b.n	7c44 <ethernet_input+0x78>
    7c10:	2206      	movs	r2, #6
    7c12:	495b      	ldr	r1, [pc, #364]	; (7d80 <ethernet_input+0x1b4>)
    7c14:	4b5b      	ldr	r3, [pc, #364]	; (7d84 <ethernet_input+0x1b8>)
    7c16:	1ca0      	adds	r0, r4, #2
    7c18:	4798      	blx	r3
    7c1a:	2800      	cmp	r0, #0
    7c1c:	d1ee      	bne.n	7bfc <ethernet_input+0x30>
    7c1e:	7b6b      	ldrb	r3, [r5, #13]
    7c20:	f043 0308 	orr.w	r3, r3, #8
    7c24:	e7e9      	b.n	7bfa <ethernet_input+0x2e>
    7c26:	f896 302d 	ldrb.w	r3, [r6, #45]	; 0x2d
    7c2a:	0699      	lsls	r1, r3, #26
    7c2c:	d5ec      	bpl.n	7c08 <ethernet_input+0x3c>
    7c2e:	f06f 010f 	mvn.w	r1, #15
    7c32:	4628      	mov	r0, r5
    7c34:	4b54      	ldr	r3, [pc, #336]	; (7d88 <ethernet_input+0x1bc>)
    7c36:	4798      	blx	r3
    7c38:	2800      	cmp	r0, #0
    7c3a:	d1e5      	bne.n	7c08 <ethernet_input+0x3c>
    7c3c:	4631      	mov	r1, r6
    7c3e:	4628      	mov	r0, r5
    7c40:	4b52      	ldr	r3, [pc, #328]	; (7d8c <ethernet_input+0x1c0>)
    7c42:	4798      	blx	r3
    7c44:	2000      	movs	r0, #0
    7c46:	b003      	add	sp, #12
    7c48:	e8bd 8ff0 	ldmia.w	sp!, {r4, r5, r6, r7, r8, r9, sl, fp, pc}
    7c4c:	f896 302d 	ldrb.w	r3, [r6, #45]	; 0x2d
    7c50:	069a      	lsls	r2, r3, #26
    7c52:	d5d9      	bpl.n	7c08 <ethernet_input+0x3c>
    7c54:	2f2b      	cmp	r7, #43	; 0x2b
    7c56:	d9d7      	bls.n	7c08 <ethernet_input+0x3c>
    7c58:	8a23      	ldrh	r3, [r4, #16]
    7c5a:	f5b3 7f80 	cmp.w	r3, #256	; 0x100
    7c5e:	d1d3      	bne.n	7c08 <ethernet_input+0x3c>
    7c60:	7d23      	ldrb	r3, [r4, #20]
    7c62:	2b06      	cmp	r3, #6
    7c64:	d1d0      	bne.n	7c08 <ethernet_input+0x3c>
    7c66:	7d63      	ldrb	r3, [r4, #21]
    7c68:	2b04      	cmp	r3, #4
    7c6a:	d1cd      	bne.n	7c08 <ethernet_input+0x3c>
    7c6c:	8a63      	ldrh	r3, [r4, #18]
    7c6e:	2b08      	cmp	r3, #8
    7c70:	d1ca      	bne.n	7c08 <ethernet_input+0x3c>
    7c72:	6873      	ldr	r3, [r6, #4]
    7c74:	f8d4 001e 	ldr.w	r0, [r4, #30]
    7c78:	9001      	str	r0, [sp, #4]
    7c7a:	f8d4 8028 	ldr.w	r8, [r4, #40]	; 0x28
    7c7e:	2b00      	cmp	r3, #0
    7c80:	d07a      	beq.n	7d78 <ethernet_input+0x1ac>
    7c82:	eba8 0303 	sub.w	r3, r8, r3
    7c86:	f1d3 0800 	rsbs	r8, r3, #0
    7c8a:	eb48 0803 	adc.w	r8, r8, r3
    7c8e:	f1b8 0f00 	cmp.w	r8, #0
    7c92:	f104 0718 	add.w	r7, r4, #24
    7c96:	bf14      	ite	ne
    7c98:	f04f 0a01 	movne.w	sl, #1
    7c9c:	f04f 0a02 	moveq.w	sl, #2
    7ca0:	f106 0927 	add.w	r9, r6, #39	; 0x27
    7ca4:	2800      	cmp	r0, #0
    7ca6:	d039      	beq.n	7d1c <ethernet_input+0x150>
    7ca8:	4631      	mov	r1, r6
    7caa:	4b39      	ldr	r3, [pc, #228]	; (7d90 <ethernet_input+0x1c4>)
    7cac:	4798      	blx	r3
    7cae:	4683      	mov	fp, r0
    7cb0:	bba0      	cbnz	r0, 7d1c <ethernet_input+0x150>
    7cb2:	9b01      	ldr	r3, [sp, #4]
    7cb4:	f003 03f0 	and.w	r3, r3, #240	; 0xf0
    7cb8:	2be0      	cmp	r3, #224	; 0xe0
    7cba:	d02f      	beq.n	7d1c <ethernet_input+0x150>
    7cbc:	4651      	mov	r1, sl
    7cbe:	a801      	add	r0, sp, #4
    7cc0:	4b34      	ldr	r3, [pc, #208]	; (7d94 <ethernet_input+0x1c8>)
    7cc2:	4798      	blx	r3
    7cc4:	2800      	cmp	r0, #0
    7cc6:	db29      	blt.n	7d1c <ethernet_input+0x150>
    7cc8:	4b33      	ldr	r3, [pc, #204]	; (7d98 <ethernet_input+0x1cc>)
    7cca:	2214      	movs	r2, #20
    7ccc:	fb02 f100 	mul.w	r1, r2, r0
    7cd0:	eb03 0e01 	add.w	lr, r3, r1
    7cd4:	f04f 0c02 	mov.w	ip, #2
    7cd8:	f88e c012 	strb.w	ip, [lr, #18]
    7cdc:	f04f 0c0c 	mov.w	ip, #12
    7ce0:	f8ce 6008 	str.w	r6, [lr, #8]
    7ce4:	fb12 c200 	smlabb	r2, r2, r0, ip
    7ce8:	6838      	ldr	r0, [r7, #0]
    7cea:	5098      	str	r0, [r3, r2]
    7cec:	eb03 0c02 	add.w	ip, r3, r2
    7cf0:	88ba      	ldrh	r2, [r7, #4]
    7cf2:	f8ac 2004 	strh.w	r2, [ip, #4]
    7cf6:	f853 a001 	ldr.w	sl, [r3, r1]
    7cfa:	f88e b013 	strb.w	fp, [lr, #19]
    7cfe:	f1ba 0f00 	cmp.w	sl, #0
    7d02:	d00b      	beq.n	7d1c <ethernet_input+0x150>
    7d04:	f843 b001 	str.w	fp, [r3, r1]
    7d08:	464a      	mov	r2, r9
    7d0a:	463b      	mov	r3, r7
    7d0c:	4651      	mov	r1, sl
    7d0e:	4630      	mov	r0, r6
    7d10:	f8df b08c 	ldr.w	fp, [pc, #140]	; 7da0 <ethernet_input+0x1d4>
    7d14:	47d8      	blx	fp
    7d16:	4650      	mov	r0, sl
    7d18:	4b18      	ldr	r3, [pc, #96]	; (7d7c <ethernet_input+0x1b0>)
    7d1a:	4798      	blx	r3
    7d1c:	8ae3      	ldrh	r3, [r4, #22]
    7d1e:	f5b3 7f80 	cmp.w	r3, #256	; 0x100
    7d22:	f47f af71 	bne.w	7c08 <ethernet_input+0x3c>
    7d26:	f1b8 0f00 	cmp.w	r8, #0
    7d2a:	f43f af6d 	beq.w	7c08 <ethernet_input+0x3c>
    7d2e:	4b1b      	ldr	r3, [pc, #108]	; (7d9c <ethernet_input+0x1d0>)
    7d30:	2002      	movs	r0, #2
    7d32:	4798      	blx	r3
    7d34:	f8d4 301e 	ldr.w	r3, [r4, #30]
    7d38:	82e0      	strh	r0, [r4, #22]
    7d3a:	62a3      	str	r3, [r4, #40]	; 0x28
    7d3c:	6873      	ldr	r3, [r6, #4]
    7d3e:	f8c4 301e 	str.w	r3, [r4, #30]
    7d42:	683b      	ldr	r3, [r7, #0]
    7d44:	f8c4 3022 	str.w	r3, [r4, #34]	; 0x22
    7d48:	88bb      	ldrh	r3, [r7, #4]
    7d4a:	84e3      	strh	r3, [r4, #38]	; 0x26
    7d4c:	683b      	ldr	r3, [r7, #0]
    7d4e:	f8c4 3002 	str.w	r3, [r4, #2]
    7d52:	88bb      	ldrh	r3, [r7, #4]
    7d54:	80e3      	strh	r3, [r4, #6]
    7d56:	f8d9 3000 	ldr.w	r3, [r9]
    7d5a:	61a3      	str	r3, [r4, #24]
    7d5c:	f8b9 3004 	ldrh.w	r3, [r9, #4]
    7d60:	80bb      	strh	r3, [r7, #4]
    7d62:	f8d9 3000 	ldr.w	r3, [r9]
    7d66:	60a3      	str	r3, [r4, #8]
    7d68:	f8b9 3004 	ldrh.w	r3, [r9, #4]
    7d6c:	81a3      	strh	r3, [r4, #12]
    7d6e:	69b3      	ldr	r3, [r6, #24]
    7d70:	4629      	mov	r1, r5
    7d72:	4630      	mov	r0, r6
    7d74:	4798      	blx	r3
    7d76:	e747      	b.n	7c08 <ethernet_input+0x3c>
    7d78:	4698      	mov	r8, r3
    7d7a:	e788      	b.n	7c8e <ethernet_input+0xc2>
    7d7c:	00004785 	.word	0x00004785
    7d80:	0000bb0e 	.word	0x0000bb0e
    7d84:	0000a871 	.word	0x0000a871
    7d88:	0000472b 	.word	0x0000472b
    7d8c:	000037fd 	.word	0x000037fd
    7d90:	00003ac1 	.word	0x00003ac1
    7d94:	00007779 	.word	0x00007779
    7d98:	200080d4 	.word	0x200080d4
    7d9c:	00003425 	.word	0x00003425
    7da0:	0000784d 	.word	0x0000784d

00007da4 <SteeringPIDSource>:
    7da4:	b510      	push	{r4, lr}
    7da6:	4b05      	ldr	r3, [pc, #20]	; (7dbc <SteeringPIDSource+0x18>)
    7da8:	4c05      	ldr	r4, [pc, #20]	; (7dc0 <SteeringPIDSource+0x1c>)
    7daa:	6918      	ldr	r0, [r3, #16]
    7dac:	4b05      	ldr	r3, [pc, #20]	; (7dc4 <SteeringPIDSource+0x20>)
    7dae:	4798      	blx	r3
    7db0:	2200      	movs	r2, #0
    7db2:	4b05      	ldr	r3, [pc, #20]	; (7dc8 <SteeringPIDSource+0x24>)
    7db4:	47a0      	blx	r4
    7db6:	4b05      	ldr	r3, [pc, #20]	; (7dcc <SteeringPIDSource+0x28>)
    7db8:	4798      	blx	r3
    7dba:	bd10      	pop	{r4, pc}
    7dbc:	200081a0 	.word	0x200081a0
    7dc0:	0000a2c5 	.word	0x0000a2c5
    7dc4:	0000a21d 	.word	0x0000a21d
    7dc8:	408f4000 	.word	0x408f4000
    7dcc:	0000a6e9 	.word	0x0000a6e9

00007dd0 <SpeedPIDSource>:
    7dd0:	b510      	push	{r4, lr}
    7dd2:	4b05      	ldr	r3, [pc, #20]	; (7de8 <SpeedPIDSource+0x18>)
    7dd4:	4c05      	ldr	r4, [pc, #20]	; (7dec <SpeedPIDSource+0x1c>)
    7dd6:	68d8      	ldr	r0, [r3, #12]
    7dd8:	4b05      	ldr	r3, [pc, #20]	; (7df0 <SpeedPIDSource+0x20>)
    7dda:	4798      	blx	r3
    7ddc:	2200      	movs	r2, #0
    7dde:	4b05      	ldr	r3, [pc, #20]	; (7df4 <SpeedPIDSource+0x24>)
    7de0:	47a0      	blx	r4
    7de2:	4b05      	ldr	r3, [pc, #20]	; (7df8 <SpeedPIDSource+0x28>)
    7de4:	4798      	blx	r3
    7de6:	bd10      	pop	{r4, pc}
    7de8:	200081a0 	.word	0x200081a0
    7dec:	0000a2c5 	.word	0x0000a2c5
    7df0:	0000a21d 	.word	0x0000a21d
    7df4:	408f4000 	.word	0x408f4000
    7df8:	0000a6e9 	.word	0x0000a6e9

00007dfc <SteeringPIDOutput>:
    7dfc:	ee07 0a90 	vmov	s15, r0
    7e00:	ed9f 7a04 	vldr	s14, [pc, #16]	; 7e14 <SteeringPIDOutput+0x18>
    7e04:	4b04      	ldr	r3, [pc, #16]	; (7e18 <SteeringPIDOutput+0x1c>)
    7e06:	eef8 6ae7 	vcvt.f32.s32	s13, s15
    7e0a:	eec6 7a87 	vdiv.f32	s15, s13, s14
    7e0e:	edc3 7a58 	vstr	s15, [r3, #352]	; 0x160
    7e12:	4770      	bx	lr
    7e14:	447a0000 	.word	0x447a0000
    7e18:	200081a0 	.word	0x200081a0

00007e1c <SpeedPIDOutput>:
    7e1c:	ee07 0a90 	vmov	s15, r0
    7e20:	ed9f 7a04 	vldr	s14, [pc, #16]	; 7e34 <SpeedPIDOutput+0x18>
    7e24:	4b04      	ldr	r3, [pc, #16]	; (7e38 <SpeedPIDOutput+0x1c>)
    7e26:	eef8 6ae7 	vcvt.f32.s32	s13, s15
    7e2a:	eec6 7a87 	vdiv.f32	s15, s13, s14
    7e2e:	edc3 7a59 	vstr	s15, [r3, #356]	; 0x164
    7e32:	4770      	bx	lr
    7e34:	447a0000 	.word	0x447a0000
    7e38:	200081a0 	.word	0x200081a0

00007e3c <GetPIDTime>:
    7e3c:	4b00      	ldr	r3, [pc, #0]	; (7e40 <GetPIDTime+0x4>)
    7e3e:	4718      	bx	r3
    7e40:	000093cd 	.word	0x000093cd

00007e44 <_gpio_get_level>:
    7e44:	b513      	push	{r0, r1, r4, lr}
    7e46:	4b09      	ldr	r3, [pc, #36]	; (7e6c <_gpio_get_level+0x28>)
    7e48:	4604      	mov	r4, r0
    7e4a:	a801      	add	r0, sp, #4
    7e4c:	4798      	blx	r3
    7e4e:	4b08      	ldr	r3, [pc, #32]	; (7e70 <_gpio_get_level+0x2c>)
    7e50:	01e0      	lsls	r0, r4, #7
    7e52:	181a      	adds	r2, r3, r0
    7e54:	5819      	ldr	r1, [r3, r0]
    7e56:	6a13      	ldr	r3, [r2, #32]
    7e58:	6914      	ldr	r4, [r2, #16]
    7e5a:	405c      	eors	r4, r3
    7e5c:	400c      	ands	r4, r1
    7e5e:	405c      	eors	r4, r3
    7e60:	a801      	add	r0, sp, #4
    7e62:	4b04      	ldr	r3, [pc, #16]	; (7e74 <_gpio_get_level+0x30>)
    7e64:	4798      	blx	r3
    7e66:	4620      	mov	r0, r4
    7e68:	b002      	add	sp, #8
    7e6a:	bd10      	pop	{r4, pc}
    7e6c:	00000e51 	.word	0x00000e51
    7e70:	41008000 	.word	0x41008000
    7e74:	00000e5f 	.word	0x00000e5f

00007e78 <count_encoderA>:
    7e78:	b573      	push	{r0, r1, r4, r5, r6, lr}
    7e7a:	4c1d      	ldr	r4, [pc, #116]	; (7ef0 <count_encoderA+0x78>)
    7e7c:	4d1d      	ldr	r5, [pc, #116]	; (7ef4 <count_encoderA+0x7c>)
    7e7e:	2060      	movs	r0, #96	; 0x60
    7e80:	47a0      	blx	r4
    7e82:	2027      	movs	r0, #39	; 0x27
    7e84:	47a0      	blx	r4
    7e86:	2400      	movs	r4, #0
    7e88:	2003      	movs	r0, #3
    7e8a:	9401      	str	r4, [sp, #4]
    7e8c:	47a8      	blx	r5
    7e8e:	4606      	mov	r6, r0
    7e90:	2001      	movs	r0, #1
    7e92:	47a8      	blx	r5
    7e94:	f016 0f01 	tst.w	r6, #1
    7e98:	f000 0080 	and.w	r0, r0, #128	; 0x80
    7e9c:	4a16      	ldr	r2, [pc, #88]	; (7ef8 <count_encoderA+0x80>)
    7e9e:	d020      	beq.n	7ee2 <count_encoderA+0x6a>
    7ea0:	b148      	cbz	r0, 7eb6 <count_encoderA+0x3e>
    7ea2:	f8d2 3188 	ldr.w	r3, [r2, #392]	; 0x188
    7ea6:	2b01      	cmp	r3, #1
    7ea8:	d11d      	bne.n	7ee6 <count_encoderA+0x6e>
    7eaa:	4b14      	ldr	r3, [pc, #80]	; (7efc <count_encoderA+0x84>)
    7eac:	6899      	ldr	r1, [r3, #8]
    7eae:	3901      	subs	r1, #1
    7eb0:	6099      	str	r1, [r3, #8]
    7eb2:	601c      	str	r4, [r3, #0]
    7eb4:	605c      	str	r4, [r3, #4]
    7eb6:	4b12      	ldr	r3, [pc, #72]	; (7f00 <count_encoderA+0x88>)
    7eb8:	6810      	ldr	r0, [r2, #0]
    7eba:	a901      	add	r1, sp, #4
    7ebc:	4798      	blx	r3
    7ebe:	9b01      	ldr	r3, [sp, #4]
    7ec0:	2b01      	cmp	r3, #1
    7ec2:	d107      	bne.n	7ed4 <count_encoderA+0x5c>
    7ec4:	4b0f      	ldr	r3, [pc, #60]	; (7f04 <count_encoderA+0x8c>)
    7ec6:	f04f 5280 	mov.w	r2, #268435456	; 0x10000000
    7eca:	601a      	str	r2, [r3, #0]
    7ecc:	f3bf 8f4f 	dsb	sy
    7ed0:	f3bf 8f6f 	isb	sy
    7ed4:	4c0c      	ldr	r4, [pc, #48]	; (7f08 <count_encoderA+0x90>)
    7ed6:	2060      	movs	r0, #96	; 0x60
    7ed8:	47a0      	blx	r4
    7eda:	2027      	movs	r0, #39	; 0x27
    7edc:	47a0      	blx	r4
    7ede:	b002      	add	sp, #8
    7ee0:	bd70      	pop	{r4, r5, r6, pc}
    7ee2:	2800      	cmp	r0, #0
    7ee4:	d0e7      	beq.n	7eb6 <count_encoderA+0x3e>
    7ee6:	2301      	movs	r3, #1
    7ee8:	f8c2 318c 	str.w	r3, [r2, #396]	; 0x18c
    7eec:	e7e3      	b.n	7eb6 <count_encoderA+0x3e>
    7eee:	bf00      	nop
    7ef0:	00000f7d 	.word	0x00000f7d
    7ef4:	00007e45 	.word	0x00007e45
    7ef8:	200081a0 	.word	0x200081a0
    7efc:	200161e4 	.word	0x200161e4
    7f00:	00008de9 	.word	0x00008de9
    7f04:	e000ed04 	.word	0xe000ed04
    7f08:	00000f71 	.word	0x00000f71

00007f0c <count_encoderB>:
    7f0c:	b573      	push	{r0, r1, r4, r5, r6, lr}
    7f0e:	4c1d      	ldr	r4, [pc, #116]	; (7f84 <count_encoderB+0x78>)
    7f10:	2500      	movs	r5, #0
    7f12:	2060      	movs	r0, #96	; 0x60
    7f14:	9501      	str	r5, [sp, #4]
    7f16:	47a0      	blx	r4
    7f18:	2027      	movs	r0, #39	; 0x27
    7f1a:	47a0      	blx	r4
    7f1c:	4c1a      	ldr	r4, [pc, #104]	; (7f88 <count_encoderB+0x7c>)
    7f1e:	2003      	movs	r0, #3
    7f20:	47a0      	blx	r4
    7f22:	4606      	mov	r6, r0
    7f24:	2001      	movs	r0, #1
    7f26:	47a0      	blx	r4
    7f28:	f016 0f01 	tst.w	r6, #1
    7f2c:	4c17      	ldr	r4, [pc, #92]	; (7f8c <count_encoderB+0x80>)
    7f2e:	d00f      	beq.n	7f50 <count_encoderB+0x44>
    7f30:	0603      	lsls	r3, r0, #24
    7f32:	d523      	bpl.n	7f7c <count_encoderB+0x70>
    7f34:	f8d4 318c 	ldr.w	r3, [r4, #396]	; 0x18c
    7f38:	2b01      	cmp	r3, #1
    7f3a:	d11f      	bne.n	7f7c <count_encoderB+0x70>
    7f3c:	4b14      	ldr	r3, [pc, #80]	; (7f90 <count_encoderB+0x84>)
    7f3e:	4815      	ldr	r0, [pc, #84]	; (7f94 <count_encoderB+0x88>)
    7f40:	689a      	ldr	r2, [r3, #8]
    7f42:	3201      	adds	r2, #1
    7f44:	609a      	str	r2, [r3, #8]
    7f46:	601d      	str	r5, [r3, #0]
    7f48:	605d      	str	r5, [r3, #4]
    7f4a:	6899      	ldr	r1, [r3, #8]
    7f4c:	4b12      	ldr	r3, [pc, #72]	; (7f98 <count_encoderB+0x8c>)
    7f4e:	4798      	blx	r3
    7f50:	4b12      	ldr	r3, [pc, #72]	; (7f9c <count_encoderB+0x90>)
    7f52:	6820      	ldr	r0, [r4, #0]
    7f54:	a901      	add	r1, sp, #4
    7f56:	4798      	blx	r3
    7f58:	9b01      	ldr	r3, [sp, #4]
    7f5a:	2b01      	cmp	r3, #1
    7f5c:	d107      	bne.n	7f6e <count_encoderB+0x62>
    7f5e:	4b10      	ldr	r3, [pc, #64]	; (7fa0 <count_encoderB+0x94>)
    7f60:	f04f 5280 	mov.w	r2, #268435456	; 0x10000000
    7f64:	601a      	str	r2, [r3, #0]
    7f66:	f3bf 8f4f 	dsb	sy
    7f6a:	f3bf 8f6f 	isb	sy
    7f6e:	4c0d      	ldr	r4, [pc, #52]	; (7fa4 <count_encoderB+0x98>)
    7f70:	2060      	movs	r0, #96	; 0x60
    7f72:	47a0      	blx	r4
    7f74:	2027      	movs	r0, #39	; 0x27
    7f76:	47a0      	blx	r4
    7f78:	b002      	add	sp, #8
    7f7a:	bd70      	pop	{r4, r5, r6, pc}
    7f7c:	2301      	movs	r3, #1
    7f7e:	f8c4 3188 	str.w	r3, [r4, #392]	; 0x188
    7f82:	e7e5      	b.n	7f50 <count_encoderB+0x44>
    7f84:	00000f7d 	.word	0x00000f7d
    7f88:	00007e45 	.word	0x00007e45
    7f8c:	200081a0 	.word	0x200081a0
    7f90:	200161e4 	.word	0x200161e4
    7f94:	0000bb14 	.word	0x0000bb14
    7f98:	0000aa0d 	.word	0x0000aa0d
    7f9c:	00008de9 	.word	0x00008de9
    7fa0:	e000ed04 	.word	0xe000ed04
    7fa4:	00000f71 	.word	0x00000f71

00007fa8 <print_ipaddress>:
    7fa8:	e92d 41f0 	stmdb	sp!, {r4, r5, r6, r7, r8, lr}
    7fac:	4f0e      	ldr	r7, [pc, #56]	; (7fe8 <print_ipaddress+0x40>)
    7fae:	4e0f      	ldr	r6, [pc, #60]	; (7fec <print_ipaddress+0x44>)
    7fb0:	4d0f      	ldr	r5, [pc, #60]	; (7ff0 <print_ipaddress+0x48>)
    7fb2:	4c10      	ldr	r4, [pc, #64]	; (7ff4 <print_ipaddress+0x4c>)
    7fb4:	2210      	movs	r2, #16
    7fb6:	4639      	mov	r1, r7
    7fb8:	4630      	mov	r0, r6
    7fba:	47a8      	blx	r5
    7fbc:	4601      	mov	r1, r0
    7fbe:	480e      	ldr	r0, [pc, #56]	; (7ff8 <print_ipaddress+0x50>)
    7fc0:	47a0      	blx	r4
    7fc2:	2210      	movs	r2, #16
    7fc4:	4639      	mov	r1, r7
    7fc6:	1d30      	adds	r0, r6, #4
    7fc8:	47a8      	blx	r5
    7fca:	4601      	mov	r1, r0
    7fcc:	480b      	ldr	r0, [pc, #44]	; (7ffc <print_ipaddress+0x54>)
    7fce:	47a0      	blx	r4
    7fd0:	4639      	mov	r1, r7
    7fd2:	f106 0008 	add.w	r0, r6, #8
    7fd6:	2210      	movs	r2, #16
    7fd8:	47a8      	blx	r5
    7fda:	4623      	mov	r3, r4
    7fdc:	4601      	mov	r1, r0
    7fde:	e8bd 41f0 	ldmia.w	sp!, {r4, r5, r6, r7, r8, lr}
    7fe2:	4807      	ldr	r0, [pc, #28]	; (8000 <print_ipaddress+0x58>)
    7fe4:	4718      	bx	r3
    7fe6:	bf00      	nop
    7fe8:	20008330 	.word	0x20008330
    7fec:	20012950 	.word	0x20012950
    7ff0:	00003bfd 	.word	0x00003bfd
    7ff4:	0000aa0d 	.word	0x0000aa0d
    7ff8:	0000bb18 	.word	0x0000bb18
    7ffc:	0000bb2a 	.word	0x0000bb2a
    8000:	0000bb3c 	.word	0x0000bb3c

00008004 <TestSystems>:
    8004:	4b18      	ldr	r3, [pc, #96]	; (8068 <TestSystems+0x64>)
    8006:	6881      	ldr	r1, [r0, #8]
    8008:	f8d3 21a0 	ldr.w	r2, [r3, #416]	; 0x1a0
    800c:	1a8a      	subs	r2, r1, r2
    800e:	f5b2 6ffa 	cmp.w	r2, #2000	; 0x7d0
    8012:	e92d 41f0 	stmdb	sp!, {r4, r5, r6, r7, r8, lr}
    8016:	d925      	bls.n	8064 <TestSystems+0x60>
    8018:	f8d3 41a4 	ldr.w	r4, [r3, #420]	; 0x1a4
    801c:	f8c3 11a0 	str.w	r1, [r3, #416]	; 0x1a0
    8020:	2c00      	cmp	r4, #0
    8022:	bf0c      	ite	eq
    8024:	2201      	moveq	r2, #1
    8026:	2200      	movne	r2, #0
    8028:	f8c3 21a4 	str.w	r2, [r3, #420]	; 0x1a4
    802c:	480f      	ldr	r0, [pc, #60]	; (806c <TestSystems+0x68>)
    802e:	4b10      	ldr	r3, [pc, #64]	; (8070 <TestSystems+0x6c>)
    8030:	4e10      	ldr	r6, [pc, #64]	; (8074 <TestSystems+0x70>)
    8032:	4f11      	ldr	r7, [pc, #68]	; (8078 <TestSystems+0x74>)
    8034:	4d11      	ldr	r5, [pc, #68]	; (807c <TestSystems+0x78>)
    8036:	d10e      	bne.n	8056 <TestSystems+0x52>
    8038:	4798      	blx	r3
    803a:	2000      	movs	r0, #0
    803c:	47b0      	blx	r6
    803e:	4620      	mov	r0, r4
    8040:	47b8      	blx	r7
    8042:	4620      	mov	r0, r4
    8044:	47a8      	blx	r5
    8046:	2001      	movs	r0, #1
    8048:	4b0d      	ldr	r3, [pc, #52]	; (8080 <TestSystems+0x7c>)
    804a:	4798      	blx	r3
    804c:	4807      	ldr	r0, [pc, #28]	; (806c <TestSystems+0x68>)
    804e:	4b0d      	ldr	r3, [pc, #52]	; (8084 <TestSystems+0x80>)
    8050:	e8bd 41f0 	ldmia.w	sp!, {r4, r5, r6, r7, r8, lr}
    8054:	4718      	bx	r3
    8056:	4798      	blx	r3
    8058:	2001      	movs	r0, #1
    805a:	47b8      	blx	r7
    805c:	480a      	ldr	r0, [pc, #40]	; (8088 <TestSystems+0x84>)
    805e:	47b0      	blx	r6
    8060:	2001      	movs	r0, #1
    8062:	e7ef      	b.n	8044 <TestSystems+0x40>
    8064:	e8bd 81f0 	ldmia.w	sp!, {r4, r5, r6, r7, r8, pc}
    8068:	200081a0 	.word	0x200081a0
    806c:	3ecccccd 	.word	0x3ecccccd
    8070:	000004d1 	.word	0x000004d1
    8074:	00000495 	.word	0x00000495
    8078:	000003b1 	.word	0x000003b1
    807c:	0000039d 	.word	0x0000039d
    8080:	0000036d 	.word	0x0000036d
    8084:	000003e1 	.word	0x000003e1
    8088:	3e4ccccd 	.word	0x3e4ccccd

0000808c <TeleOperation>:
    808c:	b570      	push	{r4, r5, r6, lr}
    808e:	f890 3028 	ldrb.w	r3, [r0, #40]	; 0x28
    8092:	4d13      	ldr	r5, [pc, #76]	; (80e0 <TeleOperation+0x54>)
    8094:	4e13      	ldr	r6, [pc, #76]	; (80e4 <TeleOperation+0x58>)
    8096:	4604      	mov	r4, r0
    8098:	b1eb      	cbz	r3, 80d6 <TeleOperation+0x4a>
    809a:	6883      	ldr	r3, [r0, #8]
    809c:	6842      	ldr	r2, [r0, #4]
    809e:	1a9b      	subs	r3, r3, r2
    80a0:	2b63      	cmp	r3, #99	; 0x63
    80a2:	d818      	bhi.n	80d6 <TeleOperation+0x4a>
    80a4:	2001      	movs	r0, #1
    80a6:	47a8      	blx	r5
    80a8:	68e0      	ldr	r0, [r4, #12]
    80aa:	47b0      	blx	r6
    80ac:	6920      	ldr	r0, [r4, #16]
    80ae:	4b0e      	ldr	r3, [pc, #56]	; (80e8 <TeleOperation+0x5c>)
    80b0:	4c0e      	ldr	r4, [pc, #56]	; (80ec <TeleOperation+0x60>)
    80b2:	ee07 0a90 	vmov	s15, r0
    80b6:	eef5 7ac0 	vcmpe.f32	s15, #0.0
    80ba:	eef1 fa10 	vmrs	APSR_nzcv, fpscr
    80be:	dd05      	ble.n	80cc <TeleOperation+0x40>
    80c0:	4798      	blx	r3
    80c2:	2000      	movs	r0, #0
    80c4:	4623      	mov	r3, r4
    80c6:	e8bd 4070 	ldmia.w	sp!, {r4, r5, r6, lr}
    80ca:	4718      	bx	r3
    80cc:	f080 4000 	eor.w	r0, r0, #2147483648	; 0x80000000
    80d0:	4798      	blx	r3
    80d2:	2001      	movs	r0, #1
    80d4:	e7f6      	b.n	80c4 <TeleOperation+0x38>
    80d6:	2000      	movs	r0, #0
    80d8:	47b0      	blx	r6
    80da:	2000      	movs	r0, #0
    80dc:	462b      	mov	r3, r5
    80de:	e7f2      	b.n	80c6 <TeleOperation+0x3a>
    80e0:	0000036d 	.word	0x0000036d
    80e4:	000004d1 	.word	0x000004d1
    80e8:	000003e1 	.word	0x000003e1
    80ec:	0000039d 	.word	0x0000039d

000080f0 <main_task>:
    80f0:	b5f8      	push	{r3, r4, r5, r6, r7, lr}
    80f2:	4f10      	ldr	r7, [pc, #64]	; (8134 <main_task+0x44>)
    80f4:	4d10      	ldr	r5, [pc, #64]	; (8138 <main_task+0x48>)
    80f6:	4604      	mov	r4, r0
    80f8:	2300      	movs	r3, #0
    80fa:	2232      	movs	r2, #50	; 0x32
    80fc:	4619      	mov	r1, r3
    80fe:	6820      	ldr	r0, [r4, #0]
    8100:	47b8      	blx	r7
    8102:	2801      	cmp	r0, #1
    8104:	d004      	beq.n	8110 <main_task+0x20>
    8106:	480d      	ldr	r0, [pc, #52]	; (813c <main_task+0x4c>)
    8108:	4b0d      	ldr	r3, [pc, #52]	; (8140 <main_task+0x50>)
    810a:	4798      	blx	r3
    810c:	2001      	movs	r0, #1
    810e:	47a8      	blx	r5
    8110:	4b0c      	ldr	r3, [pc, #48]	; (8144 <main_task+0x54>)
    8112:	4e0d      	ldr	r6, [pc, #52]	; (8148 <main_task+0x58>)
    8114:	4798      	blx	r3
    8116:	4b0d      	ldr	r3, [pc, #52]	; (814c <main_task+0x5c>)
    8118:	60a0      	str	r0, [r4, #8]
    811a:	4620      	mov	r0, r4
    811c:	4798      	blx	r3
    811e:	4620      	mov	r0, r4
    8120:	4b0b      	ldr	r3, [pc, #44]	; (8150 <main_task+0x60>)
    8122:	4798      	blx	r3
    8124:	2300      	movs	r3, #0
    8126:	461a      	mov	r2, r3
    8128:	4619      	mov	r1, r3
    812a:	6820      	ldr	r0, [r4, #0]
    812c:	47b0      	blx	r6
    812e:	2001      	movs	r0, #1
    8130:	47a8      	blx	r5
    8132:	e7e1      	b.n	80f8 <main_task+0x8>
    8134:	00008ead 	.word	0x00008ead
    8138:	000095bd 	.word	0x000095bd
    813c:	0000bb4e 	.word	0x0000bb4e
    8140:	0000aaf5 	.word	0x0000aaf5
    8144:	000093cd 	.word	0x000093cd
    8148:	00008b61 	.word	0x00008b61
    814c:	0000808d 	.word	0x0000808d
    8150:	00008005 	.word	0x00008005
    8154:	00000000 	.word	0x00000000

00008158 <main>:
    8158:	e92d 43f0 	stmdb	sp!, {r4, r5, r6, r7, r8, r9, lr}
    815c:	4b46      	ldr	r3, [pc, #280]	; (8278 <main+0x120>)
    815e:	4c47      	ldr	r4, [pc, #284]	; (827c <main+0x124>)
    8160:	f8df 9180 	ldr.w	r9, [pc, #384]	; 82e4 <main+0x18c>
    8164:	f8df 8180 	ldr.w	r8, [pc, #384]	; 82e8 <main+0x190>
    8168:	b085      	sub	sp, #20
    816a:	4798      	blx	r3
    816c:	4b44      	ldr	r3, [pc, #272]	; (8280 <main+0x128>)
    816e:	f8c4 3184 	str.w	r3, [r4, #388]	; 0x184
    8172:	a33f      	add	r3, pc, #252	; (adr r3, 8270 <main+0x118>)
    8174:	e9d3 2300 	ldrd	r2, r3, [r3]
    8178:	f104 0530 	add.w	r5, r4, #48	; 0x30
    817c:	e9c4 230c 	strd	r2, r3, [r4, #48]	; 0x30
    8180:	4b40      	ldr	r3, [pc, #256]	; (8284 <main+0x12c>)
    8182:	f8c4 30b8 	str.w	r3, [r4, #184]	; 0xb8
    8186:	2600      	movs	r6, #0
    8188:	2700      	movs	r7, #0
    818a:	4b3f      	ldr	r3, [pc, #252]	; (8288 <main+0x130>)
    818c:	493f      	ldr	r1, [pc, #252]	; (828c <main+0x134>)
    818e:	f8c4 30bc 	str.w	r3, [r4, #188]	; 0xbc
    8192:	4628      	mov	r0, r5
    8194:	f24c 3250 	movw	r2, #50000	; 0xc350
    8198:	e9c4 670e 	strd	r6, r7, [r4, #56]	; 0x38
    819c:	e9c4 6710 	strd	r6, r7, [r4, #64]	; 0x40
    81a0:	47c0      	blx	r8
    81a2:	4649      	mov	r1, r9
    81a4:	4628      	mov	r0, r5
    81a6:	f44f 727a 	mov.w	r2, #1000	; 0x3e8
    81aa:	4d39      	ldr	r5, [pc, #228]	; (8290 <main+0x138>)
    81ac:	47a8      	blx	r5
    81ae:	4b39      	ldr	r3, [pc, #228]	; (8294 <main+0x13c>)
    81b0:	f8c4 30c0 	str.w	r3, [r4, #192]	; 0xc0
    81b4:	4b38      	ldr	r3, [pc, #224]	; (8298 <main+0x140>)
    81b6:	2200      	movs	r2, #0
    81b8:	e9c4 2332 	strd	r2, r3, [r4, #200]	; 0xc8
    81bc:	e9c4 6734 	strd	r6, r7, [r4, #208]	; 0xd0
    81c0:	e9c4 6736 	strd	r6, r7, [r4, #216]	; 0xd8
    81c4:	4b35      	ldr	r3, [pc, #212]	; (829c <main+0x144>)
    81c6:	f8c4 3150 	str.w	r3, [r4, #336]	; 0x150
    81ca:	f104 06c8 	add.w	r6, r4, #200	; 0xc8
    81ce:	4b34      	ldr	r3, [pc, #208]	; (82a0 <main+0x148>)
    81d0:	f8c4 3154 	str.w	r3, [r4, #340]	; 0x154
    81d4:	4649      	mov	r1, r9
    81d6:	4630      	mov	r0, r6
    81d8:	f241 3288 	movw	r2, #5000	; 0x1388
    81dc:	47c0      	blx	r8
    81de:	4630      	mov	r0, r6
    81e0:	f44f 727a 	mov.w	r2, #1000	; 0x3e8
    81e4:	2100      	movs	r1, #0
    81e6:	47a8      	blx	r5
    81e8:	4b2e      	ldr	r3, [pc, #184]	; (82a4 <main+0x14c>)
    81ea:	4e2f      	ldr	r6, [pc, #188]	; (82a8 <main+0x150>)
    81ec:	2500      	movs	r5, #0
    81ee:	601d      	str	r5, [r3, #0]
    81f0:	4629      	mov	r1, r5
    81f2:	605d      	str	r5, [r3, #4]
    81f4:	f44f 72c4 	mov.w	r2, #392	; 0x188
    81f8:	609d      	str	r5, [r3, #8]
    81fa:	4620      	mov	r0, r4
    81fc:	60dd      	str	r5, [r3, #12]
    81fe:	4b2b      	ldr	r3, [pc, #172]	; (82ac <main+0x154>)
    8200:	4798      	blx	r3
    8202:	4629      	mov	r1, r5
    8204:	2203      	movs	r2, #3
    8206:	4b2a      	ldr	r3, [pc, #168]	; (82b0 <main+0x158>)
    8208:	2001      	movs	r0, #1
    820a:	4798      	blx	r3
    820c:	462b      	mov	r3, r5
    820e:	462a      	mov	r2, r5
    8210:	4629      	mov	r1, r5
    8212:	6020      	str	r0, [r4, #0]
    8214:	47b0      	blx	r6
    8216:	4b27      	ldr	r3, [pc, #156]	; (82b4 <main+0x15c>)
    8218:	4e27      	ldr	r6, [pc, #156]	; (82b8 <main+0x160>)
    821a:	4928      	ldr	r1, [pc, #160]	; (82bc <main+0x164>)
    821c:	22a0      	movs	r2, #160	; 0xa0
    821e:	f883 230c 	strb.w	r2, [r3, #780]	; 0x30c
    8222:	2027      	movs	r0, #39	; 0x27
    8224:	f883 2313 	strb.w	r2, [r3, #787]	; 0x313
    8228:	47b0      	blx	r6
    822a:	4925      	ldr	r1, [pc, #148]	; (82c0 <main+0x168>)
    822c:	2060      	movs	r0, #96	; 0x60
    822e:	47b0      	blx	r6
    8230:	4623      	mov	r3, r4
    8232:	4e24      	ldr	r6, [pc, #144]	; (82c4 <main+0x16c>)
    8234:	9503      	str	r5, [sp, #12]
    8236:	9502      	str	r5, [sp, #8]
    8238:	9501      	str	r5, [sp, #4]
    823a:	9500      	str	r5, [sp, #0]
    823c:	f44f 6200 	mov.w	r2, #2048	; 0x800
    8240:	4921      	ldr	r1, [pc, #132]	; (82c8 <main+0x170>)
    8242:	4822      	ldr	r0, [pc, #136]	; (82cc <main+0x174>)
    8244:	47b0      	blx	r6
    8246:	2302      	movs	r3, #2
    8248:	f44f 6200 	mov.w	r2, #2048	; 0x800
    824c:	4920      	ldr	r1, [pc, #128]	; (82d0 <main+0x178>)
    824e:	9300      	str	r3, [sp, #0]
    8250:	9503      	str	r5, [sp, #12]
    8252:	4623      	mov	r3, r4
    8254:	9502      	str	r5, [sp, #8]
    8256:	9501      	str	r5, [sp, #4]
    8258:	481e      	ldr	r0, [pc, #120]	; (82d4 <main+0x17c>)
    825a:	47b0      	blx	r6
    825c:	4b1e      	ldr	r3, [pc, #120]	; (82d8 <main+0x180>)
    825e:	4798      	blx	r3
    8260:	4b1e      	ldr	r3, [pc, #120]	; (82dc <main+0x184>)
    8262:	481f      	ldr	r0, [pc, #124]	; (82e0 <main+0x188>)
    8264:	4798      	blx	r3
    8266:	4628      	mov	r0, r5
    8268:	b005      	add	sp, #20
    826a:	e8bd 83f0 	ldmia.w	sp!, {r4, r5, r6, r7, r8, r9, pc}
    826e:	bf00      	nop
    8270:	11111111 	.word	0x11111111
    8274:	3fa11111 	.word	0x3fa11111
    8278:	000002d1 	.word	0x000002d1
    827c:	200081a0 	.word	0x200081a0
    8280:	3e124925 	.word	0x3e124925
    8284:	00007da5 	.word	0x00007da5
    8288:	00007dfd 	.word	0x00007dfd
    828c:	ffff3cb0 	.word	0xffff3cb0
    8290:	000082fd 	.word	0x000082fd
    8294:	00007e3d 	.word	0x00007e3d
    8298:	3ff00000 	.word	0x3ff00000
    829c:	00007dd1 	.word	0x00007dd1
    82a0:	00007e1d 	.word	0x00007e1d
    82a4:	200161e4 	.word	0x200161e4
    82a8:	00008b61 	.word	0x00008b61
    82ac:	0000a8a5 	.word	0x0000a8a5
    82b0:	00008aa9 	.word	0x00008aa9
    82b4:	e000e100 	.word	0xe000e100
    82b8:	00000ed1 	.word	0x00000ed1
    82bc:	00007e79 	.word	0x00007e79
    82c0:	00007f0d 	.word	0x00007f0d
    82c4:	000092f9 	.word	0x000092f9
    82c8:	0000bb6b 	.word	0x0000bb6b
    82cc:	00000bd9 	.word	0x00000bd9
    82d0:	0000bb79 	.word	0x0000bb79
    82d4:	000080f1 	.word	0x000080f1
    82d8:	0000933d 	.word	0x0000933d
    82dc:	0000aa0d 	.word	0x0000aa0d
    82e0:	0000bb83 	.word	0x0000bb83
    82e4:	fffffc18 	.word	0xfffffc18
    82e8:	000082ed 	.word	0x000082ed

000082ec <setInputBounds>:
    82ec:	428a      	cmp	r2, r1
    82ee:	bfc1      	itttt	gt
    82f0:	2301      	movgt	r3, #1
    82f2:	f880 3060 	strbgt.w	r3, [r0, #96]	; 0x60
    82f6:	6682      	strgt	r2, [r0, #104]	; 0x68
    82f8:	6641      	strgt	r1, [r0, #100]	; 0x64
    82fa:	4770      	bx	lr

000082fc <setOutputBounds>:
    82fc:	428a      	cmp	r2, r1
    82fe:	bfc1      	itttt	gt
    8300:	2301      	movgt	r3, #1
    8302:	f880 306c 	strbgt.w	r3, [r0, #108]	; 0x6c
    8306:	6701      	strgt	r1, [r0, #112]	; 0x70
    8308:	6742      	strgt	r2, [r0, #116]	; 0x74
    830a:	4770      	bx	lr

0000830c <_read>:
    830c:	b508      	push	{r3, lr}
    830e:	460b      	mov	r3, r1
    8310:	b930      	cbnz	r0, 8320 <_read+0x14>
    8312:	4611      	mov	r1, r2
    8314:	4618      	mov	r0, r3
    8316:	4b04      	ldr	r3, [pc, #16]	; (8328 <_read+0x1c>)
    8318:	4798      	blx	r3
    831a:	ea40 70e0 	orr.w	r0, r0, r0, asr #31
    831e:	bd08      	pop	{r3, pc}
    8320:	f04f 30ff 	mov.w	r0, #4294967295
    8324:	bd08      	pop	{r3, pc}
    8326:	bf00      	nop
    8328:	0000837d 	.word	0x0000837d

0000832c <_write>:
    832c:	3801      	subs	r0, #1
    832e:	2802      	cmp	r0, #2
    8330:	b508      	push	{r3, lr}
    8332:	460b      	mov	r3, r1
    8334:	d806      	bhi.n	8344 <_write+0x18>
    8336:	4611      	mov	r1, r2
    8338:	4618      	mov	r0, r3
    833a:	4b04      	ldr	r3, [pc, #16]	; (834c <_write+0x20>)
    833c:	4798      	blx	r3
    833e:	ea40 70e0 	orr.w	r0, r0, r0, asr #31
    8342:	bd08      	pop	{r3, pc}
    8344:	f04f 30ff 	mov.w	r0, #4294967295
    8348:	bd08      	pop	{r3, pc}
    834a:	bf00      	nop
    834c:	00008399 	.word	0x00008399

00008350 <stdio_io_init>:
    8350:	b570      	push	{r4, r5, r6, lr}
    8352:	4d07      	ldr	r5, [pc, #28]	; (8370 <stdio_io_init+0x20>)
    8354:	4c07      	ldr	r4, [pc, #28]	; (8374 <stdio_io_init+0x24>)
    8356:	682b      	ldr	r3, [r5, #0]
    8358:	4606      	mov	r6, r0
    835a:	2100      	movs	r1, #0
    835c:	6898      	ldr	r0, [r3, #8]
    835e:	47a0      	blx	r4
    8360:	682b      	ldr	r3, [r5, #0]
    8362:	2100      	movs	r1, #0
    8364:	6858      	ldr	r0, [r3, #4]
    8366:	47a0      	blx	r4
    8368:	4b03      	ldr	r3, [pc, #12]	; (8378 <stdio_io_init+0x28>)
    836a:	601e      	str	r6, [r3, #0]
    836c:	bd70      	pop	{r4, r5, r6, pc}
    836e:	bf00      	nop
    8370:	20000050 	.word	0x20000050
    8374:	0000ab25 	.word	0x0000ab25
    8378:	20008350 	.word	0x20008350

0000837c <stdio_io_read>:
    837c:	4a04      	ldr	r2, [pc, #16]	; (8390 <stdio_io_read+0x14>)
    837e:	4603      	mov	r3, r0
    8380:	6810      	ldr	r0, [r2, #0]
    8382:	b118      	cbz	r0, 838c <stdio_io_read+0x10>
    8384:	b28a      	uxth	r2, r1
    8386:	4619      	mov	r1, r3
    8388:	4b02      	ldr	r3, [pc, #8]	; (8394 <stdio_io_read+0x18>)
    838a:	4718      	bx	r3
    838c:	4770      	bx	lr
    838e:	bf00      	nop
    8390:	20008350 	.word	0x20008350
    8394:	00000f8d 	.word	0x00000f8d

00008398 <stdio_io_write>:
    8398:	4a04      	ldr	r2, [pc, #16]	; (83ac <stdio_io_write+0x14>)
    839a:	4603      	mov	r3, r0
    839c:	6810      	ldr	r0, [r2, #0]
    839e:	b118      	cbz	r0, 83a8 <stdio_io_write+0x10>
    83a0:	b28a      	uxth	r2, r1
    83a2:	4619      	mov	r1, r3
    83a4:	4b02      	ldr	r3, [pc, #8]	; (83b0 <stdio_io_write+0x18>)
    83a6:	4718      	bx	r3
    83a8:	4770      	bx	lr
    83aa:	bf00      	nop
    83ac:	20008350 	.word	0x20008350
    83b0:	00000f89 	.word	0x00000f89

000083b4 <stdio_redirect_init>:
    83b4:	b510      	push	{r4, lr}
    83b6:	4c04      	ldr	r4, [pc, #16]	; (83c8 <stdio_redirect_init+0x14>)
    83b8:	4b04      	ldr	r3, [pc, #16]	; (83cc <stdio_redirect_init+0x18>)
    83ba:	4620      	mov	r0, r4
    83bc:	4798      	blx	r3
    83be:	4620      	mov	r0, r4
    83c0:	4b03      	ldr	r3, [pc, #12]	; (83d0 <stdio_redirect_init+0x1c>)
    83c2:	e8bd 4010 	ldmia.w	sp!, {r4, lr}
    83c6:	4718      	bx	r3
    83c8:	200128e4 	.word	0x200128e4
    83cc:	00001129 	.word	0x00001129
    83d0:	00008351 	.word	0x00008351

000083d4 <vListInitialise>:
    83d4:	f100 0308 	add.w	r3, r0, #8
    83d8:	6043      	str	r3, [r0, #4]
    83da:	f04f 32ff 	mov.w	r2, #4294967295
    83de:	60c3      	str	r3, [r0, #12]
    83e0:	6103      	str	r3, [r0, #16]
    83e2:	2300      	movs	r3, #0
    83e4:	6082      	str	r2, [r0, #8]
    83e6:	6003      	str	r3, [r0, #0]
    83e8:	4770      	bx	lr

000083ea <vListInitialiseItem>:
    83ea:	2300      	movs	r3, #0
    83ec:	6103      	str	r3, [r0, #16]
    83ee:	4770      	bx	lr

000083f0 <vListInsertEnd>:
    83f0:	6843      	ldr	r3, [r0, #4]
    83f2:	604b      	str	r3, [r1, #4]
    83f4:	689a      	ldr	r2, [r3, #8]
    83f6:	608a      	str	r2, [r1, #8]
    83f8:	689a      	ldr	r2, [r3, #8]
    83fa:	6051      	str	r1, [r2, #4]
    83fc:	6099      	str	r1, [r3, #8]
    83fe:	6803      	ldr	r3, [r0, #0]
    8400:	6108      	str	r0, [r1, #16]
    8402:	3301      	adds	r3, #1
    8404:	6003      	str	r3, [r0, #0]
    8406:	4770      	bx	lr

00008408 <vListInsert>:
    8408:	680a      	ldr	r2, [r1, #0]
    840a:	1c53      	adds	r3, r2, #1
    840c:	b530      	push	{r4, r5, lr}
    840e:	d10a      	bne.n	8426 <vListInsert+0x1e>
    8410:	6903      	ldr	r3, [r0, #16]
    8412:	685a      	ldr	r2, [r3, #4]
    8414:	604a      	str	r2, [r1, #4]
    8416:	6091      	str	r1, [r2, #8]
    8418:	608b      	str	r3, [r1, #8]
    841a:	6059      	str	r1, [r3, #4]
    841c:	6803      	ldr	r3, [r0, #0]
    841e:	6108      	str	r0, [r1, #16]
    8420:	3301      	adds	r3, #1
    8422:	6003      	str	r3, [r0, #0]
    8424:	bd30      	pop	{r4, r5, pc}
    8426:	f100 0308 	add.w	r3, r0, #8
    842a:	685c      	ldr	r4, [r3, #4]
    842c:	6825      	ldr	r5, [r4, #0]
    842e:	42aa      	cmp	r2, r5
    8430:	d3ef      	bcc.n	8412 <vListInsert+0xa>
    8432:	4623      	mov	r3, r4
    8434:	e7f9      	b.n	842a <vListInsert+0x22>

00008436 <uxListRemove>:
    8436:	6841      	ldr	r1, [r0, #4]
    8438:	6882      	ldr	r2, [r0, #8]
    843a:	6903      	ldr	r3, [r0, #16]
    843c:	608a      	str	r2, [r1, #8]
    843e:	6882      	ldr	r2, [r0, #8]
    8440:	6051      	str	r1, [r2, #4]
    8442:	6859      	ldr	r1, [r3, #4]
    8444:	4288      	cmp	r0, r1
    8446:	bf08      	it	eq
    8448:	605a      	streq	r2, [r3, #4]
    844a:	2200      	movs	r2, #0
    844c:	6102      	str	r2, [r0, #16]
    844e:	6818      	ldr	r0, [r3, #0]
    8450:	3801      	subs	r0, #1
    8452:	6018      	str	r0, [r3, #0]
    8454:	4770      	bx	lr
	...

00008458 <prvTaskExitError>:
    8458:	4b0a      	ldr	r3, [pc, #40]	; (8484 <prvTaskExitError+0x2c>)
    845a:	681b      	ldr	r3, [r3, #0]
    845c:	3301      	adds	r3, #1
    845e:	d008      	beq.n	8472 <prvTaskExitError+0x1a>
    8460:	f04f 0380 	mov.w	r3, #128	; 0x80
    8464:	f383 8811 	msr	BASEPRI, r3
    8468:	f3bf 8f6f 	isb	sy
    846c:	f3bf 8f4f 	dsb	sy
    8470:	e7fe      	b.n	8470 <prvTaskExitError+0x18>
    8472:	f04f 0380 	mov.w	r3, #128	; 0x80
    8476:	f383 8811 	msr	BASEPRI, r3
    847a:	f3bf 8f6f 	isb	sy
    847e:	f3bf 8f4f 	dsb	sy
    8482:	e7fe      	b.n	8482 <prvTaskExitError+0x2a>
    8484:	20000048 	.word	0x20000048

00008488 <prvPortStartFirstTask>:
    8488:	4806      	ldr	r0, [pc, #24]	; (84a4 <prvPortStartFirstTask+0x1c>)
    848a:	6800      	ldr	r0, [r0, #0]
    848c:	6800      	ldr	r0, [r0, #0]
    848e:	f380 8808 	msr	MSP, r0
    8492:	b662      	cpsie	i
    8494:	b661      	cpsie	f
    8496:	f3bf 8f4f 	dsb	sy
    849a:	f3bf 8f6f 	isb	sy
    849e:	df00      	svc	0
    84a0:	bf00      	nop
    84a2:	0000      	.short	0x0000
    84a4:	e000ed08 	.word	0xe000ed08

000084a8 <vPortEnableVFP>:
    84a8:	f8df 000c 	ldr.w	r0, [pc, #12]	; 84b8 <vPortEnableVFP+0x10>
    84ac:	6801      	ldr	r1, [r0, #0]
    84ae:	f441 0170 	orr.w	r1, r1, #15728640	; 0xf00000
    84b2:	6001      	str	r1, [r0, #0]
    84b4:	4770      	bx	lr
    84b6:	0000      	.short	0x0000
    84b8:	e000ed88 	.word	0xe000ed88

000084bc <pxPortInitialiseStack>:
    84bc:	f04f 7380 	mov.w	r3, #16777216	; 0x1000000
    84c0:	e900 000a 	stmdb	r0, {r1, r3}
    84c4:	4b05      	ldr	r3, [pc, #20]	; (84dc <pxPortInitialiseStack+0x20>)
    84c6:	f840 3c0c 	str.w	r3, [r0, #-12]
    84ca:	f06f 0302 	mvn.w	r3, #2
    84ce:	f840 2c20 	str.w	r2, [r0, #-32]
    84d2:	f840 3c24 	str.w	r3, [r0, #-36]
    84d6:	3844      	subs	r0, #68	; 0x44
    84d8:	4770      	bx	lr
    84da:	bf00      	nop
    84dc:	00008459 	.word	0x00008459

000084e0 <SVCall_Handler>:
    84e0:	4b06      	ldr	r3, [pc, #24]	; (84fc <pxCurrentTCBConst2>)
    84e2:	6819      	ldr	r1, [r3, #0]
    84e4:	6808      	ldr	r0, [r1, #0]
    84e6:	e8b0 4ff0 	ldmia.w	r0!, {r4, r5, r6, r7, r8, r9, sl, fp, lr}
    84ea:	f380 8809 	msr	PSP, r0
    84ee:	f3bf 8f6f 	isb	sy
    84f2:	f04f 0000 	mov.w	r0, #0
    84f6:	f380 8811 	msr	BASEPRI, r0
    84fa:	4770      	bx	lr

000084fc <pxCurrentTCBConst2>:
    84fc:	20012788 	.word	0x20012788

00008500 <vPortEnterCritical>:
    8500:	f04f 0380 	mov.w	r3, #128	; 0x80
    8504:	f383 8811 	msr	BASEPRI, r3
    8508:	f3bf 8f6f 	isb	sy
    850c:	f3bf 8f4f 	dsb	sy
    8510:	4a0a      	ldr	r2, [pc, #40]	; (853c <vPortEnterCritical+0x3c>)
    8512:	6813      	ldr	r3, [r2, #0]
    8514:	3301      	adds	r3, #1
    8516:	2b01      	cmp	r3, #1
    8518:	6013      	str	r3, [r2, #0]
    851a:	d10d      	bne.n	8538 <vPortEnterCritical+0x38>
    851c:	4b08      	ldr	r3, [pc, #32]	; (8540 <vPortEnterCritical+0x40>)
    851e:	681b      	ldr	r3, [r3, #0]
    8520:	f013 0fff 	tst.w	r3, #255	; 0xff
    8524:	d008      	beq.n	8538 <vPortEnterCritical+0x38>
    8526:	f04f 0380 	mov.w	r3, #128	; 0x80
    852a:	f383 8811 	msr	BASEPRI, r3
    852e:	f3bf 8f6f 	isb	sy
    8532:	f3bf 8f4f 	dsb	sy
    8536:	e7fe      	b.n	8536 <vPortEnterCritical+0x36>
    8538:	4770      	bx	lr
    853a:	bf00      	nop
    853c:	20000048 	.word	0x20000048
    8540:	e000ed04 	.word	0xe000ed04

00008544 <vPortExitCritical>:
    8544:	4a08      	ldr	r2, [pc, #32]	; (8568 <vPortExitCritical+0x24>)
    8546:	6813      	ldr	r3, [r2, #0]
    8548:	b943      	cbnz	r3, 855c <vPortExitCritical+0x18>
    854a:	f04f 0380 	mov.w	r3, #128	; 0x80
    854e:	f383 8811 	msr	BASEPRI, r3
    8552:	f3bf 8f6f 	isb	sy
    8556:	f3bf 8f4f 	dsb	sy
    855a:	e7fe      	b.n	855a <vPortExitCritical+0x16>
    855c:	3b01      	subs	r3, #1
    855e:	6013      	str	r3, [r2, #0]
    8560:	b90b      	cbnz	r3, 8566 <vPortExitCritical+0x22>
    8562:	f383 8811 	msr	BASEPRI, r3
    8566:	4770      	bx	lr
    8568:	20000048 	.word	0x20000048

0000856c <PendSV_Handler>:
    856c:	f3ef 8009 	mrs	r0, PSP
    8570:	f3bf 8f6f 	isb	sy
    8574:	4b14      	ldr	r3, [pc, #80]	; (85c8 <pxCurrentTCBConst>)
    8576:	681a      	ldr	r2, [r3, #0]
    8578:	f01e 0f10 	tst.w	lr, #16
    857c:	bf08      	it	eq
    857e:	ed20 8a10 	vstmdbeq	r0!, {s16-s31}
    8582:	e920 4ff0 	stmdb	r0!, {r4, r5, r6, r7, r8, r9, sl, fp, lr}
    8586:	6010      	str	r0, [r2, #0]
    8588:	f84d 3d04 	str.w	r3, [sp, #-4]!
    858c:	f04f 0080 	mov.w	r0, #128	; 0x80
    8590:	f380 8811 	msr	BASEPRI, r0
    8594:	f3bf 8f4f 	dsb	sy
    8598:	f3bf 8f6f 	isb	sy
    859c:	f001 f886 	bl	96ac <vTaskSwitchContext>
    85a0:	f04f 0000 	mov.w	r0, #0
    85a4:	f380 8811 	msr	BASEPRI, r0
    85a8:	bc08      	pop	{r3}
    85aa:	6819      	ldr	r1, [r3, #0]
    85ac:	6808      	ldr	r0, [r1, #0]
    85ae:	e8b0 4ff0 	ldmia.w	r0!, {r4, r5, r6, r7, r8, r9, sl, fp, lr}
    85b2:	f01e 0f10 	tst.w	lr, #16
    85b6:	bf08      	it	eq
    85b8:	ecb0 8a10 	vldmiaeq	r0!, {s16-s31}
    85bc:	f380 8809 	msr	PSP, r0
    85c0:	f3bf 8f6f 	isb	sy
    85c4:	4770      	bx	lr
    85c6:	bf00      	nop

000085c8 <pxCurrentTCBConst>:
    85c8:	20012788 	.word	0x20012788

000085cc <SysTick_Handler>:
    85cc:	b508      	push	{r3, lr}
    85ce:	f3ef 8311 	mrs	r3, BASEPRI
    85d2:	f04f 0280 	mov.w	r2, #128	; 0x80
    85d6:	f382 8811 	msr	BASEPRI, r2
    85da:	f3bf 8f6f 	isb	sy
    85de:	f3bf 8f4f 	dsb	sy
    85e2:	4b05      	ldr	r3, [pc, #20]	; (85f8 <SysTick_Handler+0x2c>)
    85e4:	4798      	blx	r3
    85e6:	b118      	cbz	r0, 85f0 <SysTick_Handler+0x24>
    85e8:	4b04      	ldr	r3, [pc, #16]	; (85fc <SysTick_Handler+0x30>)
    85ea:	f04f 5280 	mov.w	r2, #268435456	; 0x10000000
    85ee:	601a      	str	r2, [r3, #0]
    85f0:	2300      	movs	r3, #0
    85f2:	f383 8811 	msr	BASEPRI, r3
    85f6:	bd08      	pop	{r3, pc}
    85f8:	000093d9 	.word	0x000093d9
    85fc:	e000ed04 	.word	0xe000ed04

00008600 <vPortSetupTimerInterrupt>:
    8600:	4b03      	ldr	r3, [pc, #12]	; (8610 <vPortSetupTimerInterrupt+0x10>)
    8602:	f642 62df 	movw	r2, #11999	; 0x2edf
    8606:	601a      	str	r2, [r3, #0]
    8608:	2207      	movs	r2, #7
    860a:	f843 2c04 	str.w	r2, [r3, #-4]
    860e:	4770      	bx	lr
    8610:	e000e014 	.word	0xe000e014

00008614 <xPortStartScheduler>:
    8614:	4b30      	ldr	r3, [pc, #192]	; (86d8 <xPortStartScheduler+0xc4>)
    8616:	4a31      	ldr	r2, [pc, #196]	; (86dc <xPortStartScheduler+0xc8>)
    8618:	b513      	push	{r0, r1, r4, lr}
    861a:	6819      	ldr	r1, [r3, #0]
    861c:	4291      	cmp	r1, r2
    861e:	d108      	bne.n	8632 <xPortStartScheduler+0x1e>
    8620:	f04f 0380 	mov.w	r3, #128	; 0x80
    8624:	f383 8811 	msr	BASEPRI, r3
    8628:	f3bf 8f6f 	isb	sy
    862c:	f3bf 8f4f 	dsb	sy
    8630:	e7fe      	b.n	8630 <xPortStartScheduler+0x1c>
    8632:	681a      	ldr	r2, [r3, #0]
    8634:	4b2a      	ldr	r3, [pc, #168]	; (86e0 <xPortStartScheduler+0xcc>)
    8636:	429a      	cmp	r2, r3
    8638:	d108      	bne.n	864c <xPortStartScheduler+0x38>
    863a:	f04f 0380 	mov.w	r3, #128	; 0x80
    863e:	f383 8811 	msr	BASEPRI, r3
    8642:	f3bf 8f6f 	isb	sy
    8646:	f3bf 8f4f 	dsb	sy
    864a:	e7fe      	b.n	864a <xPortStartScheduler+0x36>
    864c:	4b25      	ldr	r3, [pc, #148]	; (86e4 <xPortStartScheduler+0xd0>)
    864e:	781a      	ldrb	r2, [r3, #0]
    8650:	b2d2      	uxtb	r2, r2
    8652:	9201      	str	r2, [sp, #4]
    8654:	22ff      	movs	r2, #255	; 0xff
    8656:	701a      	strb	r2, [r3, #0]
    8658:	781b      	ldrb	r3, [r3, #0]
    865a:	b2db      	uxtb	r3, r3
    865c:	f88d 3003 	strb.w	r3, [sp, #3]
    8660:	f89d 2003 	ldrb.w	r2, [sp, #3]
    8664:	4b20      	ldr	r3, [pc, #128]	; (86e8 <xPortStartScheduler+0xd4>)
    8666:	f002 0280 	and.w	r2, r2, #128	; 0x80
    866a:	701a      	strb	r2, [r3, #0]
    866c:	2207      	movs	r2, #7
    866e:	605a      	str	r2, [r3, #4]
    8670:	2100      	movs	r1, #0
    8672:	f89d 0003 	ldrb.w	r0, [sp, #3]
    8676:	0600      	lsls	r0, r0, #24
    8678:	f102 34ff 	add.w	r4, r2, #4294967295
    867c:	d423      	bmi.n	86c6 <xPortStartScheduler+0xb2>
    867e:	b101      	cbz	r1, 8682 <xPortStartScheduler+0x6e>
    8680:	605a      	str	r2, [r3, #4]
    8682:	685a      	ldr	r2, [r3, #4]
    8684:	0212      	lsls	r2, r2, #8
    8686:	f402 62e0 	and.w	r2, r2, #1792	; 0x700
    868a:	605a      	str	r2, [r3, #4]
    868c:	9b01      	ldr	r3, [sp, #4]
    868e:	4a15      	ldr	r2, [pc, #84]	; (86e4 <xPortStartScheduler+0xd0>)
    8690:	b2db      	uxtb	r3, r3
    8692:	7013      	strb	r3, [r2, #0]
    8694:	4b15      	ldr	r3, [pc, #84]	; (86ec <xPortStartScheduler+0xd8>)
    8696:	681a      	ldr	r2, [r3, #0]
    8698:	f442 0260 	orr.w	r2, r2, #14680064	; 0xe00000
    869c:	601a      	str	r2, [r3, #0]
    869e:	681a      	ldr	r2, [r3, #0]
    86a0:	f042 4260 	orr.w	r2, r2, #3758096384	; 0xe0000000
    86a4:	601a      	str	r2, [r3, #0]
    86a6:	4b12      	ldr	r3, [pc, #72]	; (86f0 <xPortStartScheduler+0xdc>)
    86a8:	4798      	blx	r3
    86aa:	4b12      	ldr	r3, [pc, #72]	; (86f4 <xPortStartScheduler+0xe0>)
    86ac:	2200      	movs	r2, #0
    86ae:	601a      	str	r2, [r3, #0]
    86b0:	4b11      	ldr	r3, [pc, #68]	; (86f8 <xPortStartScheduler+0xe4>)
    86b2:	4798      	blx	r3
    86b4:	4a11      	ldr	r2, [pc, #68]	; (86fc <xPortStartScheduler+0xe8>)
    86b6:	6813      	ldr	r3, [r2, #0]
    86b8:	f043 4340 	orr.w	r3, r3, #3221225472	; 0xc0000000
    86bc:	6013      	str	r3, [r2, #0]
    86be:	4b10      	ldr	r3, [pc, #64]	; (8700 <xPortStartScheduler+0xec>)
    86c0:	4798      	blx	r3
    86c2:	4b10      	ldr	r3, [pc, #64]	; (8704 <xPortStartScheduler+0xf0>)
    86c4:	4798      	blx	r3
    86c6:	f89d 2003 	ldrb.w	r2, [sp, #3]
    86ca:	0052      	lsls	r2, r2, #1
    86cc:	b2d2      	uxtb	r2, r2
    86ce:	f88d 2003 	strb.w	r2, [sp, #3]
    86d2:	2101      	movs	r1, #1
    86d4:	4622      	mov	r2, r4
    86d6:	e7cc      	b.n	8672 <xPortStartScheduler+0x5e>
    86d8:	e000ed00 	.word	0xe000ed00
    86dc:	410fc271 	.word	0x410fc271
    86e0:	410fc270 	.word	0x410fc270
    86e4:	e000e400 	.word	0xe000e400
    86e8:	20008354 	.word	0x20008354
    86ec:	e000ed20 	.word	0xe000ed20
    86f0:	00008601 	.word	0x00008601
    86f4:	20000048 	.word	0x20000048
    86f8:	000084a9 	.word	0x000084a9
    86fc:	e000ef34 	.word	0xe000ef34
    8700:	00008489 	.word	0x00008489
    8704:	00008459 	.word	0x00008459

00008708 <vPortValidateInterruptPriority>:
    8708:	f3ef 8305 	mrs	r3, IPSR
    870c:	2b0f      	cmp	r3, #15
    870e:	4a10      	ldr	r2, [pc, #64]	; (8750 <vPortValidateInterruptPriority+0x48>)
    8710:	d90d      	bls.n	872e <vPortValidateInterruptPriority+0x26>
    8712:	4910      	ldr	r1, [pc, #64]	; (8754 <vPortValidateInterruptPriority+0x4c>)
    8714:	5c5b      	ldrb	r3, [r3, r1]
    8716:	7811      	ldrb	r1, [r2, #0]
    8718:	4299      	cmp	r1, r3
    871a:	d908      	bls.n	872e <vPortValidateInterruptPriority+0x26>
    871c:	f04f 0380 	mov.w	r3, #128	; 0x80
    8720:	f383 8811 	msr	BASEPRI, r3
    8724:	f3bf 8f6f 	isb	sy
    8728:	f3bf 8f4f 	dsb	sy
    872c:	e7fe      	b.n	872c <vPortValidateInterruptPriority+0x24>
    872e:	4b0a      	ldr	r3, [pc, #40]	; (8758 <vPortValidateInterruptPriority+0x50>)
    8730:	6852      	ldr	r2, [r2, #4]
    8732:	681b      	ldr	r3, [r3, #0]
    8734:	f403 63e0 	and.w	r3, r3, #1792	; 0x700
    8738:	4293      	cmp	r3, r2
    873a:	d908      	bls.n	874e <vPortValidateInterruptPriority+0x46>
    873c:	f04f 0380 	mov.w	r3, #128	; 0x80
    8740:	f383 8811 	msr	BASEPRI, r3
    8744:	f3bf 8f6f 	isb	sy
    8748:	f3bf 8f4f 	dsb	sy
    874c:	e7fe      	b.n	874c <vPortValidateInterruptPriority+0x44>
    874e:	4770      	bx	lr
    8750:	20008354 	.word	0x20008354
    8754:	e000e3f0 	.word	0xe000e3f0
    8758:	e000ed0c 	.word	0xe000ed0c

0000875c <pvPortMalloc>:
    875c:	b570      	push	{r4, r5, r6, lr}
    875e:	4b29      	ldr	r3, [pc, #164]	; (8804 <pvPortMalloc+0xa8>)
    8760:	4604      	mov	r4, r0
    8762:	4798      	blx	r3
    8764:	4b28      	ldr	r3, [pc, #160]	; (8808 <pvPortMalloc+0xac>)
    8766:	6898      	ldr	r0, [r3, #8]
    8768:	b990      	cbnz	r0, 8790 <pvPortMalloc+0x34>
    876a:	4928      	ldr	r1, [pc, #160]	; (880c <pvPortMalloc+0xb0>)
    876c:	6058      	str	r0, [r3, #4]
    876e:	f103 0214 	add.w	r2, r3, #20
    8772:	f022 0207 	bic.w	r2, r2, #7
    8776:	f24a 4508 	movw	r5, #41992	; 0xa408
    877a:	f8c1 5b68 	str.w	r5, [r1, #2920]	; 0xb68
    877e:	f8c1 0b64 	str.w	r0, [r1, #2916]	; 0xb64
    8782:	f601 3164 	addw	r1, r1, #2916	; 0xb64
    8786:	601a      	str	r2, [r3, #0]
    8788:	6055      	str	r5, [r2, #4]
    878a:	6011      	str	r1, [r2, #0]
    878c:	2201      	movs	r2, #1
    878e:	609a      	str	r2, [r3, #8]
    8790:	b12c      	cbz	r4, 879e <pvPortMalloc+0x42>
    8792:	3408      	adds	r4, #8
    8794:	0762      	lsls	r2, r4, #29
    8796:	bf1c      	itt	ne
    8798:	f024 0407 	bicne.w	r4, r4, #7
    879c:	3408      	addne	r4, #8
    879e:	1e61      	subs	r1, r4, #1
    87a0:	f24a 4206 	movw	r2, #41990	; 0xa406
    87a4:	4291      	cmp	r1, r2
    87a6:	d807      	bhi.n	87b8 <pvPortMalloc+0x5c>
    87a8:	681b      	ldr	r3, [r3, #0]
    87aa:	4917      	ldr	r1, [pc, #92]	; (8808 <pvPortMalloc+0xac>)
    87ac:	685a      	ldr	r2, [r3, #4]
    87ae:	4294      	cmp	r4, r2
    87b0:	d804      	bhi.n	87bc <pvPortMalloc+0x60>
    87b2:	4817      	ldr	r0, [pc, #92]	; (8810 <pvPortMalloc+0xb4>)
    87b4:	4283      	cmp	r3, r0
    87b6:	d107      	bne.n	87c8 <pvPortMalloc+0x6c>
    87b8:	2500      	movs	r5, #0
    87ba:	e01d      	b.n	87f8 <pvPortMalloc+0x9c>
    87bc:	6818      	ldr	r0, [r3, #0]
    87be:	2800      	cmp	r0, #0
    87c0:	d0f7      	beq.n	87b2 <pvPortMalloc+0x56>
    87c2:	4619      	mov	r1, r3
    87c4:	4603      	mov	r3, r0
    87c6:	e7f1      	b.n	87ac <pvPortMalloc+0x50>
    87c8:	680d      	ldr	r5, [r1, #0]
    87ca:	6818      	ldr	r0, [r3, #0]
    87cc:	6008      	str	r0, [r1, #0]
    87ce:	1b12      	subs	r2, r2, r4
    87d0:	2a10      	cmp	r2, #16
    87d2:	f105 0508 	add.w	r5, r5, #8
    87d6:	d90a      	bls.n	87ee <pvPortMalloc+0x92>
    87d8:	1919      	adds	r1, r3, r4
    87da:	604a      	str	r2, [r1, #4]
    87dc:	605c      	str	r4, [r3, #4]
    87de:	684e      	ldr	r6, [r1, #4]
    87e0:	4a09      	ldr	r2, [pc, #36]	; (8808 <pvPortMalloc+0xac>)
    87e2:	6810      	ldr	r0, [r2, #0]
    87e4:	6844      	ldr	r4, [r0, #4]
    87e6:	42a6      	cmp	r6, r4
    87e8:	d80a      	bhi.n	8800 <pvPortMalloc+0xa4>
    87ea:	6008      	str	r0, [r1, #0]
    87ec:	6011      	str	r1, [r2, #0]
    87ee:	4909      	ldr	r1, [pc, #36]	; (8814 <pvPortMalloc+0xb8>)
    87f0:	685b      	ldr	r3, [r3, #4]
    87f2:	680a      	ldr	r2, [r1, #0]
    87f4:	1ad2      	subs	r2, r2, r3
    87f6:	600a      	str	r2, [r1, #0]
    87f8:	4b07      	ldr	r3, [pc, #28]	; (8818 <pvPortMalloc+0xbc>)
    87fa:	4798      	blx	r3
    87fc:	4628      	mov	r0, r5
    87fe:	bd70      	pop	{r4, r5, r6, pc}
    8800:	4602      	mov	r2, r0
    8802:	e7ee      	b.n	87e2 <pvPortMalloc+0x86>
    8804:	000093b9 	.word	0x000093b9
    8808:	2000835c 	.word	0x2000835c
    880c:	20011c14 	.word	0x20011c14
    8810:	20012778 	.word	0x20012778
    8814:	2000004c 	.word	0x2000004c
    8818:	000094cd 	.word	0x000094cd

0000881c <vPortFree>:
    881c:	b570      	push	{r4, r5, r6, lr}
    881e:	4604      	mov	r4, r0
    8820:	b1b8      	cbz	r0, 8852 <vPortFree+0x36>
    8822:	4b0c      	ldr	r3, [pc, #48]	; (8854 <vPortFree+0x38>)
    8824:	f1a0 0508 	sub.w	r5, r0, #8
    8828:	4798      	blx	r3
    882a:	f854 0c04 	ldr.w	r0, [r4, #-4]
    882e:	4a0a      	ldr	r2, [pc, #40]	; (8858 <vPortFree+0x3c>)
    8830:	6811      	ldr	r1, [r2, #0]
    8832:	684b      	ldr	r3, [r1, #4]
    8834:	4298      	cmp	r0, r3
    8836:	d80a      	bhi.n	884e <vPortFree+0x32>
    8838:	f844 1c08 	str.w	r1, [r4, #-8]
    883c:	6015      	str	r5, [r2, #0]
    883e:	4a07      	ldr	r2, [pc, #28]	; (885c <vPortFree+0x40>)
    8840:	6813      	ldr	r3, [r2, #0]
    8842:	4403      	add	r3, r0
    8844:	6013      	str	r3, [r2, #0]
    8846:	e8bd 4070 	ldmia.w	sp!, {r4, r5, r6, lr}
    884a:	4b05      	ldr	r3, [pc, #20]	; (8860 <vPortFree+0x44>)
    884c:	4718      	bx	r3
    884e:	460a      	mov	r2, r1
    8850:	e7ee      	b.n	8830 <vPortFree+0x14>
    8852:	bd70      	pop	{r4, r5, r6, pc}
    8854:	000093b9 	.word	0x000093b9
    8858:	2000835c 	.word	0x2000835c
    885c:	2000004c 	.word	0x2000004c
    8860:	000094cd 	.word	0x000094cd

00008864 <prvCopyDataToQueue>:
    8864:	b538      	push	{r3, r4, r5, lr}
    8866:	4615      	mov	r5, r2
    8868:	6c02      	ldr	r2, [r0, #64]	; 0x40
    886a:	4604      	mov	r4, r0
    886c:	b95a      	cbnz	r2, 8886 <prvCopyDataToQueue+0x22>
    886e:	6805      	ldr	r5, [r0, #0]
    8870:	b10d      	cbz	r5, 8876 <prvCopyDataToQueue+0x12>
    8872:	2000      	movs	r0, #0
    8874:	e003      	b.n	887e <prvCopyDataToQueue+0x1a>
    8876:	6840      	ldr	r0, [r0, #4]
    8878:	4b15      	ldr	r3, [pc, #84]	; (88d0 <prvCopyDataToQueue+0x6c>)
    887a:	4798      	blx	r3
    887c:	6065      	str	r5, [r4, #4]
    887e:	6ba3      	ldr	r3, [r4, #56]	; 0x38
    8880:	3301      	adds	r3, #1
    8882:	63a3      	str	r3, [r4, #56]	; 0x38
    8884:	bd38      	pop	{r3, r4, r5, pc}
    8886:	4b13      	ldr	r3, [pc, #76]	; (88d4 <prvCopyDataToQueue+0x70>)
    8888:	b95d      	cbnz	r5, 88a2 <prvCopyDataToQueue+0x3e>
    888a:	6880      	ldr	r0, [r0, #8]
    888c:	4798      	blx	r3
    888e:	68a3      	ldr	r3, [r4, #8]
    8890:	6c22      	ldr	r2, [r4, #64]	; 0x40
    8892:	4413      	add	r3, r2
    8894:	6862      	ldr	r2, [r4, #4]
    8896:	60a3      	str	r3, [r4, #8]
    8898:	4293      	cmp	r3, r2
    889a:	d3ea      	bcc.n	8872 <prvCopyDataToQueue+0xe>
    889c:	6823      	ldr	r3, [r4, #0]
    889e:	60a3      	str	r3, [r4, #8]
    88a0:	e7e7      	b.n	8872 <prvCopyDataToQueue+0xe>
    88a2:	68c0      	ldr	r0, [r0, #12]
    88a4:	4798      	blx	r3
    88a6:	6c23      	ldr	r3, [r4, #64]	; 0x40
    88a8:	68e2      	ldr	r2, [r4, #12]
    88aa:	6821      	ldr	r1, [r4, #0]
    88ac:	425b      	negs	r3, r3
    88ae:	441a      	add	r2, r3
    88b0:	428a      	cmp	r2, r1
    88b2:	60e2      	str	r2, [r4, #12]
    88b4:	bf3e      	ittt	cc
    88b6:	6862      	ldrcc	r2, [r4, #4]
    88b8:	189b      	addcc	r3, r3, r2
    88ba:	60e3      	strcc	r3, [r4, #12]
    88bc:	2d02      	cmp	r5, #2
    88be:	d1d8      	bne.n	8872 <prvCopyDataToQueue+0xe>
    88c0:	6ba3      	ldr	r3, [r4, #56]	; 0x38
    88c2:	2b00      	cmp	r3, #0
    88c4:	d0d5      	beq.n	8872 <prvCopyDataToQueue+0xe>
    88c6:	6ba3      	ldr	r3, [r4, #56]	; 0x38
    88c8:	3b01      	subs	r3, #1
    88ca:	63a3      	str	r3, [r4, #56]	; 0x38
    88cc:	e7d1      	b.n	8872 <prvCopyDataToQueue+0xe>
    88ce:	bf00      	nop
    88d0:	000099b9 	.word	0x000099b9
    88d4:	0000a88f 	.word	0x0000a88f

000088d8 <prvCopyDataFromQueue>:
    88d8:	4603      	mov	r3, r0
    88da:	b410      	push	{r4}
    88dc:	6c1a      	ldr	r2, [r3, #64]	; 0x40
    88de:	4608      	mov	r0, r1
    88e0:	b162      	cbz	r2, 88fc <prvCopyDataFromQueue+0x24>
    88e2:	68d9      	ldr	r1, [r3, #12]
    88e4:	685c      	ldr	r4, [r3, #4]
    88e6:	4411      	add	r1, r2
    88e8:	42a1      	cmp	r1, r4
    88ea:	60d9      	str	r1, [r3, #12]
    88ec:	bf24      	itt	cs
    88ee:	6819      	ldrcs	r1, [r3, #0]
    88f0:	60d9      	strcs	r1, [r3, #12]
    88f2:	68d9      	ldr	r1, [r3, #12]
    88f4:	f85d 4b04 	ldr.w	r4, [sp], #4
    88f8:	4b02      	ldr	r3, [pc, #8]	; (8904 <prvCopyDataFromQueue+0x2c>)
    88fa:	4718      	bx	r3
    88fc:	f85d 4b04 	ldr.w	r4, [sp], #4
    8900:	4770      	bx	lr
    8902:	bf00      	nop
    8904:	0000a88f 	.word	0x0000a88f

00008908 <prvNotifyQueueSetContainer.part.0>:
    8908:	f04f 0380 	mov.w	r3, #128	; 0x80
    890c:	f383 8811 	msr	BASEPRI, r3
    8910:	f3bf 8f6f 	isb	sy
    8914:	f3bf 8f4f 	dsb	sy
    8918:	e7fe      	b.n	8918 <prvNotifyQueueSetContainer.part.0+0x10>
	...

0000891c <prvNotifyQueueSetContainer>:
    891c:	b537      	push	{r0, r1, r2, r4, r5, lr}
    891e:	6d44      	ldr	r4, [r0, #84]	; 0x54
    8920:	9001      	str	r0, [sp, #4]
    8922:	460a      	mov	r2, r1
    8924:	b90c      	cbnz	r4, 892a <prvNotifyQueueSetContainer+0xe>
    8926:	4b16      	ldr	r3, [pc, #88]	; (8980 <prvNotifyQueueSetContainer+0x64>)
    8928:	4798      	blx	r3
    892a:	6ba1      	ldr	r1, [r4, #56]	; 0x38
    892c:	6be3      	ldr	r3, [r4, #60]	; 0x3c
    892e:	4299      	cmp	r1, r3
    8930:	d308      	bcc.n	8944 <prvNotifyQueueSetContainer+0x28>
    8932:	f04f 0380 	mov.w	r3, #128	; 0x80
    8936:	f383 8811 	msr	BASEPRI, r3
    893a:	f3bf 8f6f 	isb	sy
    893e:	f3bf 8f4f 	dsb	sy
    8942:	e7fe      	b.n	8942 <prvNotifyQueueSetContainer+0x26>
    8944:	6ba1      	ldr	r1, [r4, #56]	; 0x38
    8946:	428b      	cmp	r3, r1
    8948:	d917      	bls.n	897a <prvNotifyQueueSetContainer+0x5e>
    894a:	4b0e      	ldr	r3, [pc, #56]	; (8984 <prvNotifyQueueSetContainer+0x68>)
    894c:	a901      	add	r1, sp, #4
    894e:	4620      	mov	r0, r4
    8950:	4798      	blx	r3
    8952:	6ca3      	ldr	r3, [r4, #72]	; 0x48
    8954:	3301      	adds	r3, #1
    8956:	4605      	mov	r5, r0
    8958:	d10b      	bne.n	8972 <prvNotifyQueueSetContainer+0x56>
    895a:	6a63      	ldr	r3, [r4, #36]	; 0x24
    895c:	b133      	cbz	r3, 896c <prvNotifyQueueSetContainer+0x50>
    895e:	f104 0024 	add.w	r0, r4, #36	; 0x24
    8962:	4b09      	ldr	r3, [pc, #36]	; (8988 <prvNotifyQueueSetContainer+0x6c>)
    8964:	4798      	blx	r3
    8966:	2800      	cmp	r0, #0
    8968:	bf18      	it	ne
    896a:	2501      	movne	r5, #1
    896c:	4628      	mov	r0, r5
    896e:	b003      	add	sp, #12
    8970:	bd30      	pop	{r4, r5, pc}
    8972:	6ca3      	ldr	r3, [r4, #72]	; 0x48
    8974:	3301      	adds	r3, #1
    8976:	64a3      	str	r3, [r4, #72]	; 0x48
    8978:	e7f8      	b.n	896c <prvNotifyQueueSetContainer+0x50>
    897a:	2500      	movs	r5, #0
    897c:	e7f6      	b.n	896c <prvNotifyQueueSetContainer+0x50>
    897e:	bf00      	nop
    8980:	00008909 	.word	0x00008909
    8984:	00008865 	.word	0x00008865
    8988:	000097e9 	.word	0x000097e9

0000898c <prvUnlockQueue>:
    898c:	e92d 41f0 	stmdb	sp!, {r4, r5, r6, r7, r8, lr}
    8990:	4e1f      	ldr	r6, [pc, #124]	; (8a10 <prvUnlockQueue+0x84>)
    8992:	4d20      	ldr	r5, [pc, #128]	; (8a14 <prvUnlockQueue+0x88>)
    8994:	4f20      	ldr	r7, [pc, #128]	; (8a18 <prvUnlockQueue+0x8c>)
    8996:	f8df 8088 	ldr.w	r8, [pc, #136]	; 8a20 <prvUnlockQueue+0x94>
    899a:	4604      	mov	r4, r0
    899c:	47b0      	blx	r6
    899e:	6ca3      	ldr	r3, [r4, #72]	; 0x48
    89a0:	2b00      	cmp	r3, #0
    89a2:	dc14      	bgt.n	89ce <prvUnlockQueue+0x42>
    89a4:	f04f 33ff 	mov.w	r3, #4294967295
    89a8:	64a3      	str	r3, [r4, #72]	; 0x48
    89aa:	4d1c      	ldr	r5, [pc, #112]	; (8a1c <prvUnlockQueue+0x90>)
    89ac:	4f19      	ldr	r7, [pc, #100]	; (8a14 <prvUnlockQueue+0x88>)
    89ae:	f8df 8068 	ldr.w	r8, [pc, #104]	; 8a18 <prvUnlockQueue+0x8c>
    89b2:	47a8      	blx	r5
    89b4:	47b0      	blx	r6
    89b6:	f104 0610 	add.w	r6, r4, #16
    89ba:	6c63      	ldr	r3, [r4, #68]	; 0x44
    89bc:	2b00      	cmp	r3, #0
    89be:	dc1b      	bgt.n	89f8 <prvUnlockQueue+0x6c>
    89c0:	f04f 33ff 	mov.w	r3, #4294967295
    89c4:	6463      	str	r3, [r4, #68]	; 0x44
    89c6:	462b      	mov	r3, r5
    89c8:	e8bd 41f0 	ldmia.w	sp!, {r4, r5, r6, r7, r8, lr}
    89cc:	4718      	bx	r3
    89ce:	6d63      	ldr	r3, [r4, #84]	; 0x54
    89d0:	b14b      	cbz	r3, 89e6 <prvUnlockQueue+0x5a>
    89d2:	2100      	movs	r1, #0
    89d4:	4620      	mov	r0, r4
    89d6:	47c0      	blx	r8
    89d8:	2801      	cmp	r0, #1
    89da:	d100      	bne.n	89de <prvUnlockQueue+0x52>
    89dc:	47b8      	blx	r7
    89de:	6ca3      	ldr	r3, [r4, #72]	; 0x48
    89e0:	3b01      	subs	r3, #1
    89e2:	64a3      	str	r3, [r4, #72]	; 0x48
    89e4:	e7db      	b.n	899e <prvUnlockQueue+0x12>
    89e6:	6a63      	ldr	r3, [r4, #36]	; 0x24
    89e8:	2b00      	cmp	r3, #0
    89ea:	d0db      	beq.n	89a4 <prvUnlockQueue+0x18>
    89ec:	f104 0024 	add.w	r0, r4, #36	; 0x24
    89f0:	47a8      	blx	r5
    89f2:	2800      	cmp	r0, #0
    89f4:	d0f3      	beq.n	89de <prvUnlockQueue+0x52>
    89f6:	e7f1      	b.n	89dc <prvUnlockQueue+0x50>
    89f8:	6923      	ldr	r3, [r4, #16]
    89fa:	2b00      	cmp	r3, #0
    89fc:	d0e0      	beq.n	89c0 <prvUnlockQueue+0x34>
    89fe:	4630      	mov	r0, r6
    8a00:	47b8      	blx	r7
    8a02:	b100      	cbz	r0, 8a06 <prvUnlockQueue+0x7a>
    8a04:	47c0      	blx	r8
    8a06:	6c63      	ldr	r3, [r4, #68]	; 0x44
    8a08:	3b01      	subs	r3, #1
    8a0a:	6463      	str	r3, [r4, #68]	; 0x44
    8a0c:	e7d5      	b.n	89ba <prvUnlockQueue+0x2e>
    8a0e:	bf00      	nop
    8a10:	00008501 	.word	0x00008501
    8a14:	000097e9 	.word	0x000097e9
    8a18:	00009911 	.word	0x00009911
    8a1c:	00008545 	.word	0x00008545
    8a20:	0000891d 	.word	0x0000891d

00008a24 <xQueueGenericReset>:
    8a24:	b538      	push	{r3, r4, r5, lr}
    8a26:	460d      	mov	r5, r1
    8a28:	4604      	mov	r4, r0
    8a2a:	b908      	cbnz	r0, 8a30 <xQueueGenericReset+0xc>
    8a2c:	4b18      	ldr	r3, [pc, #96]	; (8a90 <xQueueGenericReset+0x6c>)
    8a2e:	4798      	blx	r3
    8a30:	4b18      	ldr	r3, [pc, #96]	; (8a94 <xQueueGenericReset+0x70>)
    8a32:	4798      	blx	r3
    8a34:	6c20      	ldr	r0, [r4, #64]	; 0x40
    8a36:	6be3      	ldr	r3, [r4, #60]	; 0x3c
    8a38:	6822      	ldr	r2, [r4, #0]
    8a3a:	60a2      	str	r2, [r4, #8]
    8a3c:	4343      	muls	r3, r0
    8a3e:	18d1      	adds	r1, r2, r3
    8a40:	1a1b      	subs	r3, r3, r0
    8a42:	4413      	add	r3, r2
    8a44:	6061      	str	r1, [r4, #4]
    8a46:	60e3      	str	r3, [r4, #12]
    8a48:	2100      	movs	r1, #0
    8a4a:	f04f 33ff 	mov.w	r3, #4294967295
    8a4e:	63a1      	str	r1, [r4, #56]	; 0x38
    8a50:	6463      	str	r3, [r4, #68]	; 0x44
    8a52:	64a3      	str	r3, [r4, #72]	; 0x48
    8a54:	b99d      	cbnz	r5, 8a7e <xQueueGenericReset+0x5a>
    8a56:	6923      	ldr	r3, [r4, #16]
    8a58:	b16b      	cbz	r3, 8a76 <xQueueGenericReset+0x52>
    8a5a:	f104 0010 	add.w	r0, r4, #16
    8a5e:	4b0e      	ldr	r3, [pc, #56]	; (8a98 <xQueueGenericReset+0x74>)
    8a60:	4798      	blx	r3
    8a62:	2801      	cmp	r0, #1
    8a64:	d107      	bne.n	8a76 <xQueueGenericReset+0x52>
    8a66:	4b0d      	ldr	r3, [pc, #52]	; (8a9c <xQueueGenericReset+0x78>)
    8a68:	f04f 5280 	mov.w	r2, #268435456	; 0x10000000
    8a6c:	601a      	str	r2, [r3, #0]
    8a6e:	f3bf 8f4f 	dsb	sy
    8a72:	f3bf 8f6f 	isb	sy
    8a76:	4b0a      	ldr	r3, [pc, #40]	; (8aa0 <xQueueGenericReset+0x7c>)
    8a78:	4798      	blx	r3
    8a7a:	2001      	movs	r0, #1
    8a7c:	bd38      	pop	{r3, r4, r5, pc}
    8a7e:	f104 0010 	add.w	r0, r4, #16
    8a82:	4d08      	ldr	r5, [pc, #32]	; (8aa4 <xQueueGenericReset+0x80>)
    8a84:	47a8      	blx	r5
    8a86:	f104 0024 	add.w	r0, r4, #36	; 0x24
    8a8a:	47a8      	blx	r5
    8a8c:	e7f3      	b.n	8a76 <xQueueGenericReset+0x52>
    8a8e:	bf00      	nop
    8a90:	00008909 	.word	0x00008909
    8a94:	00008501 	.word	0x00008501
    8a98:	000097e9 	.word	0x000097e9
    8a9c:	e000ed04 	.word	0xe000ed04
    8aa0:	00008545 	.word	0x00008545
    8aa4:	000083d5 	.word	0x000083d5

00008aa8 <xQueueGenericCreate>:
    8aa8:	b5f8      	push	{r3, r4, r5, r6, r7, lr}
    8aaa:	460d      	mov	r5, r1
    8aac:	4617      	mov	r7, r2
    8aae:	4606      	mov	r6, r0
    8ab0:	b940      	cbnz	r0, 8ac4 <xQueueGenericCreate+0x1c>
    8ab2:	f04f 0380 	mov.w	r3, #128	; 0x80
    8ab6:	f383 8811 	msr	BASEPRI, r3
    8aba:	f3bf 8f6f 	isb	sy
    8abe:	f3bf 8f4f 	dsb	sy
    8ac2:	e7fe      	b.n	8ac2 <xQueueGenericCreate+0x1a>
    8ac4:	b1a1      	cbz	r1, 8af0 <xQueueGenericCreate+0x48>
    8ac6:	4348      	muls	r0, r1
    8ac8:	3001      	adds	r0, #1
    8aca:	3058      	adds	r0, #88	; 0x58
    8acc:	4b0c      	ldr	r3, [pc, #48]	; (8b00 <xQueueGenericCreate+0x58>)
    8ace:	4798      	blx	r3
    8ad0:	4604      	mov	r4, r0
    8ad2:	b198      	cbz	r0, 8afc <xQueueGenericCreate+0x54>
    8ad4:	b975      	cbnz	r5, 8af4 <xQueueGenericCreate+0x4c>
    8ad6:	6020      	str	r0, [r4, #0]
    8ad8:	63e6      	str	r6, [r4, #60]	; 0x3c
    8ada:	6425      	str	r5, [r4, #64]	; 0x40
    8adc:	2101      	movs	r1, #1
    8ade:	4620      	mov	r0, r4
    8ae0:	4b08      	ldr	r3, [pc, #32]	; (8b04 <xQueueGenericCreate+0x5c>)
    8ae2:	4798      	blx	r3
    8ae4:	2300      	movs	r3, #0
    8ae6:	f884 7050 	strb.w	r7, [r4, #80]	; 0x50
    8aea:	6563      	str	r3, [r4, #84]	; 0x54
    8aec:	4620      	mov	r0, r4
    8aee:	bdf8      	pop	{r3, r4, r5, r6, r7, pc}
    8af0:	4608      	mov	r0, r1
    8af2:	e7ea      	b.n	8aca <xQueueGenericCreate+0x22>
    8af4:	f100 0358 	add.w	r3, r0, #88	; 0x58
    8af8:	6003      	str	r3, [r0, #0]
    8afa:	e7ed      	b.n	8ad8 <xQueueGenericCreate+0x30>
    8afc:	4b02      	ldr	r3, [pc, #8]	; (8b08 <xQueueGenericCreate+0x60>)
    8afe:	4798      	blx	r3
    8b00:	0000875d 	.word	0x0000875d
    8b04:	00008a25 	.word	0x00008a25
    8b08:	00008909 	.word	0x00008909

00008b0c <xQueueCreateCountingSemaphore>:
    8b0c:	b510      	push	{r4, lr}
    8b0e:	460c      	mov	r4, r1
    8b10:	b940      	cbnz	r0, 8b24 <xQueueCreateCountingSemaphore+0x18>
    8b12:	f04f 0380 	mov.w	r3, #128	; 0x80
    8b16:	f383 8811 	msr	BASEPRI, r3
    8b1a:	f3bf 8f6f 	isb	sy
    8b1e:	f3bf 8f4f 	dsb	sy
    8b22:	e7fe      	b.n	8b22 <xQueueCreateCountingSemaphore+0x16>
    8b24:	4288      	cmp	r0, r1
    8b26:	d208      	bcs.n	8b3a <xQueueCreateCountingSemaphore+0x2e>
    8b28:	f04f 0380 	mov.w	r3, #128	; 0x80
    8b2c:	f383 8811 	msr	BASEPRI, r3
    8b30:	f3bf 8f6f 	isb	sy
    8b34:	f3bf 8f4f 	dsb	sy
    8b38:	e7fe      	b.n	8b38 <xQueueCreateCountingSemaphore+0x2c>
    8b3a:	2202      	movs	r2, #2
    8b3c:	2100      	movs	r1, #0
    8b3e:	4b07      	ldr	r3, [pc, #28]	; (8b5c <xQueueCreateCountingSemaphore+0x50>)
    8b40:	4798      	blx	r3
    8b42:	b108      	cbz	r0, 8b48 <xQueueCreateCountingSemaphore+0x3c>
    8b44:	6384      	str	r4, [r0, #56]	; 0x38
    8b46:	bd10      	pop	{r4, pc}
    8b48:	f04f 0380 	mov.w	r3, #128	; 0x80
    8b4c:	f383 8811 	msr	BASEPRI, r3
    8b50:	f3bf 8f6f 	isb	sy
    8b54:	f3bf 8f4f 	dsb	sy
    8b58:	e7fe      	b.n	8b58 <xQueueCreateCountingSemaphore+0x4c>
    8b5a:	bf00      	nop
    8b5c:	00008aa9 	.word	0x00008aa9

00008b60 <xQueueGenericSend>:
    8b60:	e92d 4ff0 	stmdb	sp!, {r4, r5, r6, r7, r8, r9, sl, fp, lr}
    8b64:	b087      	sub	sp, #28
    8b66:	468a      	mov	sl, r1
    8b68:	9203      	str	r2, [sp, #12]
    8b6a:	461f      	mov	r7, r3
    8b6c:	4604      	mov	r4, r0
    8b6e:	b940      	cbnz	r0, 8b82 <xQueueGenericSend+0x22>
    8b70:	f04f 0380 	mov.w	r3, #128	; 0x80
    8b74:	f383 8811 	msr	BASEPRI, r3
    8b78:	f3bf 8f6f 	isb	sy
    8b7c:	f3bf 8f4f 	dsb	sy
    8b80:	e7fe      	b.n	8b80 <xQueueGenericSend+0x20>
    8b82:	2900      	cmp	r1, #0
    8b84:	f040 808e 	bne.w	8ca4 <xQueueGenericSend+0x144>
    8b88:	6c03      	ldr	r3, [r0, #64]	; 0x40
    8b8a:	2b00      	cmp	r3, #0
    8b8c:	f000 808a 	beq.w	8ca4 <xQueueGenericSend+0x144>
    8b90:	f04f 0380 	mov.w	r3, #128	; 0x80
    8b94:	f383 8811 	msr	BASEPRI, r3
    8b98:	f3bf 8f6f 	isb	sy
    8b9c:	f3bf 8f4f 	dsb	sy
    8ba0:	e7fe      	b.n	8ba0 <xQueueGenericSend+0x40>
    8ba2:	9b03      	ldr	r3, [sp, #12]
    8ba4:	2b00      	cmp	r3, #0
    8ba6:	f000 8088 	beq.w	8cba <xQueueGenericSend+0x15a>
    8baa:	f04f 0380 	mov.w	r3, #128	; 0x80
    8bae:	f383 8811 	msr	BASEPRI, r3
    8bb2:	f3bf 8f6f 	isb	sy
    8bb6:	f3bf 8f4f 	dsb	sy
    8bba:	e7fe      	b.n	8bba <xQueueGenericSend+0x5a>
    8bbc:	6a63      	ldr	r3, [r4, #36]	; 0x24
    8bbe:	b123      	cbz	r3, 8bca <xQueueGenericSend+0x6a>
    8bc0:	f104 0024 	add.w	r0, r4, #36	; 0x24
    8bc4:	4b43      	ldr	r3, [pc, #268]	; (8cd4 <xQueueGenericSend+0x174>)
    8bc6:	4798      	blx	r3
    8bc8:	e059      	b.n	8c7e <xQueueGenericSend+0x11e>
    8bca:	2800      	cmp	r0, #0
    8bcc:	d159      	bne.n	8c82 <xQueueGenericSend+0x122>
    8bce:	47b0      	blx	r6
    8bd0:	2001      	movs	r0, #1
    8bd2:	b007      	add	sp, #28
    8bd4:	e8bd 8ff0 	ldmia.w	sp!, {r4, r5, r6, r7, r8, r9, sl, fp, pc}
    8bd8:	9d03      	ldr	r5, [sp, #12]
    8bda:	b915      	cbnz	r5, 8be2 <xQueueGenericSend+0x82>
    8bdc:	47b0      	blx	r6
    8bde:	2000      	movs	r0, #0
    8be0:	e7f7      	b.n	8bd2 <xQueueGenericSend+0x72>
    8be2:	b913      	cbnz	r3, 8bea <xQueueGenericSend+0x8a>
    8be4:	a804      	add	r0, sp, #16
    8be6:	4b3c      	ldr	r3, [pc, #240]	; (8cd8 <xQueueGenericSend+0x178>)
    8be8:	4798      	blx	r3
    8bea:	47b0      	blx	r6
    8bec:	4b3b      	ldr	r3, [pc, #236]	; (8cdc <xQueueGenericSend+0x17c>)
    8bee:	f8df b110 	ldr.w	fp, [pc, #272]	; 8d00 <xQueueGenericSend+0x1a0>
    8bf2:	4d3b      	ldr	r5, [pc, #236]	; (8ce0 <xQueueGenericSend+0x180>)
    8bf4:	4798      	blx	r3
    8bf6:	47c0      	blx	r8
    8bf8:	6c63      	ldr	r3, [r4, #68]	; 0x44
    8bfa:	3301      	adds	r3, #1
    8bfc:	bf04      	itt	eq
    8bfe:	2300      	moveq	r3, #0
    8c00:	6463      	streq	r3, [r4, #68]	; 0x44
    8c02:	6ca3      	ldr	r3, [r4, #72]	; 0x48
    8c04:	3301      	adds	r3, #1
    8c06:	bf04      	itt	eq
    8c08:	2300      	moveq	r3, #0
    8c0a:	64a3      	streq	r3, [r4, #72]	; 0x48
    8c0c:	47b0      	blx	r6
    8c0e:	a903      	add	r1, sp, #12
    8c10:	a804      	add	r0, sp, #16
    8c12:	4b34      	ldr	r3, [pc, #208]	; (8ce4 <xQueueGenericSend+0x184>)
    8c14:	4798      	blx	r3
    8c16:	2800      	cmp	r0, #0
    8c18:	d140      	bne.n	8c9c <xQueueGenericSend+0x13c>
    8c1a:	47c0      	blx	r8
    8c1c:	6ba1      	ldr	r1, [r4, #56]	; 0x38
    8c1e:	6be2      	ldr	r2, [r4, #60]	; 0x3c
    8c20:	9102      	str	r1, [sp, #8]
    8c22:	9201      	str	r2, [sp, #4]
    8c24:	47b0      	blx	r6
    8c26:	9a01      	ldr	r2, [sp, #4]
    8c28:	9902      	ldr	r1, [sp, #8]
    8c2a:	4291      	cmp	r1, r2
    8c2c:	d132      	bne.n	8c94 <xQueueGenericSend+0x134>
    8c2e:	9903      	ldr	r1, [sp, #12]
    8c30:	4a2d      	ldr	r2, [pc, #180]	; (8ce8 <xQueueGenericSend+0x188>)
    8c32:	f104 0010 	add.w	r0, r4, #16
    8c36:	4790      	blx	r2
    8c38:	4620      	mov	r0, r4
    8c3a:	47d8      	blx	fp
    8c3c:	47a8      	blx	r5
    8c3e:	b938      	cbnz	r0, 8c50 <xQueueGenericSend+0xf0>
    8c40:	4a2a      	ldr	r2, [pc, #168]	; (8cec <xQueueGenericSend+0x18c>)
    8c42:	f04f 5380 	mov.w	r3, #268435456	; 0x10000000
    8c46:	6013      	str	r3, [r2, #0]
    8c48:	f3bf 8f4f 	dsb	sy
    8c4c:	f3bf 8f6f 	isb	sy
    8c50:	2301      	movs	r3, #1
    8c52:	9301      	str	r3, [sp, #4]
    8c54:	47c8      	blx	r9
    8c56:	6ba1      	ldr	r1, [r4, #56]	; 0x38
    8c58:	6be2      	ldr	r2, [r4, #60]	; 0x3c
    8c5a:	4e25      	ldr	r6, [pc, #148]	; (8cf0 <xQueueGenericSend+0x190>)
    8c5c:	4291      	cmp	r1, r2
    8c5e:	d302      	bcc.n	8c66 <xQueueGenericSend+0x106>
    8c60:	2f02      	cmp	r7, #2
    8c62:	9b01      	ldr	r3, [sp, #4]
    8c64:	d1b8      	bne.n	8bd8 <xQueueGenericSend+0x78>
    8c66:	4b23      	ldr	r3, [pc, #140]	; (8cf4 <xQueueGenericSend+0x194>)
    8c68:	463a      	mov	r2, r7
    8c6a:	4651      	mov	r1, sl
    8c6c:	4620      	mov	r0, r4
    8c6e:	4798      	blx	r3
    8c70:	6d63      	ldr	r3, [r4, #84]	; 0x54
    8c72:	2b00      	cmp	r3, #0
    8c74:	d0a2      	beq.n	8bbc <xQueueGenericSend+0x5c>
    8c76:	4639      	mov	r1, r7
    8c78:	4620      	mov	r0, r4
    8c7a:	4b1f      	ldr	r3, [pc, #124]	; (8cf8 <xQueueGenericSend+0x198>)
    8c7c:	4798      	blx	r3
    8c7e:	2801      	cmp	r0, #1
    8c80:	d1a5      	bne.n	8bce <xQueueGenericSend+0x6e>
    8c82:	4b1a      	ldr	r3, [pc, #104]	; (8cec <xQueueGenericSend+0x18c>)
    8c84:	f04f 5280 	mov.w	r2, #268435456	; 0x10000000
    8c88:	601a      	str	r2, [r3, #0]
    8c8a:	f3bf 8f4f 	dsb	sy
    8c8e:	f3bf 8f6f 	isb	sy
    8c92:	e79c      	b.n	8bce <xQueueGenericSend+0x6e>
    8c94:	4620      	mov	r0, r4
    8c96:	47d8      	blx	fp
    8c98:	47a8      	blx	r5
    8c9a:	e7d9      	b.n	8c50 <xQueueGenericSend+0xf0>
    8c9c:	4620      	mov	r0, r4
    8c9e:	47d8      	blx	fp
    8ca0:	47a8      	blx	r5
    8ca2:	e79c      	b.n	8bde <xQueueGenericSend+0x7e>
    8ca4:	2f02      	cmp	r7, #2
    8ca6:	d102      	bne.n	8cae <xQueueGenericSend+0x14e>
    8ca8:	6be3      	ldr	r3, [r4, #60]	; 0x3c
    8caa:	2b01      	cmp	r3, #1
    8cac:	d109      	bne.n	8cc2 <xQueueGenericSend+0x162>
    8cae:	4b13      	ldr	r3, [pc, #76]	; (8cfc <xQueueGenericSend+0x19c>)
    8cb0:	4798      	blx	r3
    8cb2:	2800      	cmp	r0, #0
    8cb4:	f43f af75 	beq.w	8ba2 <xQueueGenericSend+0x42>
    8cb8:	2300      	movs	r3, #0
    8cba:	f8df 9048 	ldr.w	r9, [pc, #72]	; 8d04 <xQueueGenericSend+0x1a4>
    8cbe:	46c8      	mov	r8, r9
    8cc0:	e7c7      	b.n	8c52 <xQueueGenericSend+0xf2>
    8cc2:	f04f 0380 	mov.w	r3, #128	; 0x80
    8cc6:	f383 8811 	msr	BASEPRI, r3
    8cca:	f3bf 8f6f 	isb	sy
    8cce:	f3bf 8f4f 	dsb	sy
    8cd2:	e7fe      	b.n	8cd2 <xQueueGenericSend+0x172>
    8cd4:	000097e9 	.word	0x000097e9
    8cd8:	00009875 	.word	0x00009875
    8cdc:	000093b9 	.word	0x000093b9
    8ce0:	000094cd 	.word	0x000094cd
    8ce4:	00009895 	.word	0x00009895
    8ce8:	00009729 	.word	0x00009729
    8cec:	e000ed04 	.word	0xe000ed04
    8cf0:	00008545 	.word	0x00008545
    8cf4:	00008865 	.word	0x00008865
    8cf8:	0000891d 	.word	0x0000891d
    8cfc:	00009921 	.word	0x00009921
    8d00:	0000898d 	.word	0x0000898d
    8d04:	00008501 	.word	0x00008501

00008d08 <xQueueGenericSendFromISR>:
    8d08:	e92d 41f0 	stmdb	sp!, {r4, r5, r6, r7, r8, lr}
    8d0c:	460e      	mov	r6, r1
    8d0e:	4690      	mov	r8, r2
    8d10:	461d      	mov	r5, r3
    8d12:	4604      	mov	r4, r0
    8d14:	b940      	cbnz	r0, 8d28 <xQueueGenericSendFromISR+0x20>
    8d16:	f04f 0380 	mov.w	r3, #128	; 0x80
    8d1a:	f383 8811 	msr	BASEPRI, r3
    8d1e:	f3bf 8f6f 	isb	sy
    8d22:	f3bf 8f4f 	dsb	sy
    8d26:	e7fe      	b.n	8d26 <xQueueGenericSendFromISR+0x1e>
    8d28:	bb19      	cbnz	r1, 8d72 <xQueueGenericSendFromISR+0x6a>
    8d2a:	6c03      	ldr	r3, [r0, #64]	; 0x40
    8d2c:	b30b      	cbz	r3, 8d72 <xQueueGenericSendFromISR+0x6a>
    8d2e:	f04f 0380 	mov.w	r3, #128	; 0x80
    8d32:	f383 8811 	msr	BASEPRI, r3
    8d36:	f3bf 8f6f 	isb	sy
    8d3a:	f3bf 8f4f 	dsb	sy
    8d3e:	e7fe      	b.n	8d3e <xQueueGenericSendFromISR+0x36>
    8d40:	6a63      	ldr	r3, [r4, #36]	; 0x24
    8d42:	2b00      	cmp	r3, #0
    8d44:	d03d      	beq.n	8dc2 <xQueueGenericSendFromISR+0xba>
    8d46:	f104 0024 	add.w	r0, r4, #36	; 0x24
    8d4a:	4b23      	ldr	r3, [pc, #140]	; (8dd8 <xQueueGenericSendFromISR+0xd0>)
    8d4c:	4798      	blx	r3
    8d4e:	2800      	cmp	r0, #0
    8d50:	d037      	beq.n	8dc2 <xQueueGenericSendFromISR+0xba>
    8d52:	f1b8 0f00 	cmp.w	r8, #0
    8d56:	d034      	beq.n	8dc2 <xQueueGenericSendFromISR+0xba>
    8d58:	2001      	movs	r0, #1
    8d5a:	f8c8 0000 	str.w	r0, [r8]
    8d5e:	f387 8811 	msr	BASEPRI, r7
    8d62:	e8bd 81f0 	ldmia.w	sp!, {r4, r5, r6, r7, r8, pc}
    8d66:	6ca3      	ldr	r3, [r4, #72]	; 0x48
    8d68:	3301      	adds	r3, #1
    8d6a:	64a3      	str	r3, [r4, #72]	; 0x48
    8d6c:	e029      	b.n	8dc2 <xQueueGenericSendFromISR+0xba>
    8d6e:	2000      	movs	r0, #0
    8d70:	e7f5      	b.n	8d5e <xQueueGenericSendFromISR+0x56>
    8d72:	2d02      	cmp	r5, #2
    8d74:	d102      	bne.n	8d7c <xQueueGenericSendFromISR+0x74>
    8d76:	6be3      	ldr	r3, [r4, #60]	; 0x3c
    8d78:	2b01      	cmp	r3, #1
    8d7a:	d124      	bne.n	8dc6 <xQueueGenericSendFromISR+0xbe>
    8d7c:	4b17      	ldr	r3, [pc, #92]	; (8ddc <xQueueGenericSendFromISR+0xd4>)
    8d7e:	4798      	blx	r3
    8d80:	f3ef 8711 	mrs	r7, BASEPRI
    8d84:	f04f 0380 	mov.w	r3, #128	; 0x80
    8d88:	f383 8811 	msr	BASEPRI, r3
    8d8c:	f3bf 8f6f 	isb	sy
    8d90:	f3bf 8f4f 	dsb	sy
    8d94:	6ba2      	ldr	r2, [r4, #56]	; 0x38
    8d96:	6be3      	ldr	r3, [r4, #60]	; 0x3c
    8d98:	429a      	cmp	r2, r3
    8d9a:	d301      	bcc.n	8da0 <xQueueGenericSendFromISR+0x98>
    8d9c:	2d02      	cmp	r5, #2
    8d9e:	d1e6      	bne.n	8d6e <xQueueGenericSendFromISR+0x66>
    8da0:	4b0f      	ldr	r3, [pc, #60]	; (8de0 <xQueueGenericSendFromISR+0xd8>)
    8da2:	462a      	mov	r2, r5
    8da4:	4631      	mov	r1, r6
    8da6:	4620      	mov	r0, r4
    8da8:	4798      	blx	r3
    8daa:	6ca3      	ldr	r3, [r4, #72]	; 0x48
    8dac:	3301      	adds	r3, #1
    8dae:	d1da      	bne.n	8d66 <xQueueGenericSendFromISR+0x5e>
    8db0:	6d63      	ldr	r3, [r4, #84]	; 0x54
    8db2:	2b00      	cmp	r3, #0
    8db4:	d0c4      	beq.n	8d40 <xQueueGenericSendFromISR+0x38>
    8db6:	4629      	mov	r1, r5
    8db8:	4620      	mov	r0, r4
    8dba:	4b0a      	ldr	r3, [pc, #40]	; (8de4 <xQueueGenericSendFromISR+0xdc>)
    8dbc:	4798      	blx	r3
    8dbe:	2801      	cmp	r0, #1
    8dc0:	d0c7      	beq.n	8d52 <xQueueGenericSendFromISR+0x4a>
    8dc2:	2001      	movs	r0, #1
    8dc4:	e7cb      	b.n	8d5e <xQueueGenericSendFromISR+0x56>
    8dc6:	f04f 0380 	mov.w	r3, #128	; 0x80
    8dca:	f383 8811 	msr	BASEPRI, r3
    8dce:	f3bf 8f6f 	isb	sy
    8dd2:	f3bf 8f4f 	dsb	sy
    8dd6:	e7fe      	b.n	8dd6 <xQueueGenericSendFromISR+0xce>
    8dd8:	000097e9 	.word	0x000097e9
    8ddc:	00008709 	.word	0x00008709
    8de0:	00008865 	.word	0x00008865
    8de4:	0000891d 	.word	0x0000891d

00008de8 <xQueueGiveFromISR>:
    8de8:	b570      	push	{r4, r5, r6, lr}
    8dea:	460e      	mov	r6, r1
    8dec:	4604      	mov	r4, r0
    8dee:	b940      	cbnz	r0, 8e02 <xQueueGiveFromISR+0x1a>
    8df0:	f04f 0380 	mov.w	r3, #128	; 0x80
    8df4:	f383 8811 	msr	BASEPRI, r3
    8df8:	f3bf 8f6f 	isb	sy
    8dfc:	f3bf 8f4f 	dsb	sy
    8e00:	e7fe      	b.n	8e00 <xQueueGiveFromISR+0x18>
    8e02:	6c03      	ldr	r3, [r0, #64]	; 0x40
    8e04:	b143      	cbz	r3, 8e18 <xQueueGiveFromISR+0x30>
    8e06:	f04f 0380 	mov.w	r3, #128	; 0x80
    8e0a:	f383 8811 	msr	BASEPRI, r3
    8e0e:	f3bf 8f6f 	isb	sy
    8e12:	f3bf 8f4f 	dsb	sy
    8e16:	e7fe      	b.n	8e16 <xQueueGiveFromISR+0x2e>
    8e18:	6803      	ldr	r3, [r0, #0]
    8e1a:	b913      	cbnz	r3, 8e22 <xQueueGiveFromISR+0x3a>
    8e1c:	6843      	ldr	r3, [r0, #4]
    8e1e:	2b00      	cmp	r3, #0
    8e20:	d135      	bne.n	8e8e <xQueueGiveFromISR+0xa6>
    8e22:	4b1f      	ldr	r3, [pc, #124]	; (8ea0 <xQueueGiveFromISR+0xb8>)
    8e24:	4798      	blx	r3
    8e26:	f3ef 8511 	mrs	r5, BASEPRI
    8e2a:	f04f 0380 	mov.w	r3, #128	; 0x80
    8e2e:	f383 8811 	msr	BASEPRI, r3
    8e32:	f3bf 8f6f 	isb	sy
    8e36:	f3bf 8f4f 	dsb	sy
    8e3a:	6ba2      	ldr	r2, [r4, #56]	; 0x38
    8e3c:	6be3      	ldr	r3, [r4, #60]	; 0x3c
    8e3e:	429a      	cmp	r2, r3
    8e40:	d301      	bcc.n	8e46 <xQueueGiveFromISR+0x5e>
    8e42:	2000      	movs	r0, #0
    8e44:	e01c      	b.n	8e80 <xQueueGiveFromISR+0x98>
    8e46:	6ba3      	ldr	r3, [r4, #56]	; 0x38
    8e48:	3301      	adds	r3, #1
    8e4a:	63a3      	str	r3, [r4, #56]	; 0x38
    8e4c:	6ca3      	ldr	r3, [r4, #72]	; 0x48
    8e4e:	3301      	adds	r3, #1
    8e50:	d119      	bne.n	8e86 <xQueueGiveFromISR+0x9e>
    8e52:	6d63      	ldr	r3, [r4, #84]	; 0x54
    8e54:	b13b      	cbz	r3, 8e66 <xQueueGiveFromISR+0x7e>
    8e56:	2100      	movs	r1, #0
    8e58:	4620      	mov	r0, r4
    8e5a:	4b12      	ldr	r3, [pc, #72]	; (8ea4 <xQueueGiveFromISR+0xbc>)
    8e5c:	4798      	blx	r3
    8e5e:	2801      	cmp	r0, #1
    8e60:	d00a      	beq.n	8e78 <xQueueGiveFromISR+0x90>
    8e62:	2001      	movs	r0, #1
    8e64:	e00c      	b.n	8e80 <xQueueGiveFromISR+0x98>
    8e66:	6a63      	ldr	r3, [r4, #36]	; 0x24
    8e68:	2b00      	cmp	r3, #0
    8e6a:	d0fa      	beq.n	8e62 <xQueueGiveFromISR+0x7a>
    8e6c:	f104 0024 	add.w	r0, r4, #36	; 0x24
    8e70:	4b0d      	ldr	r3, [pc, #52]	; (8ea8 <xQueueGiveFromISR+0xc0>)
    8e72:	4798      	blx	r3
    8e74:	2800      	cmp	r0, #0
    8e76:	d0f4      	beq.n	8e62 <xQueueGiveFromISR+0x7a>
    8e78:	2e00      	cmp	r6, #0
    8e7a:	d0f2      	beq.n	8e62 <xQueueGiveFromISR+0x7a>
    8e7c:	2001      	movs	r0, #1
    8e7e:	6030      	str	r0, [r6, #0]
    8e80:	f385 8811 	msr	BASEPRI, r5
    8e84:	bd70      	pop	{r4, r5, r6, pc}
    8e86:	6ca3      	ldr	r3, [r4, #72]	; 0x48
    8e88:	3301      	adds	r3, #1
    8e8a:	64a3      	str	r3, [r4, #72]	; 0x48
    8e8c:	e7e9      	b.n	8e62 <xQueueGiveFromISR+0x7a>
    8e8e:	f04f 0380 	mov.w	r3, #128	; 0x80
    8e92:	f383 8811 	msr	BASEPRI, r3
    8e96:	f3bf 8f6f 	isb	sy
    8e9a:	f3bf 8f4f 	dsb	sy
    8e9e:	e7fe      	b.n	8e9e <xQueueGiveFromISR+0xb6>
    8ea0:	00008709 	.word	0x00008709
    8ea4:	0000891d 	.word	0x0000891d
    8ea8:	000097e9 	.word	0x000097e9

00008eac <xQueueGenericReceive>:
    8eac:	e92d 4ff0 	stmdb	sp!, {r4, r5, r6, r7, r8, r9, sl, fp, lr}
    8eb0:	b085      	sub	sp, #20
    8eb2:	4689      	mov	r9, r1
    8eb4:	9201      	str	r2, [sp, #4]
    8eb6:	469b      	mov	fp, r3
    8eb8:	4682      	mov	sl, r0
    8eba:	b940      	cbnz	r0, 8ece <xQueueGenericReceive+0x22>
    8ebc:	f04f 0380 	mov.w	r3, #128	; 0x80
    8ec0:	f383 8811 	msr	BASEPRI, r3
    8ec4:	f3bf 8f6f 	isb	sy
    8ec8:	f3bf 8f4f 	dsb	sy
    8ecc:	e7fe      	b.n	8ecc <xQueueGenericReceive+0x20>
    8ece:	2900      	cmp	r1, #0
    8ed0:	f040 80a7 	bne.w	9022 <xQueueGenericReceive+0x176>
    8ed4:	6c02      	ldr	r2, [r0, #64]	; 0x40
    8ed6:	2a00      	cmp	r2, #0
    8ed8:	f000 80a3 	beq.w	9022 <xQueueGenericReceive+0x176>
    8edc:	f04f 0380 	mov.w	r3, #128	; 0x80
    8ee0:	f383 8811 	msr	BASEPRI, r3
    8ee4:	f3bf 8f6f 	isb	sy
    8ee8:	f3bf 8f4f 	dsb	sy
    8eec:	e7fe      	b.n	8eec <xQueueGenericReceive+0x40>
    8eee:	9f01      	ldr	r7, [sp, #4]
    8ef0:	2f00      	cmp	r7, #0
    8ef2:	f000 809c 	beq.w	902e <xQueueGenericReceive+0x182>
    8ef6:	f04f 0380 	mov.w	r3, #128	; 0x80
    8efa:	f383 8811 	msr	BASEPRI, r3
    8efe:	f3bf 8f6f 	isb	sy
    8f02:	f3bf 8f4f 	dsb	sy
    8f06:	e7fe      	b.n	8f06 <xQueueGenericReceive+0x5a>
    8f08:	f8da 2024 	ldr.w	r2, [sl, #36]	; 0x24
    8f0c:	f8ca 500c 	str.w	r5, [sl, #12]
    8f10:	b12a      	cbz	r2, 8f1e <xQueueGenericReceive+0x72>
    8f12:	f10a 0024 	add.w	r0, sl, #36	; 0x24
    8f16:	4b48      	ldr	r3, [pc, #288]	; (9038 <xQueueGenericReceive+0x18c>)
    8f18:	4798      	blx	r3
    8f1a:	2800      	cmp	r0, #0
    8f1c:	d170      	bne.n	9000 <xQueueGenericReceive+0x154>
    8f1e:	47a0      	blx	r4
    8f20:	2001      	movs	r0, #1
    8f22:	b005      	add	sp, #20
    8f24:	e8bd 8ff0 	ldmia.w	sp!, {r4, r5, r6, r7, r8, r9, sl, fp, pc}
    8f28:	9e01      	ldr	r6, [sp, #4]
    8f2a:	b916      	cbnz	r6, 8f32 <xQueueGenericReceive+0x86>
    8f2c:	47a0      	blx	r4
    8f2e:	2000      	movs	r0, #0
    8f30:	e7f7      	b.n	8f22 <xQueueGenericReceive+0x76>
    8f32:	b917      	cbnz	r7, 8f3a <xQueueGenericReceive+0x8e>
    8f34:	a802      	add	r0, sp, #8
    8f36:	4a41      	ldr	r2, [pc, #260]	; (903c <xQueueGenericReceive+0x190>)
    8f38:	4790      	blx	r2
    8f3a:	47a0      	blx	r4
    8f3c:	4a40      	ldr	r2, [pc, #256]	; (9040 <xQueueGenericReceive+0x194>)
    8f3e:	4f41      	ldr	r7, [pc, #260]	; (9044 <xQueueGenericReceive+0x198>)
    8f40:	4e41      	ldr	r6, [pc, #260]	; (9048 <xQueueGenericReceive+0x19c>)
    8f42:	4790      	blx	r2
    8f44:	47a8      	blx	r5
    8f46:	f8da 2044 	ldr.w	r2, [sl, #68]	; 0x44
    8f4a:	3201      	adds	r2, #1
    8f4c:	bf04      	itt	eq
    8f4e:	2200      	moveq	r2, #0
    8f50:	f8ca 2044 	streq.w	r2, [sl, #68]	; 0x44
    8f54:	f8da 2048 	ldr.w	r2, [sl, #72]	; 0x48
    8f58:	3201      	adds	r2, #1
    8f5a:	bf04      	itt	eq
    8f5c:	2200      	moveq	r2, #0
    8f5e:	f8ca 2048 	streq.w	r2, [sl, #72]	; 0x48
    8f62:	47a0      	blx	r4
    8f64:	a901      	add	r1, sp, #4
    8f66:	a802      	add	r0, sp, #8
    8f68:	4a38      	ldr	r2, [pc, #224]	; (904c <xQueueGenericReceive+0x1a0>)
    8f6a:	4790      	blx	r2
    8f6c:	2800      	cmp	r0, #0
    8f6e:	d154      	bne.n	901a <xQueueGenericReceive+0x16e>
    8f70:	47a8      	blx	r5
    8f72:	f8da 2038 	ldr.w	r2, [sl, #56]	; 0x38
    8f76:	9200      	str	r2, [sp, #0]
    8f78:	47a0      	blx	r4
    8f7a:	9a00      	ldr	r2, [sp, #0]
    8f7c:	2a00      	cmp	r2, #0
    8f7e:	d148      	bne.n	9012 <xQueueGenericReceive+0x166>
    8f80:	f8da 2000 	ldr.w	r2, [sl]
    8f84:	b92a      	cbnz	r2, 8f92 <xQueueGenericReceive+0xe6>
    8f86:	47a8      	blx	r5
    8f88:	f8da 0004 	ldr.w	r0, [sl, #4]
    8f8c:	4a30      	ldr	r2, [pc, #192]	; (9050 <xQueueGenericReceive+0x1a4>)
    8f8e:	4790      	blx	r2
    8f90:	47a0      	blx	r4
    8f92:	9901      	ldr	r1, [sp, #4]
    8f94:	4a2f      	ldr	r2, [pc, #188]	; (9054 <xQueueGenericReceive+0x1a8>)
    8f96:	f10a 0024 	add.w	r0, sl, #36	; 0x24
    8f9a:	4790      	blx	r2
    8f9c:	4650      	mov	r0, sl
    8f9e:	47b8      	blx	r7
    8fa0:	47b0      	blx	r6
    8fa2:	b938      	cbnz	r0, 8fb4 <xQueueGenericReceive+0x108>
    8fa4:	4b2c      	ldr	r3, [pc, #176]	; (9058 <xQueueGenericReceive+0x1ac>)
    8fa6:	f04f 5280 	mov.w	r2, #268435456	; 0x10000000
    8faa:	601a      	str	r2, [r3, #0]
    8fac:	f3bf 8f4f 	dsb	sy
    8fb0:	f3bf 8f6f 	isb	sy
    8fb4:	2701      	movs	r7, #1
    8fb6:	47c0      	blx	r8
    8fb8:	f8da 2038 	ldr.w	r2, [sl, #56]	; 0x38
    8fbc:	4c27      	ldr	r4, [pc, #156]	; (905c <xQueueGenericReceive+0x1b0>)
    8fbe:	2a00      	cmp	r2, #0
    8fc0:	d0b2      	beq.n	8f28 <xQueueGenericReceive+0x7c>
    8fc2:	4649      	mov	r1, r9
    8fc4:	4650      	mov	r0, sl
    8fc6:	4a26      	ldr	r2, [pc, #152]	; (9060 <xQueueGenericReceive+0x1b4>)
    8fc8:	f8da 500c 	ldr.w	r5, [sl, #12]
    8fcc:	4790      	blx	r2
    8fce:	f1bb 0f00 	cmp.w	fp, #0
    8fd2:	d199      	bne.n	8f08 <xQueueGenericReceive+0x5c>
    8fd4:	f8da 2038 	ldr.w	r2, [sl, #56]	; 0x38
    8fd8:	3a01      	subs	r2, #1
    8fda:	f8ca 2038 	str.w	r2, [sl, #56]	; 0x38
    8fde:	f8da 2000 	ldr.w	r2, [sl]
    8fe2:	b91a      	cbnz	r2, 8fec <xQueueGenericReceive+0x140>
    8fe4:	4a1f      	ldr	r2, [pc, #124]	; (9064 <xQueueGenericReceive+0x1b8>)
    8fe6:	4790      	blx	r2
    8fe8:	f8ca 0004 	str.w	r0, [sl, #4]
    8fec:	f8da 2010 	ldr.w	r2, [sl, #16]
    8ff0:	2a00      	cmp	r2, #0
    8ff2:	d094      	beq.n	8f1e <xQueueGenericReceive+0x72>
    8ff4:	f10a 0010 	add.w	r0, sl, #16
    8ff8:	4b0f      	ldr	r3, [pc, #60]	; (9038 <xQueueGenericReceive+0x18c>)
    8ffa:	4798      	blx	r3
    8ffc:	2801      	cmp	r0, #1
    8ffe:	d18e      	bne.n	8f1e <xQueueGenericReceive+0x72>
    9000:	4b15      	ldr	r3, [pc, #84]	; (9058 <xQueueGenericReceive+0x1ac>)
    9002:	f04f 5280 	mov.w	r2, #268435456	; 0x10000000
    9006:	601a      	str	r2, [r3, #0]
    9008:	f3bf 8f4f 	dsb	sy
    900c:	f3bf 8f6f 	isb	sy
    9010:	e785      	b.n	8f1e <xQueueGenericReceive+0x72>
    9012:	4650      	mov	r0, sl
    9014:	47b8      	blx	r7
    9016:	47b0      	blx	r6
    9018:	e7cc      	b.n	8fb4 <xQueueGenericReceive+0x108>
    901a:	4650      	mov	r0, sl
    901c:	47b8      	blx	r7
    901e:	47b0      	blx	r6
    9020:	e785      	b.n	8f2e <xQueueGenericReceive+0x82>
    9022:	4a11      	ldr	r2, [pc, #68]	; (9068 <xQueueGenericReceive+0x1bc>)
    9024:	4790      	blx	r2
    9026:	2800      	cmp	r0, #0
    9028:	f43f af61 	beq.w	8eee <xQueueGenericReceive+0x42>
    902c:	2700      	movs	r7, #0
    902e:	f8df 803c 	ldr.w	r8, [pc, #60]	; 906c <xQueueGenericReceive+0x1c0>
    9032:	4645      	mov	r5, r8
    9034:	e7bf      	b.n	8fb6 <xQueueGenericReceive+0x10a>
    9036:	bf00      	nop
    9038:	000097e9 	.word	0x000097e9
    903c:	00009875 	.word	0x00009875
    9040:	000093b9 	.word	0x000093b9
    9044:	0000898d 	.word	0x0000898d
    9048:	000094cd 	.word	0x000094cd
    904c:	00009895 	.word	0x00009895
    9050:	00009941 	.word	0x00009941
    9054:	00009729 	.word	0x00009729
    9058:	e000ed04 	.word	0xe000ed04
    905c:	00008545 	.word	0x00008545
    9060:	000088d9 	.word	0x000088d9
    9064:	00009a45 	.word	0x00009a45
    9068:	00009921 	.word	0x00009921
    906c:	00008501 	.word	0x00008501

00009070 <vQueueDelete>:
    9070:	b940      	cbnz	r0, 9084 <vQueueDelete+0x14>
    9072:	f04f 0380 	mov.w	r3, #128	; 0x80
    9076:	f383 8811 	msr	BASEPRI, r3
    907a:	f3bf 8f6f 	isb	sy
    907e:	f3bf 8f4f 	dsb	sy
    9082:	e7fe      	b.n	9082 <vQueueDelete+0x12>
    9084:	4b00      	ldr	r3, [pc, #0]	; (9088 <vQueueDelete+0x18>)
    9086:	4718      	bx	r3
    9088:	0000881d 	.word	0x0000881d

0000908c <vQueueWaitForMessageRestricted>:
    908c:	b570      	push	{r4, r5, r6, lr}
    908e:	4604      	mov	r4, r0
    9090:	4b0e      	ldr	r3, [pc, #56]	; (90cc <vQueueWaitForMessageRestricted+0x40>)
    9092:	460d      	mov	r5, r1
    9094:	4616      	mov	r6, r2
    9096:	4798      	blx	r3
    9098:	6c63      	ldr	r3, [r4, #68]	; 0x44
    909a:	3301      	adds	r3, #1
    909c:	bf04      	itt	eq
    909e:	2300      	moveq	r3, #0
    90a0:	6463      	streq	r3, [r4, #68]	; 0x44
    90a2:	6ca3      	ldr	r3, [r4, #72]	; 0x48
    90a4:	3301      	adds	r3, #1
    90a6:	bf04      	itt	eq
    90a8:	2300      	moveq	r3, #0
    90aa:	64a3      	streq	r3, [r4, #72]	; 0x48
    90ac:	4b08      	ldr	r3, [pc, #32]	; (90d0 <vQueueWaitForMessageRestricted+0x44>)
    90ae:	4798      	blx	r3
    90b0:	6ba3      	ldr	r3, [r4, #56]	; 0x38
    90b2:	b92b      	cbnz	r3, 90c0 <vQueueWaitForMessageRestricted+0x34>
    90b4:	4632      	mov	r2, r6
    90b6:	4629      	mov	r1, r5
    90b8:	f104 0024 	add.w	r0, r4, #36	; 0x24
    90bc:	4b05      	ldr	r3, [pc, #20]	; (90d4 <vQueueWaitForMessageRestricted+0x48>)
    90be:	4798      	blx	r3
    90c0:	4620      	mov	r0, r4
    90c2:	4b05      	ldr	r3, [pc, #20]	; (90d8 <vQueueWaitForMessageRestricted+0x4c>)
    90c4:	e8bd 4070 	ldmia.w	sp!, {r4, r5, r6, lr}
    90c8:	4718      	bx	r3
    90ca:	bf00      	nop
    90cc:	00008501 	.word	0x00008501
    90d0:	00008545 	.word	0x00008545
    90d4:	00009789 	.word	0x00009789
    90d8:	0000898d 	.word	0x0000898d

000090dc <prvResetNextTaskUnblockTime>:
    90dc:	4b06      	ldr	r3, [pc, #24]	; (90f8 <prvResetNextTaskUnblockTime+0x1c>)
    90de:	681a      	ldr	r2, [r3, #0]
    90e0:	6812      	ldr	r2, [r2, #0]
    90e2:	b91a      	cbnz	r2, 90ec <prvResetNextTaskUnblockTime+0x10>
    90e4:	f04f 32ff 	mov.w	r2, #4294967295
    90e8:	605a      	str	r2, [r3, #4]
    90ea:	4770      	bx	lr
    90ec:	681a      	ldr	r2, [r3, #0]
    90ee:	68d2      	ldr	r2, [r2, #12]
    90f0:	68d2      	ldr	r2, [r2, #12]
    90f2:	6852      	ldr	r2, [r2, #4]
    90f4:	e7f8      	b.n	90e8 <prvResetNextTaskUnblockTime+0xc>
    90f6:	bf00      	nop
    90f8:	20012780 	.word	0x20012780

000090fc <prvAddCurrentTaskToDelayedList>:
    90fc:	b570      	push	{r4, r5, r6, lr}
    90fe:	4c0b      	ldr	r4, [pc, #44]	; (912c <prvAddCurrentTaskToDelayedList+0x30>)
    9100:	68a3      	ldr	r3, [r4, #8]
    9102:	6058      	str	r0, [r3, #4]
    9104:	68e3      	ldr	r3, [r4, #12]
    9106:	4298      	cmp	r0, r3
    9108:	4605      	mov	r5, r0
    910a:	4b09      	ldr	r3, [pc, #36]	; (9130 <prvAddCurrentTaskToDelayedList+0x34>)
    910c:	d205      	bcs.n	911a <prvAddCurrentTaskToDelayedList+0x1e>
    910e:	6920      	ldr	r0, [r4, #16]
    9110:	68a1      	ldr	r1, [r4, #8]
    9112:	e8bd 4070 	ldmia.w	sp!, {r4, r5, r6, lr}
    9116:	3104      	adds	r1, #4
    9118:	4718      	bx	r3
    911a:	6820      	ldr	r0, [r4, #0]
    911c:	68a1      	ldr	r1, [r4, #8]
    911e:	3104      	adds	r1, #4
    9120:	4798      	blx	r3
    9122:	6863      	ldr	r3, [r4, #4]
    9124:	429d      	cmp	r5, r3
    9126:	bf38      	it	cc
    9128:	6065      	strcc	r5, [r4, #4]
    912a:	bd70      	pop	{r4, r5, r6, pc}
    912c:	20012780 	.word	0x20012780
    9130:	00008409 	.word	0x00008409

00009134 <xTaskGenericCreate.part.5>:
    9134:	e92d 4ff7 	stmdb	sp!, {r0, r1, r2, r4, r5, r6, r7, r8, r9, sl, fp, lr}
    9138:	9c0e      	ldr	r4, [sp, #56]	; 0x38
    913a:	f8dd 8030 	ldr.w	r8, [sp, #48]	; 0x30
    913e:	4d5e      	ldr	r5, [pc, #376]	; (92b8 <xTaskGenericCreate.part.5+0x184>)
    9140:	4682      	mov	sl, r0
    9142:	460f      	mov	r7, r1
    9144:	4616      	mov	r6, r2
    9146:	469b      	mov	fp, r3
    9148:	b92c      	cbnz	r4, 9156 <xTaskGenericCreate.part.5+0x22>
    914a:	0090      	lsls	r0, r2, #2
    914c:	47a8      	blx	r5
    914e:	4604      	mov	r4, r0
    9150:	2800      	cmp	r0, #0
    9152:	f000 80a1 	beq.w	9298 <xTaskGenericCreate.part.5+0x164>
    9156:	2054      	movs	r0, #84	; 0x54
    9158:	47a8      	blx	r5
    915a:	4605      	mov	r5, r0
    915c:	2800      	cmp	r0, #0
    915e:	f000 8098 	beq.w	9292 <xTaskGenericCreate.part.5+0x15e>
    9162:	00b6      	lsls	r6, r6, #2
    9164:	4632      	mov	r2, r6
    9166:	6304      	str	r4, [r0, #48]	; 0x30
    9168:	4b54      	ldr	r3, [pc, #336]	; (92bc <xTaskGenericCreate.part.5+0x188>)
    916a:	21a5      	movs	r1, #165	; 0xa5
    916c:	4620      	mov	r0, r4
    916e:	4798      	blx	r3
    9170:	6b2b      	ldr	r3, [r5, #48]	; 0x30
    9172:	3e04      	subs	r6, #4
    9174:	441e      	add	r6, r3
    9176:	f026 0607 	bic.w	r6, r6, #7
    917a:	1e7b      	subs	r3, r7, #1
    917c:	f105 0234 	add.w	r2, r5, #52	; 0x34
    9180:	3707      	adds	r7, #7
    9182:	7859      	ldrb	r1, [r3, #1]
    9184:	f802 1b01 	strb.w	r1, [r2], #1
    9188:	f813 1f01 	ldrb.w	r1, [r3, #1]!
    918c:	b109      	cbz	r1, 9192 <xTaskGenericCreate.part.5+0x5e>
    918e:	429f      	cmp	r7, r3
    9190:	d1f7      	bne.n	9182 <xTaskGenericCreate.part.5+0x4e>
    9192:	4644      	mov	r4, r8
    9194:	2c04      	cmp	r4, #4
    9196:	bf28      	it	cs
    9198:	2404      	movcs	r4, #4
    919a:	f04f 0900 	mov.w	r9, #0
    919e:	1d2f      	adds	r7, r5, #4
    91a0:	4a47      	ldr	r2, [pc, #284]	; (92c0 <xTaskGenericCreate.part.5+0x18c>)
    91a2:	62ec      	str	r4, [r5, #44]	; 0x2c
    91a4:	646c      	str	r4, [r5, #68]	; 0x44
    91a6:	4638      	mov	r0, r7
    91a8:	f885 903b 	strb.w	r9, [r5, #59]	; 0x3b
    91ac:	f8c5 9048 	str.w	r9, [r5, #72]	; 0x48
    91b0:	9201      	str	r2, [sp, #4]
    91b2:	f1c4 0405 	rsb	r4, r4, #5
    91b6:	4790      	blx	r2
    91b8:	f105 0018 	add.w	r0, r5, #24
    91bc:	9a01      	ldr	r2, [sp, #4]
    91be:	4790      	blx	r2
    91c0:	f8c5 904c 	str.w	r9, [r5, #76]	; 0x4c
    91c4:	4b3f      	ldr	r3, [pc, #252]	; (92c4 <xTaskGenericCreate.part.5+0x190>)
    91c6:	612d      	str	r5, [r5, #16]
    91c8:	61ac      	str	r4, [r5, #24]
    91ca:	626d      	str	r5, [r5, #36]	; 0x24
    91cc:	f885 9050 	strb.w	r9, [r5, #80]	; 0x50
    91d0:	465a      	mov	r2, fp
    91d2:	4651      	mov	r1, sl
    91d4:	4630      	mov	r0, r6
    91d6:	4798      	blx	r3
    91d8:	9b0d      	ldr	r3, [sp, #52]	; 0x34
    91da:	6028      	str	r0, [r5, #0]
    91dc:	b103      	cbz	r3, 91e0 <xTaskGenericCreate.part.5+0xac>
    91de:	601d      	str	r5, [r3, #0]
    91e0:	4c39      	ldr	r4, [pc, #228]	; (92c8 <xTaskGenericCreate.part.5+0x194>)
    91e2:	4b3a      	ldr	r3, [pc, #232]	; (92cc <xTaskGenericCreate.part.5+0x198>)
    91e4:	4798      	blx	r3
    91e6:	6963      	ldr	r3, [r4, #20]
    91e8:	3301      	adds	r3, #1
    91ea:	6163      	str	r3, [r4, #20]
    91ec:	68a3      	ldr	r3, [r4, #8]
    91ee:	f104 0918 	add.w	r9, r4, #24
    91f2:	2b00      	cmp	r3, #0
    91f4:	d155      	bne.n	92a2 <xTaskGenericCreate.part.5+0x16e>
    91f6:	60a5      	str	r5, [r4, #8]
    91f8:	6963      	ldr	r3, [r4, #20]
    91fa:	2b01      	cmp	r3, #1
    91fc:	d123      	bne.n	9246 <xTaskGenericCreate.part.5+0x112>
    91fe:	4e34      	ldr	r6, [pc, #208]	; (92d0 <xTaskGenericCreate.part.5+0x19c>)
    9200:	4648      	mov	r0, r9
    9202:	47b0      	blx	r6
    9204:	f104 002c 	add.w	r0, r4, #44	; 0x2c
    9208:	47b0      	blx	r6
    920a:	f104 0040 	add.w	r0, r4, #64	; 0x40
    920e:	47b0      	blx	r6
    9210:	f104 0054 	add.w	r0, r4, #84	; 0x54
    9214:	47b0      	blx	r6
    9216:	f104 0b7c 	add.w	fp, r4, #124	; 0x7c
    921a:	f104 0068 	add.w	r0, r4, #104	; 0x68
    921e:	47b0      	blx	r6
    9220:	f104 0a90 	add.w	sl, r4, #144	; 0x90
    9224:	4658      	mov	r0, fp
    9226:	47b0      	blx	r6
    9228:	4650      	mov	r0, sl
    922a:	47b0      	blx	r6
    922c:	f104 00a4 	add.w	r0, r4, #164	; 0xa4
    9230:	47b0      	blx	r6
    9232:	f104 00b8 	add.w	r0, r4, #184	; 0xb8
    9236:	47b0      	blx	r6
    9238:	f104 00cc 	add.w	r0, r4, #204	; 0xcc
    923c:	47b0      	blx	r6
    923e:	f8c4 b000 	str.w	fp, [r4]
    9242:	f8c4 a010 	str.w	sl, [r4, #16]
    9246:	f8d4 30e4 	ldr.w	r3, [r4, #228]	; 0xe4
    924a:	f8d4 20e8 	ldr.w	r2, [r4, #232]	; 0xe8
    924e:	3301      	adds	r3, #1
    9250:	f8c4 30e4 	str.w	r3, [r4, #228]	; 0xe4
    9254:	63eb      	str	r3, [r5, #60]	; 0x3c
    9256:	6aeb      	ldr	r3, [r5, #44]	; 0x2c
    9258:	2014      	movs	r0, #20
    925a:	4293      	cmp	r3, r2
    925c:	bf88      	it	hi
    925e:	f8c4 30e8 	strhi.w	r3, [r4, #232]	; 0xe8
    9262:	fb00 9003 	mla	r0, r0, r3, r9
    9266:	4639      	mov	r1, r7
    9268:	4b1a      	ldr	r3, [pc, #104]	; (92d4 <xTaskGenericCreate.part.5+0x1a0>)
    926a:	4798      	blx	r3
    926c:	4b1a      	ldr	r3, [pc, #104]	; (92d8 <xTaskGenericCreate.part.5+0x1a4>)
    926e:	4798      	blx	r3
    9270:	f8d4 30e0 	ldr.w	r3, [r4, #224]	; 0xe0
    9274:	b15b      	cbz	r3, 928e <xTaskGenericCreate.part.5+0x15a>
    9276:	68a3      	ldr	r3, [r4, #8]
    9278:	6adb      	ldr	r3, [r3, #44]	; 0x2c
    927a:	4598      	cmp	r8, r3
    927c:	d907      	bls.n	928e <xTaskGenericCreate.part.5+0x15a>
    927e:	4b17      	ldr	r3, [pc, #92]	; (92dc <xTaskGenericCreate.part.5+0x1a8>)
    9280:	f04f 5280 	mov.w	r2, #268435456	; 0x10000000
    9284:	601a      	str	r2, [r3, #0]
    9286:	f3bf 8f4f 	dsb	sy
    928a:	f3bf 8f6f 	isb	sy
    928e:	2001      	movs	r0, #1
    9290:	e004      	b.n	929c <xTaskGenericCreate.part.5+0x168>
    9292:	4620      	mov	r0, r4
    9294:	4b12      	ldr	r3, [pc, #72]	; (92e0 <xTaskGenericCreate.part.5+0x1ac>)
    9296:	4798      	blx	r3
    9298:	f04f 30ff 	mov.w	r0, #4294967295
    929c:	b003      	add	sp, #12
    929e:	e8bd 8ff0 	ldmia.w	sp!, {r4, r5, r6, r7, r8, r9, sl, fp, pc}
    92a2:	f8d4 30e0 	ldr.w	r3, [r4, #224]	; 0xe0
    92a6:	2b00      	cmp	r3, #0
    92a8:	d1cd      	bne.n	9246 <xTaskGenericCreate.part.5+0x112>
    92aa:	68a3      	ldr	r3, [r4, #8]
    92ac:	6adb      	ldr	r3, [r3, #44]	; 0x2c
    92ae:	4598      	cmp	r8, r3
    92b0:	bf28      	it	cs
    92b2:	60a5      	strcs	r5, [r4, #8]
    92b4:	e7c7      	b.n	9246 <xTaskGenericCreate.part.5+0x112>
    92b6:	bf00      	nop
    92b8:	0000875d 	.word	0x0000875d
    92bc:	0000a8a5 	.word	0x0000a8a5
    92c0:	000083eb 	.word	0x000083eb
    92c4:	000084bd 	.word	0x000084bd
    92c8:	20012780 	.word	0x20012780
    92cc:	00008501 	.word	0x00008501
    92d0:	000083d5 	.word	0x000083d5
    92d4:	000083f1 	.word	0x000083f1
    92d8:	00008545 	.word	0x00008545
    92dc:	e000ed04 	.word	0xe000ed04
    92e0:	0000881d 	.word	0x0000881d

000092e4 <prvTaskIsTaskSuspended.part.0>:
    92e4:	f04f 0380 	mov.w	r3, #128	; 0x80
    92e8:	f383 8811 	msr	BASEPRI, r3
    92ec:	f3bf 8f6f 	isb	sy
    92f0:	f3bf 8f4f 	dsb	sy
    92f4:	e7fe      	b.n	92f4 <prvTaskIsTaskSuspended.part.0+0x10>
	...

000092f8 <xTaskGenericCreate>:
    92f8:	b470      	push	{r4, r5, r6}
    92fa:	ac03      	add	r4, sp, #12
    92fc:	cc70      	ldmia	r4, {r4, r5, r6}
    92fe:	b940      	cbnz	r0, 9312 <xTaskGenericCreate+0x1a>
    9300:	f04f 0380 	mov.w	r3, #128	; 0x80
    9304:	f383 8811 	msr	BASEPRI, r3
    9308:	f3bf 8f6f 	isb	sy
    930c:	f3bf 8f4f 	dsb	sy
    9310:	e7fe      	b.n	9310 <xTaskGenericCreate+0x18>
    9312:	2c04      	cmp	r4, #4
    9314:	d908      	bls.n	9328 <xTaskGenericCreate+0x30>
    9316:	f04f 0380 	mov.w	r3, #128	; 0x80
    931a:	f383 8811 	msr	BASEPRI, r3
    931e:	f3bf 8f6f 	isb	sy
    9322:	f3bf 8f4f 	dsb	sy
    9326:	e7fe      	b.n	9326 <xTaskGenericCreate+0x2e>
    9328:	9403      	str	r4, [sp, #12]
    932a:	4c03      	ldr	r4, [pc, #12]	; (9338 <xTaskGenericCreate+0x40>)
    932c:	9605      	str	r6, [sp, #20]
    932e:	9504      	str	r5, [sp, #16]
    9330:	46a4      	mov	ip, r4
    9332:	bc70      	pop	{r4, r5, r6}
    9334:	4760      	bx	ip
    9336:	bf00      	nop
    9338:	00009135 	.word	0x00009135

0000933c <vTaskStartScheduler>:
    933c:	b530      	push	{r4, r5, lr}
    933e:	b085      	sub	sp, #20
    9340:	2400      	movs	r4, #0
    9342:	9402      	str	r4, [sp, #8]
    9344:	9401      	str	r4, [sp, #4]
    9346:	9400      	str	r4, [sp, #0]
    9348:	4623      	mov	r3, r4
    934a:	2240      	movs	r2, #64	; 0x40
    934c:	4914      	ldr	r1, [pc, #80]	; (93a0 <vTaskStartScheduler+0x64>)
    934e:	4815      	ldr	r0, [pc, #84]	; (93a4 <vTaskStartScheduler+0x68>)
    9350:	4d15      	ldr	r5, [pc, #84]	; (93a8 <vTaskStartScheduler+0x6c>)
    9352:	47a8      	blx	r5
    9354:	2801      	cmp	r0, #1
    9356:	d117      	bne.n	9388 <vTaskStartScheduler+0x4c>
    9358:	4b14      	ldr	r3, [pc, #80]	; (93ac <vTaskStartScheduler+0x70>)
    935a:	4798      	blx	r3
    935c:	2801      	cmp	r0, #1
    935e:	d113      	bne.n	9388 <vTaskStartScheduler+0x4c>
    9360:	f04f 0380 	mov.w	r3, #128	; 0x80
    9364:	f383 8811 	msr	BASEPRI, r3
    9368:	f3bf 8f6f 	isb	sy
    936c:	f3bf 8f4f 	dsb	sy
    9370:	4b0f      	ldr	r3, [pc, #60]	; (93b0 <vTaskStartScheduler+0x74>)
    9372:	f04f 32ff 	mov.w	r2, #4294967295
    9376:	605a      	str	r2, [r3, #4]
    9378:	f8c3 00e0 	str.w	r0, [r3, #224]	; 0xe0
    937c:	60dc      	str	r4, [r3, #12]
    937e:	4b0d      	ldr	r3, [pc, #52]	; (93b4 <vTaskStartScheduler+0x78>)
    9380:	b005      	add	sp, #20
    9382:	e8bd 4030 	ldmia.w	sp!, {r4, r5, lr}
    9386:	4718      	bx	r3
    9388:	b940      	cbnz	r0, 939c <vTaskStartScheduler+0x60>
    938a:	f04f 0380 	mov.w	r3, #128	; 0x80
    938e:	f383 8811 	msr	BASEPRI, r3
    9392:	f3bf 8f6f 	isb	sy
    9396:	f3bf 8f4f 	dsb	sy
    939a:	e7fe      	b.n	939a <vTaskStartScheduler+0x5e>
    939c:	b005      	add	sp, #20
    939e:	bd30      	pop	{r4, r5, pc}
    93a0:	0000bbcd 	.word	0x0000bbcd
    93a4:	00009625 	.word	0x00009625
    93a8:	00009135 	.word	0x00009135
    93ac:	00009b05 	.word	0x00009b05
    93b0:	20012780 	.word	0x20012780
    93b4:	00008615 	.word	0x00008615

000093b8 <vTaskSuspendAll>:
    93b8:	4a03      	ldr	r2, [pc, #12]	; (93c8 <vTaskSuspendAll+0x10>)
    93ba:	f8d2 30f0 	ldr.w	r3, [r2, #240]	; 0xf0
    93be:	3301      	adds	r3, #1
    93c0:	f8c2 30f0 	str.w	r3, [r2, #240]	; 0xf0
    93c4:	4770      	bx	lr
    93c6:	bf00      	nop
    93c8:	20012780 	.word	0x20012780

000093cc <xTaskGetTickCount>:
    93cc:	4b01      	ldr	r3, [pc, #4]	; (93d4 <xTaskGetTickCount+0x8>)
    93ce:	68d8      	ldr	r0, [r3, #12]
    93d0:	4770      	bx	lr
    93d2:	bf00      	nop
    93d4:	20012780 	.word	0x20012780

000093d8 <xTaskIncrementTick>:
    93d8:	e92d 4ff8 	stmdb	sp!, {r3, r4, r5, r6, r7, r8, r9, sl, fp, lr}
    93dc:	4b36      	ldr	r3, [pc, #216]	; (94b8 <xTaskIncrementTick+0xe0>)
    93de:	f8d3 20f0 	ldr.w	r2, [r3, #240]	; 0xf0
    93e2:	461c      	mov	r4, r3
    93e4:	2a00      	cmp	r2, #0
    93e6:	d13d      	bne.n	9464 <xTaskIncrementTick+0x8c>
    93e8:	68da      	ldr	r2, [r3, #12]
    93ea:	3201      	adds	r2, #1
    93ec:	60da      	str	r2, [r3, #12]
    93ee:	68df      	ldr	r7, [r3, #12]
    93f0:	b9b7      	cbnz	r7, 9420 <xTaskIncrementTick+0x48>
    93f2:	681b      	ldr	r3, [r3, #0]
    93f4:	681b      	ldr	r3, [r3, #0]
    93f6:	b143      	cbz	r3, 940a <xTaskIncrementTick+0x32>
    93f8:	f04f 0380 	mov.w	r3, #128	; 0x80
    93fc:	f383 8811 	msr	BASEPRI, r3
    9400:	f3bf 8f6f 	isb	sy
    9404:	f3bf 8f4f 	dsb	sy
    9408:	e7fe      	b.n	9408 <xTaskIncrementTick+0x30>
    940a:	6823      	ldr	r3, [r4, #0]
    940c:	6922      	ldr	r2, [r4, #16]
    940e:	6022      	str	r2, [r4, #0]
    9410:	6123      	str	r3, [r4, #16]
    9412:	f8d4 30f4 	ldr.w	r3, [r4, #244]	; 0xf4
    9416:	3301      	adds	r3, #1
    9418:	f8c4 30f4 	str.w	r3, [r4, #244]	; 0xf4
    941c:	4b27      	ldr	r3, [pc, #156]	; (94bc <xTaskIncrementTick+0xe4>)
    941e:	4798      	blx	r3
    9420:	6863      	ldr	r3, [r4, #4]
    9422:	429f      	cmp	r7, r3
    9424:	f04f 0500 	mov.w	r5, #0
    9428:	d30b      	bcc.n	9442 <xTaskIncrementTick+0x6a>
    942a:	f8df 8094 	ldr.w	r8, [pc, #148]	; 94c0 <xTaskIncrementTick+0xe8>
    942e:	f8df a094 	ldr.w	sl, [pc, #148]	; 94c4 <xTaskIncrementTick+0xec>
    9432:	f8df b094 	ldr.w	fp, [pc, #148]	; 94c8 <xTaskIncrementTick+0xf0>
    9436:	6823      	ldr	r3, [r4, #0]
    9438:	681b      	ldr	r3, [r3, #0]
    943a:	b9d3      	cbnz	r3, 9472 <xTaskIncrementTick+0x9a>
    943c:	f04f 33ff 	mov.w	r3, #4294967295
    9440:	6063      	str	r3, [r4, #4]
    9442:	68a3      	ldr	r3, [r4, #8]
    9444:	6adb      	ldr	r3, [r3, #44]	; 0x2c
    9446:	2214      	movs	r2, #20
    9448:	fb02 4303 	mla	r3, r2, r3, r4
    944c:	699b      	ldr	r3, [r3, #24]
    944e:	2b02      	cmp	r3, #2
    9450:	bf28      	it	cs
    9452:	2501      	movcs	r5, #1
    9454:	f8d4 30fc 	ldr.w	r3, [r4, #252]	; 0xfc
    9458:	2b00      	cmp	r3, #0
    945a:	bf18      	it	ne
    945c:	2501      	movne	r5, #1
    945e:	4628      	mov	r0, r5
    9460:	e8bd 8ff8 	ldmia.w	sp!, {r3, r4, r5, r6, r7, r8, r9, sl, fp, pc}
    9464:	f8d3 30f8 	ldr.w	r3, [r3, #248]	; 0xf8
    9468:	3301      	adds	r3, #1
    946a:	f8c4 30f8 	str.w	r3, [r4, #248]	; 0xf8
    946e:	2500      	movs	r5, #0
    9470:	e7f0      	b.n	9454 <xTaskIncrementTick+0x7c>
    9472:	6823      	ldr	r3, [r4, #0]
    9474:	68db      	ldr	r3, [r3, #12]
    9476:	68de      	ldr	r6, [r3, #12]
    9478:	6873      	ldr	r3, [r6, #4]
    947a:	429f      	cmp	r7, r3
    947c:	d3e0      	bcc.n	9440 <xTaskIncrementTick+0x68>
    947e:	f106 0904 	add.w	r9, r6, #4
    9482:	4648      	mov	r0, r9
    9484:	47c0      	blx	r8
    9486:	6ab3      	ldr	r3, [r6, #40]	; 0x28
    9488:	b113      	cbz	r3, 9490 <xTaskIncrementTick+0xb8>
    948a:	f106 0018 	add.w	r0, r6, #24
    948e:	47c0      	blx	r8
    9490:	6af3      	ldr	r3, [r6, #44]	; 0x2c
    9492:	f8d4 20e8 	ldr.w	r2, [r4, #232]	; 0xe8
    9496:	2014      	movs	r0, #20
    9498:	4293      	cmp	r3, r2
    949a:	fb00 a003 	mla	r0, r0, r3, sl
    949e:	4649      	mov	r1, r9
    94a0:	bf88      	it	hi
    94a2:	f8c4 30e8 	strhi.w	r3, [r4, #232]	; 0xe8
    94a6:	47d8      	blx	fp
    94a8:	68a3      	ldr	r3, [r4, #8]
    94aa:	6af2      	ldr	r2, [r6, #44]	; 0x2c
    94ac:	6adb      	ldr	r3, [r3, #44]	; 0x2c
    94ae:	429a      	cmp	r2, r3
    94b0:	bf28      	it	cs
    94b2:	2501      	movcs	r5, #1
    94b4:	e7bf      	b.n	9436 <xTaskIncrementTick+0x5e>
    94b6:	bf00      	nop
    94b8:	20012780 	.word	0x20012780
    94bc:	000090dd 	.word	0x000090dd
    94c0:	00008437 	.word	0x00008437
    94c4:	20012798 	.word	0x20012798
    94c8:	000083f1 	.word	0x000083f1

000094cc <xTaskResumeAll>:
    94cc:	e92d 43f8 	stmdb	sp!, {r3, r4, r5, r6, r7, r8, r9, lr}
    94d0:	4c33      	ldr	r4, [pc, #204]	; (95a0 <xTaskResumeAll+0xd4>)
    94d2:	f8d4 30f0 	ldr.w	r3, [r4, #240]	; 0xf0
    94d6:	b943      	cbnz	r3, 94ea <xTaskResumeAll+0x1e>
    94d8:	f04f 0380 	mov.w	r3, #128	; 0x80
    94dc:	f383 8811 	msr	BASEPRI, r3
    94e0:	f3bf 8f6f 	isb	sy
    94e4:	f3bf 8f4f 	dsb	sy
    94e8:	e7fe      	b.n	94e8 <xTaskResumeAll+0x1c>
    94ea:	4b2e      	ldr	r3, [pc, #184]	; (95a4 <xTaskResumeAll+0xd8>)
    94ec:	4798      	blx	r3
    94ee:	f8d4 30f0 	ldr.w	r3, [r4, #240]	; 0xf0
    94f2:	3b01      	subs	r3, #1
    94f4:	f8c4 30f0 	str.w	r3, [r4, #240]	; 0xf0
    94f8:	f8d4 30f0 	ldr.w	r3, [r4, #240]	; 0xf0
    94fc:	b12b      	cbz	r3, 950a <xTaskResumeAll+0x3e>
    94fe:	2400      	movs	r4, #0
    9500:	4b29      	ldr	r3, [pc, #164]	; (95a8 <xTaskResumeAll+0xdc>)
    9502:	4798      	blx	r3
    9504:	4620      	mov	r0, r4
    9506:	e8bd 83f8 	ldmia.w	sp!, {r3, r4, r5, r6, r7, r8, r9, pc}
    950a:	6963      	ldr	r3, [r4, #20]
    950c:	2b00      	cmp	r3, #0
    950e:	d0f6      	beq.n	94fe <xTaskResumeAll+0x32>
    9510:	4e26      	ldr	r6, [pc, #152]	; (95ac <xTaskResumeAll+0xe0>)
    9512:	f104 0818 	add.w	r8, r4, #24
    9516:	e01c      	b.n	9552 <xTaskResumeAll+0x86>
    9518:	f8d4 30b0 	ldr.w	r3, [r4, #176]	; 0xb0
    951c:	68dd      	ldr	r5, [r3, #12]
    951e:	1d2f      	adds	r7, r5, #4
    9520:	f105 0018 	add.w	r0, r5, #24
    9524:	47b0      	blx	r6
    9526:	4638      	mov	r0, r7
    9528:	47b0      	blx	r6
    952a:	6aeb      	ldr	r3, [r5, #44]	; 0x2c
    952c:	f8d4 20e8 	ldr.w	r2, [r4, #232]	; 0xe8
    9530:	2014      	movs	r0, #20
    9532:	4293      	cmp	r3, r2
    9534:	fb00 8003 	mla	r0, r0, r3, r8
    9538:	4639      	mov	r1, r7
    953a:	bf88      	it	hi
    953c:	f8c4 30e8 	strhi.w	r3, [r4, #232]	; 0xe8
    9540:	47c8      	blx	r9
    9542:	68a3      	ldr	r3, [r4, #8]
    9544:	6aea      	ldr	r2, [r5, #44]	; 0x2c
    9546:	6adb      	ldr	r3, [r3, #44]	; 0x2c
    9548:	429a      	cmp	r2, r3
    954a:	d304      	bcc.n	9556 <xTaskResumeAll+0x8a>
    954c:	2301      	movs	r3, #1
    954e:	f8c4 30fc 	str.w	r3, [r4, #252]	; 0xfc
    9552:	f8df 9064 	ldr.w	r9, [pc, #100]	; 95b8 <xTaskResumeAll+0xec>
    9556:	f8d4 30a4 	ldr.w	r3, [r4, #164]	; 0xa4
    955a:	2b00      	cmp	r3, #0
    955c:	d1dc      	bne.n	9518 <xTaskResumeAll+0x4c>
    955e:	f8d4 30f8 	ldr.w	r3, [r4, #248]	; 0xf8
    9562:	b9d3      	cbnz	r3, 959a <xTaskResumeAll+0xce>
    9564:	f8d4 40fc 	ldr.w	r4, [r4, #252]	; 0xfc
    9568:	2c01      	cmp	r4, #1
    956a:	d1c8      	bne.n	94fe <xTaskResumeAll+0x32>
    956c:	4b10      	ldr	r3, [pc, #64]	; (95b0 <xTaskResumeAll+0xe4>)
    956e:	f04f 5280 	mov.w	r2, #268435456	; 0x10000000
    9572:	601a      	str	r2, [r3, #0]
    9574:	f3bf 8f4f 	dsb	sy
    9578:	f3bf 8f6f 	isb	sy
    957c:	e7c0      	b.n	9500 <xTaskResumeAll+0x34>
    957e:	47a8      	blx	r5
    9580:	b108      	cbz	r0, 9586 <xTaskResumeAll+0xba>
    9582:	f8c4 60fc 	str.w	r6, [r4, #252]	; 0xfc
    9586:	f8d4 30f8 	ldr.w	r3, [r4, #248]	; 0xf8
    958a:	3b01      	subs	r3, #1
    958c:	f8c4 30f8 	str.w	r3, [r4, #248]	; 0xf8
    9590:	f8d4 30f8 	ldr.w	r3, [r4, #248]	; 0xf8
    9594:	2b00      	cmp	r3, #0
    9596:	d1f2      	bne.n	957e <xTaskResumeAll+0xb2>
    9598:	e7e4      	b.n	9564 <xTaskResumeAll+0x98>
    959a:	4d06      	ldr	r5, [pc, #24]	; (95b4 <xTaskResumeAll+0xe8>)
    959c:	2601      	movs	r6, #1
    959e:	e7f7      	b.n	9590 <xTaskResumeAll+0xc4>
    95a0:	20012780 	.word	0x20012780
    95a4:	00008501 	.word	0x00008501
    95a8:	00008545 	.word	0x00008545
    95ac:	00008437 	.word	0x00008437
    95b0:	e000ed04 	.word	0xe000ed04
    95b4:	000093d9 	.word	0x000093d9
    95b8:	000083f1 	.word	0x000083f1

000095bc <vTaskDelay>:
    95bc:	b510      	push	{r4, lr}
    95be:	b940      	cbnz	r0, 95d2 <vTaskDelay+0x16>
    95c0:	4b12      	ldr	r3, [pc, #72]	; (960c <vTaskDelay+0x50>)
    95c2:	f04f 5280 	mov.w	r2, #268435456	; 0x10000000
    95c6:	601a      	str	r2, [r3, #0]
    95c8:	f3bf 8f4f 	dsb	sy
    95cc:	f3bf 8f6f 	isb	sy
    95d0:	bd10      	pop	{r4, pc}
    95d2:	490f      	ldr	r1, [pc, #60]	; (9610 <vTaskDelay+0x54>)
    95d4:	f8d1 30f0 	ldr.w	r3, [r1, #240]	; 0xf0
    95d8:	b143      	cbz	r3, 95ec <vTaskDelay+0x30>
    95da:	f04f 0380 	mov.w	r3, #128	; 0x80
    95de:	f383 8811 	msr	BASEPRI, r3
    95e2:	f3bf 8f6f 	isb	sy
    95e6:	f3bf 8f4f 	dsb	sy
    95ea:	e7fe      	b.n	95ea <vTaskDelay+0x2e>
    95ec:	4b09      	ldr	r3, [pc, #36]	; (9614 <vTaskDelay+0x58>)
    95ee:	4798      	blx	r3
    95f0:	68cc      	ldr	r4, [r1, #12]
    95f2:	4b09      	ldr	r3, [pc, #36]	; (9618 <vTaskDelay+0x5c>)
    95f4:	4404      	add	r4, r0
    95f6:	6888      	ldr	r0, [r1, #8]
    95f8:	3004      	adds	r0, #4
    95fa:	4798      	blx	r3
    95fc:	4b07      	ldr	r3, [pc, #28]	; (961c <vTaskDelay+0x60>)
    95fe:	4620      	mov	r0, r4
    9600:	4798      	blx	r3
    9602:	4b07      	ldr	r3, [pc, #28]	; (9620 <vTaskDelay+0x64>)
    9604:	4798      	blx	r3
    9606:	2800      	cmp	r0, #0
    9608:	d0da      	beq.n	95c0 <vTaskDelay+0x4>
    960a:	bd10      	pop	{r4, pc}
    960c:	e000ed04 	.word	0xe000ed04
    9610:	20012780 	.word	0x20012780
    9614:	000093b9 	.word	0x000093b9
    9618:	00008437 	.word	0x00008437
    961c:	000090fd 	.word	0x000090fd
    9620:	000094cd 	.word	0x000094cd

00009624 <prvIdleTask>:
    9624:	b580      	push	{r7, lr}
    9626:	4e19      	ldr	r6, [pc, #100]	; (968c <prvIdleTask+0x68>)
    9628:	4f19      	ldr	r7, [pc, #100]	; (9690 <prvIdleTask+0x6c>)
    962a:	4c1a      	ldr	r4, [pc, #104]	; (9694 <prvIdleTask+0x70>)
    962c:	4d1a      	ldr	r5, [pc, #104]	; (9698 <prvIdleTask+0x74>)
    962e:	f8d4 30ec 	ldr.w	r3, [r4, #236]	; 0xec
    9632:	b953      	cbnz	r3, 964a <prvIdleTask+0x26>
    9634:	69a3      	ldr	r3, [r4, #24]
    9636:	2b01      	cmp	r3, #1
    9638:	d9f8      	bls.n	962c <prvIdleTask+0x8>
    963a:	f04f 5380 	mov.w	r3, #268435456	; 0x10000000
    963e:	6033      	str	r3, [r6, #0]
    9640:	f3bf 8f4f 	dsb	sy
    9644:	f3bf 8f6f 	isb	sy
    9648:	e7ef      	b.n	962a <prvIdleTask+0x6>
    964a:	47b8      	blx	r7
    964c:	f8d4 80b8 	ldr.w	r8, [r4, #184]	; 0xb8
    9650:	47a8      	blx	r5
    9652:	f1b8 0f00 	cmp.w	r8, #0
    9656:	d0ea      	beq.n	962e <prvIdleTask+0xa>
    9658:	4b10      	ldr	r3, [pc, #64]	; (969c <prvIdleTask+0x78>)
    965a:	f8df 804c 	ldr.w	r8, [pc, #76]	; 96a8 <prvIdleTask+0x84>
    965e:	4798      	blx	r3
    9660:	f8d4 30c4 	ldr.w	r3, [r4, #196]	; 0xc4
    9664:	68dd      	ldr	r5, [r3, #12]
    9666:	4b0e      	ldr	r3, [pc, #56]	; (96a0 <prvIdleTask+0x7c>)
    9668:	1d28      	adds	r0, r5, #4
    966a:	4798      	blx	r3
    966c:	6963      	ldr	r3, [r4, #20]
    966e:	3b01      	subs	r3, #1
    9670:	6163      	str	r3, [r4, #20]
    9672:	f8d4 30ec 	ldr.w	r3, [r4, #236]	; 0xec
    9676:	3b01      	subs	r3, #1
    9678:	f8c4 30ec 	str.w	r3, [r4, #236]	; 0xec
    967c:	4b09      	ldr	r3, [pc, #36]	; (96a4 <prvIdleTask+0x80>)
    967e:	4798      	blx	r3
    9680:	6b28      	ldr	r0, [r5, #48]	; 0x30
    9682:	47c0      	blx	r8
    9684:	4628      	mov	r0, r5
    9686:	47c0      	blx	r8
    9688:	e7d0      	b.n	962c <prvIdleTask+0x8>
    968a:	bf00      	nop
    968c:	e000ed04 	.word	0xe000ed04
    9690:	000093b9 	.word	0x000093b9
    9694:	20012780 	.word	0x20012780
    9698:	000094cd 	.word	0x000094cd
    969c:	00008501 	.word	0x00008501
    96a0:	00008437 	.word	0x00008437
    96a4:	00008545 	.word	0x00008545
    96a8:	0000881d 	.word	0x0000881d

000096ac <vTaskSwitchContext>:
    96ac:	4a1c      	ldr	r2, [pc, #112]	; (9720 <vTaskSwitchContext+0x74>)
    96ae:	f8d2 10f0 	ldr.w	r1, [r2, #240]	; 0xf0
    96b2:	b530      	push	{r4, r5, lr}
    96b4:	4613      	mov	r3, r2
    96b6:	b119      	cbz	r1, 96c0 <vTaskSwitchContext+0x14>
    96b8:	2301      	movs	r3, #1
    96ba:	f8c2 30fc 	str.w	r3, [r2, #252]	; 0xfc
    96be:	bd30      	pop	{r4, r5, pc}
    96c0:	f8c2 10fc 	str.w	r1, [r2, #252]	; 0xfc
    96c4:	2214      	movs	r2, #20
    96c6:	f8d3 10e8 	ldr.w	r1, [r3, #232]	; 0xe8
    96ca:	fb02 3101 	mla	r1, r2, r1, r3
    96ce:	6989      	ldr	r1, [r1, #24]
    96d0:	b199      	cbz	r1, 96fa <vTaskSwitchContext+0x4e>
    96d2:	f8d3 10e8 	ldr.w	r1, [r3, #232]	; 0xe8
    96d6:	4d13      	ldr	r5, [pc, #76]	; (9724 <vTaskSwitchContext+0x78>)
    96d8:	434a      	muls	r2, r1
    96da:	1898      	adds	r0, r3, r2
    96dc:	442a      	add	r2, r5
    96de:	69c4      	ldr	r4, [r0, #28]
    96e0:	6864      	ldr	r4, [r4, #4]
    96e2:	61c4      	str	r4, [r0, #28]
    96e4:	4294      	cmp	r4, r2
    96e6:	bf04      	itt	eq
    96e8:	6862      	ldreq	r2, [r4, #4]
    96ea:	61c2      	streq	r2, [r0, #28]
    96ec:	2214      	movs	r2, #20
    96ee:	fb02 3101 	mla	r1, r2, r1, r3
    96f2:	69ca      	ldr	r2, [r1, #28]
    96f4:	68d2      	ldr	r2, [r2, #12]
    96f6:	609a      	str	r2, [r3, #8]
    96f8:	bd30      	pop	{r4, r5, pc}
    96fa:	f8d3 10e8 	ldr.w	r1, [r3, #232]	; 0xe8
    96fe:	b941      	cbnz	r1, 9712 <vTaskSwitchContext+0x66>
    9700:	f04f 0380 	mov.w	r3, #128	; 0x80
    9704:	f383 8811 	msr	BASEPRI, r3
    9708:	f3bf 8f6f 	isb	sy
    970c:	f3bf 8f4f 	dsb	sy
    9710:	e7fe      	b.n	9710 <vTaskSwitchContext+0x64>
    9712:	f8d3 10e8 	ldr.w	r1, [r3, #232]	; 0xe8
    9716:	3901      	subs	r1, #1
    9718:	f8c3 10e8 	str.w	r1, [r3, #232]	; 0xe8
    971c:	e7d3      	b.n	96c6 <vTaskSwitchContext+0x1a>
    971e:	bf00      	nop
    9720:	20012780 	.word	0x20012780
    9724:	200127a0 	.word	0x200127a0

00009728 <vTaskPlaceOnEventList>:
    9728:	b570      	push	{r4, r5, r6, lr}
    972a:	460d      	mov	r5, r1
    972c:	b940      	cbnz	r0, 9740 <vTaskPlaceOnEventList+0x18>
    972e:	f04f 0380 	mov.w	r3, #128	; 0x80
    9732:	f383 8811 	msr	BASEPRI, r3
    9736:	f3bf 8f6f 	isb	sy
    973a:	f3bf 8f4f 	dsb	sy
    973e:	e7fe      	b.n	973e <vTaskPlaceOnEventList+0x16>
    9740:	4c0c      	ldr	r4, [pc, #48]	; (9774 <vTaskPlaceOnEventList+0x4c>)
    9742:	4b0d      	ldr	r3, [pc, #52]	; (9778 <vTaskPlaceOnEventList+0x50>)
    9744:	68a1      	ldr	r1, [r4, #8]
    9746:	3118      	adds	r1, #24
    9748:	4798      	blx	r3
    974a:	68a0      	ldr	r0, [r4, #8]
    974c:	4b0b      	ldr	r3, [pc, #44]	; (977c <vTaskPlaceOnEventList+0x54>)
    974e:	3004      	adds	r0, #4
    9750:	4798      	blx	r3
    9752:	1c6b      	adds	r3, r5, #1
    9754:	d107      	bne.n	9766 <vTaskPlaceOnEventList+0x3e>
    9756:	68a1      	ldr	r1, [r4, #8]
    9758:	4b09      	ldr	r3, [pc, #36]	; (9780 <vTaskPlaceOnEventList+0x58>)
    975a:	f104 00cc 	add.w	r0, r4, #204	; 0xcc
    975e:	3104      	adds	r1, #4
    9760:	e8bd 4070 	ldmia.w	sp!, {r4, r5, r6, lr}
    9764:	4718      	bx	r3
    9766:	68e0      	ldr	r0, [r4, #12]
    9768:	4b06      	ldr	r3, [pc, #24]	; (9784 <vTaskPlaceOnEventList+0x5c>)
    976a:	4428      	add	r0, r5
    976c:	e8bd 4070 	ldmia.w	sp!, {r4, r5, r6, lr}
    9770:	4718      	bx	r3
    9772:	bf00      	nop
    9774:	20012780 	.word	0x20012780
    9778:	00008409 	.word	0x00008409
    977c:	00008437 	.word	0x00008437
    9780:	000083f1 	.word	0x000083f1
    9784:	000090fd 	.word	0x000090fd

00009788 <vTaskPlaceOnEventListRestricted>:
    9788:	e92d 41f0 	stmdb	sp!, {r4, r5, r6, r7, r8, lr}
    978c:	460e      	mov	r6, r1
    978e:	4617      	mov	r7, r2
    9790:	b940      	cbnz	r0, 97a4 <vTaskPlaceOnEventListRestricted+0x1c>
    9792:	f04f 0380 	mov.w	r3, #128	; 0x80
    9796:	f383 8811 	msr	BASEPRI, r3
    979a:	f3bf 8f6f 	isb	sy
    979e:	f3bf 8f4f 	dsb	sy
    97a2:	e7fe      	b.n	97a2 <vTaskPlaceOnEventListRestricted+0x1a>
    97a4:	4c0c      	ldr	r4, [pc, #48]	; (97d8 <vTaskPlaceOnEventListRestricted+0x50>)
    97a6:	4d0d      	ldr	r5, [pc, #52]	; (97dc <vTaskPlaceOnEventListRestricted+0x54>)
    97a8:	68a1      	ldr	r1, [r4, #8]
    97aa:	3118      	adds	r1, #24
    97ac:	47a8      	blx	r5
    97ae:	68a0      	ldr	r0, [r4, #8]
    97b0:	4b0b      	ldr	r3, [pc, #44]	; (97e0 <vTaskPlaceOnEventListRestricted+0x58>)
    97b2:	3004      	adds	r0, #4
    97b4:	4798      	blx	r3
    97b6:	2f01      	cmp	r7, #1
    97b8:	d107      	bne.n	97ca <vTaskPlaceOnEventListRestricted+0x42>
    97ba:	68a1      	ldr	r1, [r4, #8]
    97bc:	f104 00cc 	add.w	r0, r4, #204	; 0xcc
    97c0:	462b      	mov	r3, r5
    97c2:	3104      	adds	r1, #4
    97c4:	e8bd 41f0 	ldmia.w	sp!, {r4, r5, r6, r7, r8, lr}
    97c8:	4718      	bx	r3
    97ca:	68e0      	ldr	r0, [r4, #12]
    97cc:	4b05      	ldr	r3, [pc, #20]	; (97e4 <vTaskPlaceOnEventListRestricted+0x5c>)
    97ce:	4430      	add	r0, r6
    97d0:	e8bd 41f0 	ldmia.w	sp!, {r4, r5, r6, r7, r8, lr}
    97d4:	4718      	bx	r3
    97d6:	bf00      	nop
    97d8:	20012780 	.word	0x20012780
    97dc:	000083f1 	.word	0x000083f1
    97e0:	00008437 	.word	0x00008437
    97e4:	000090fd 	.word	0x000090fd

000097e8 <xTaskRemoveFromEventList>:
    97e8:	68c3      	ldr	r3, [r0, #12]
    97ea:	e92d 41f0 	stmdb	sp!, {r4, r5, r6, r7, r8, lr}
    97ee:	f8d3 800c 	ldr.w	r8, [r3, #12]
    97f2:	f1b8 0f00 	cmp.w	r8, #0
    97f6:	d108      	bne.n	980a <xTaskRemoveFromEventList+0x22>
    97f8:	f04f 0380 	mov.w	r3, #128	; 0x80
    97fc:	f383 8811 	msr	BASEPRI, r3
    9800:	f3bf 8f6f 	isb	sy
    9804:	f3bf 8f4f 	dsb	sy
    9808:	e7fe      	b.n	9808 <xTaskRemoveFromEventList+0x20>
    980a:	f108 0618 	add.w	r6, r8, #24
    980e:	4c15      	ldr	r4, [pc, #84]	; (9864 <xTaskRemoveFromEventList+0x7c>)
    9810:	4f15      	ldr	r7, [pc, #84]	; (9868 <xTaskRemoveFromEventList+0x80>)
    9812:	4d16      	ldr	r5, [pc, #88]	; (986c <xTaskRemoveFromEventList+0x84>)
    9814:	4630      	mov	r0, r6
    9816:	47b8      	blx	r7
    9818:	f8d4 30f0 	ldr.w	r3, [r4, #240]	; 0xf0
    981c:	b9eb      	cbnz	r3, 985a <xTaskRemoveFromEventList+0x72>
    981e:	f108 0604 	add.w	r6, r8, #4
    9822:	4630      	mov	r0, r6
    9824:	47b8      	blx	r7
    9826:	f8d8 302c 	ldr.w	r3, [r8, #44]	; 0x2c
    982a:	f8d4 20e8 	ldr.w	r2, [r4, #232]	; 0xe8
    982e:	4293      	cmp	r3, r2
    9830:	4a0f      	ldr	r2, [pc, #60]	; (9870 <xTaskRemoveFromEventList+0x88>)
    9832:	bf88      	it	hi
    9834:	f8c4 30e8 	strhi.w	r3, [r4, #232]	; 0xe8
    9838:	2014      	movs	r0, #20
    983a:	4631      	mov	r1, r6
    983c:	fb00 2003 	mla	r0, r0, r3, r2
    9840:	47a8      	blx	r5
    9842:	68a3      	ldr	r3, [r4, #8]
    9844:	f8d8 202c 	ldr.w	r2, [r8, #44]	; 0x2c
    9848:	6adb      	ldr	r3, [r3, #44]	; 0x2c
    984a:	429a      	cmp	r2, r3
    984c:	bf86      	itte	hi
    984e:	2001      	movhi	r0, #1
    9850:	f8c4 00fc 	strhi.w	r0, [r4, #252]	; 0xfc
    9854:	2000      	movls	r0, #0
    9856:	e8bd 81f0 	ldmia.w	sp!, {r4, r5, r6, r7, r8, pc}
    985a:	4631      	mov	r1, r6
    985c:	f104 00a4 	add.w	r0, r4, #164	; 0xa4
    9860:	e7ee      	b.n	9840 <xTaskRemoveFromEventList+0x58>
    9862:	bf00      	nop
    9864:	20012780 	.word	0x20012780
    9868:	00008437 	.word	0x00008437
    986c:	000083f1 	.word	0x000083f1
    9870:	20012798 	.word	0x20012798

00009874 <vTaskSetTimeOutState>:
    9874:	b508      	push	{r3, lr}
    9876:	b908      	cbnz	r0, 987c <vTaskSetTimeOutState+0x8>
    9878:	4b04      	ldr	r3, [pc, #16]	; (988c <vTaskSetTimeOutState+0x18>)
    987a:	4798      	blx	r3
    987c:	4b04      	ldr	r3, [pc, #16]	; (9890 <vTaskSetTimeOutState+0x1c>)
    987e:	f8d3 20f4 	ldr.w	r2, [r3, #244]	; 0xf4
    9882:	68db      	ldr	r3, [r3, #12]
    9884:	6002      	str	r2, [r0, #0]
    9886:	6043      	str	r3, [r0, #4]
    9888:	bd08      	pop	{r3, pc}
    988a:	bf00      	nop
    988c:	000092e5 	.word	0x000092e5
    9890:	20012780 	.word	0x20012780

00009894 <xTaskCheckForTimeOut>:
    9894:	b538      	push	{r3, r4, r5, lr}
    9896:	460d      	mov	r5, r1
    9898:	4604      	mov	r4, r0
    989a:	b940      	cbnz	r0, 98ae <xTaskCheckForTimeOut+0x1a>
    989c:	f04f 0380 	mov.w	r3, #128	; 0x80
    98a0:	f383 8811 	msr	BASEPRI, r3
    98a4:	f3bf 8f6f 	isb	sy
    98a8:	f3bf 8f4f 	dsb	sy
    98ac:	e7fe      	b.n	98ac <xTaskCheckForTimeOut+0x18>
    98ae:	b941      	cbnz	r1, 98c2 <xTaskCheckForTimeOut+0x2e>
    98b0:	f04f 0380 	mov.w	r3, #128	; 0x80
    98b4:	f383 8811 	msr	BASEPRI, r3
    98b8:	f3bf 8f6f 	isb	sy
    98bc:	f3bf 8f4f 	dsb	sy
    98c0:	e7fe      	b.n	98c0 <xTaskCheckForTimeOut+0x2c>
    98c2:	4b0f      	ldr	r3, [pc, #60]	; (9900 <xTaskCheckForTimeOut+0x6c>)
    98c4:	4798      	blx	r3
    98c6:	682b      	ldr	r3, [r5, #0]
    98c8:	4a0e      	ldr	r2, [pc, #56]	; (9904 <xTaskCheckForTimeOut+0x70>)
    98ca:	1c58      	adds	r0, r3, #1
    98cc:	68d1      	ldr	r1, [r2, #12]
    98ce:	d010      	beq.n	98f2 <xTaskCheckForTimeOut+0x5e>
    98d0:	f8d2 20f4 	ldr.w	r2, [r2, #244]	; 0xf4
    98d4:	6820      	ldr	r0, [r4, #0]
    98d6:	4290      	cmp	r0, r2
    98d8:	6862      	ldr	r2, [r4, #4]
    98da:	d001      	beq.n	98e0 <xTaskCheckForTimeOut+0x4c>
    98dc:	4291      	cmp	r1, r2
    98de:	d20d      	bcs.n	98fc <xTaskCheckForTimeOut+0x68>
    98e0:	1a88      	subs	r0, r1, r2
    98e2:	4283      	cmp	r3, r0
    98e4:	d90a      	bls.n	98fc <xTaskCheckForTimeOut+0x68>
    98e6:	1a5b      	subs	r3, r3, r1
    98e8:	4413      	add	r3, r2
    98ea:	602b      	str	r3, [r5, #0]
    98ec:	4620      	mov	r0, r4
    98ee:	4b06      	ldr	r3, [pc, #24]	; (9908 <xTaskCheckForTimeOut+0x74>)
    98f0:	4798      	blx	r3
    98f2:	2400      	movs	r4, #0
    98f4:	4b05      	ldr	r3, [pc, #20]	; (990c <xTaskCheckForTimeOut+0x78>)
    98f6:	4798      	blx	r3
    98f8:	4620      	mov	r0, r4
    98fa:	bd38      	pop	{r3, r4, r5, pc}
    98fc:	2401      	movs	r4, #1
    98fe:	e7f9      	b.n	98f4 <xTaskCheckForTimeOut+0x60>
    9900:	00008501 	.word	0x00008501
    9904:	20012780 	.word	0x20012780
    9908:	00009875 	.word	0x00009875
    990c:	00008545 	.word	0x00008545

00009910 <vTaskMissedYield>:
    9910:	4b02      	ldr	r3, [pc, #8]	; (991c <vTaskMissedYield+0xc>)
    9912:	2201      	movs	r2, #1
    9914:	f8c3 20fc 	str.w	r2, [r3, #252]	; 0xfc
    9918:	4770      	bx	lr
    991a:	bf00      	nop
    991c:	20012780 	.word	0x20012780

00009920 <xTaskGetSchedulerState>:
    9920:	4b06      	ldr	r3, [pc, #24]	; (993c <xTaskGetSchedulerState+0x1c>)
    9922:	f8d3 20e0 	ldr.w	r2, [r3, #224]	; 0xe0
    9926:	b132      	cbz	r2, 9936 <xTaskGetSchedulerState+0x16>
    9928:	f8d3 30f0 	ldr.w	r3, [r3, #240]	; 0xf0
    992c:	2b00      	cmp	r3, #0
    992e:	bf0c      	ite	eq
    9930:	2002      	moveq	r0, #2
    9932:	2000      	movne	r0, #0
    9934:	4770      	bx	lr
    9936:	2001      	movs	r0, #1
    9938:	4770      	bx	lr
    993a:	bf00      	nop
    993c:	20012780 	.word	0x20012780

00009940 <vTaskPriorityInherit>:
    9940:	e92d 41f0 	stmdb	sp!, {r4, r5, r6, r7, r8, lr}
    9944:	4604      	mov	r4, r0
    9946:	2800      	cmp	r0, #0
    9948:	d02c      	beq.n	99a4 <vTaskPriorityInherit+0x64>
    994a:	4d17      	ldr	r5, [pc, #92]	; (99a8 <vTaskPriorityInherit+0x68>)
    994c:	6ac3      	ldr	r3, [r0, #44]	; 0x2c
    994e:	68aa      	ldr	r2, [r5, #8]
    9950:	6ad2      	ldr	r2, [r2, #44]	; 0x2c
    9952:	4293      	cmp	r3, r2
    9954:	d226      	bcs.n	99a4 <vTaskPriorityInherit+0x64>
    9956:	6982      	ldr	r2, [r0, #24]
    9958:	4e14      	ldr	r6, [pc, #80]	; (99ac <vTaskPriorityInherit+0x6c>)
    995a:	2a00      	cmp	r2, #0
    995c:	bfa1      	itttt	ge
    995e:	68aa      	ldrge	r2, [r5, #8]
    9960:	6ad2      	ldrge	r2, [r2, #44]	; 0x2c
    9962:	f1c2 0205 	rsbge	r2, r2, #5
    9966:	6182      	strge	r2, [r0, #24]
    9968:	2214      	movs	r2, #20
    996a:	fb02 6303 	mla	r3, r2, r3, r6
    996e:	6942      	ldr	r2, [r0, #20]
    9970:	429a      	cmp	r2, r3
    9972:	d114      	bne.n	999e <vTaskPriorityInherit+0x5e>
    9974:	1d07      	adds	r7, r0, #4
    9976:	4b0e      	ldr	r3, [pc, #56]	; (99b0 <vTaskPriorityInherit+0x70>)
    9978:	4638      	mov	r0, r7
    997a:	4798      	blx	r3
    997c:	68ab      	ldr	r3, [r5, #8]
    997e:	f8d5 20e8 	ldr.w	r2, [r5, #232]	; 0xe8
    9982:	6adb      	ldr	r3, [r3, #44]	; 0x2c
    9984:	62e3      	str	r3, [r4, #44]	; 0x2c
    9986:	4293      	cmp	r3, r2
    9988:	d901      	bls.n	998e <vTaskPriorityInherit+0x4e>
    998a:	f8c5 30e8 	str.w	r3, [r5, #232]	; 0xe8
    998e:	2014      	movs	r0, #20
    9990:	fb00 6003 	mla	r0, r0, r3, r6
    9994:	4639      	mov	r1, r7
    9996:	4b07      	ldr	r3, [pc, #28]	; (99b4 <vTaskPriorityInherit+0x74>)
    9998:	e8bd 41f0 	ldmia.w	sp!, {r4, r5, r6, r7, r8, lr}
    999c:	4718      	bx	r3
    999e:	68ab      	ldr	r3, [r5, #8]
    99a0:	6adb      	ldr	r3, [r3, #44]	; 0x2c
    99a2:	62c3      	str	r3, [r0, #44]	; 0x2c
    99a4:	e8bd 81f0 	ldmia.w	sp!, {r4, r5, r6, r7, r8, pc}
    99a8:	20012780 	.word	0x20012780
    99ac:	20012798 	.word	0x20012798
    99b0:	00008437 	.word	0x00008437
    99b4:	000083f1 	.word	0x000083f1

000099b8 <xTaskPriorityDisinherit>:
    99b8:	b570      	push	{r4, r5, r6, lr}
    99ba:	4604      	mov	r4, r0
    99bc:	b908      	cbnz	r0, 99c2 <xTaskPriorityDisinherit+0xa>
    99be:	2000      	movs	r0, #0
    99c0:	bd70      	pop	{r4, r5, r6, pc}
    99c2:	4d1c      	ldr	r5, [pc, #112]	; (9a34 <xTaskPriorityDisinherit+0x7c>)
    99c4:	68ab      	ldr	r3, [r5, #8]
    99c6:	4298      	cmp	r0, r3
    99c8:	d008      	beq.n	99dc <xTaskPriorityDisinherit+0x24>
    99ca:	f04f 0380 	mov.w	r3, #128	; 0x80
    99ce:	f383 8811 	msr	BASEPRI, r3
    99d2:	f3bf 8f6f 	isb	sy
    99d6:	f3bf 8f4f 	dsb	sy
    99da:	e7fe      	b.n	99da <xTaskPriorityDisinherit+0x22>
    99dc:	6c83      	ldr	r3, [r0, #72]	; 0x48
    99de:	b943      	cbnz	r3, 99f2 <xTaskPriorityDisinherit+0x3a>
    99e0:	f04f 0380 	mov.w	r3, #128	; 0x80
    99e4:	f383 8811 	msr	BASEPRI, r3
    99e8:	f3bf 8f6f 	isb	sy
    99ec:	f3bf 8f4f 	dsb	sy
    99f0:	e7fe      	b.n	99f0 <xTaskPriorityDisinherit+0x38>
    99f2:	6ac1      	ldr	r1, [r0, #44]	; 0x2c
    99f4:	6c42      	ldr	r2, [r0, #68]	; 0x44
    99f6:	3b01      	subs	r3, #1
    99f8:	4291      	cmp	r1, r2
    99fa:	6483      	str	r3, [r0, #72]	; 0x48
    99fc:	d0df      	beq.n	99be <xTaskPriorityDisinherit+0x6>
    99fe:	2b00      	cmp	r3, #0
    9a00:	d1dd      	bne.n	99be <xTaskPriorityDisinherit+0x6>
    9a02:	1d06      	adds	r6, r0, #4
    9a04:	4630      	mov	r0, r6
    9a06:	4b0c      	ldr	r3, [pc, #48]	; (9a38 <xTaskPriorityDisinherit+0x80>)
    9a08:	4798      	blx	r3
    9a0a:	6c63      	ldr	r3, [r4, #68]	; 0x44
    9a0c:	62e3      	str	r3, [r4, #44]	; 0x2c
    9a0e:	f1c3 0205 	rsb	r2, r3, #5
    9a12:	61a2      	str	r2, [r4, #24]
    9a14:	f8d5 20e8 	ldr.w	r2, [r5, #232]	; 0xe8
    9a18:	4293      	cmp	r3, r2
    9a1a:	4a08      	ldr	r2, [pc, #32]	; (9a3c <xTaskPriorityDisinherit+0x84>)
    9a1c:	bf88      	it	hi
    9a1e:	f8c5 30e8 	strhi.w	r3, [r5, #232]	; 0xe8
    9a22:	2014      	movs	r0, #20
    9a24:	fb00 2003 	mla	r0, r0, r3, r2
    9a28:	4631      	mov	r1, r6
    9a2a:	4b05      	ldr	r3, [pc, #20]	; (9a40 <xTaskPriorityDisinherit+0x88>)
    9a2c:	4798      	blx	r3
    9a2e:	2001      	movs	r0, #1
    9a30:	bd70      	pop	{r4, r5, r6, pc}
    9a32:	bf00      	nop
    9a34:	20012780 	.word	0x20012780
    9a38:	00008437 	.word	0x00008437
    9a3c:	20012798 	.word	0x20012798
    9a40:	000083f1 	.word	0x000083f1

00009a44 <pvTaskIncrementMutexHeldCount>:
    9a44:	4b04      	ldr	r3, [pc, #16]	; (9a58 <pvTaskIncrementMutexHeldCount+0x14>)
    9a46:	689a      	ldr	r2, [r3, #8]
    9a48:	b11a      	cbz	r2, 9a52 <pvTaskIncrementMutexHeldCount+0xe>
    9a4a:	6899      	ldr	r1, [r3, #8]
    9a4c:	6c8a      	ldr	r2, [r1, #72]	; 0x48
    9a4e:	3201      	adds	r2, #1
    9a50:	648a      	str	r2, [r1, #72]	; 0x48
    9a52:	6898      	ldr	r0, [r3, #8]
    9a54:	4770      	bx	lr
    9a56:	bf00      	nop
    9a58:	20012780 	.word	0x20012780

00009a5c <prvInsertTimerInActiveList>:
    9a5c:	4291      	cmp	r1, r2
    9a5e:	b508      	push	{r3, lr}
    9a60:	6041      	str	r1, [r0, #4]
    9a62:	6100      	str	r0, [r0, #16]
    9a64:	d80a      	bhi.n	9a7c <prvInsertTimerInActiveList+0x20>
    9a66:	1ad2      	subs	r2, r2, r3
    9a68:	6983      	ldr	r3, [r0, #24]
    9a6a:	429a      	cmp	r2, r3
    9a6c:	d20e      	bcs.n	9a8c <prvInsertTimerInActiveList+0x30>
    9a6e:	4b08      	ldr	r3, [pc, #32]	; (9a90 <prvInsertTimerInActiveList+0x34>)
    9a70:	1d01      	adds	r1, r0, #4
    9a72:	6818      	ldr	r0, [r3, #0]
    9a74:	4b07      	ldr	r3, [pc, #28]	; (9a94 <prvInsertTimerInActiveList+0x38>)
    9a76:	4798      	blx	r3
    9a78:	2000      	movs	r0, #0
    9a7a:	bd08      	pop	{r3, pc}
    9a7c:	429a      	cmp	r2, r3
    9a7e:	d201      	bcs.n	9a84 <prvInsertTimerInActiveList+0x28>
    9a80:	4299      	cmp	r1, r3
    9a82:	d203      	bcs.n	9a8c <prvInsertTimerInActiveList+0x30>
    9a84:	4b02      	ldr	r3, [pc, #8]	; (9a90 <prvInsertTimerInActiveList+0x34>)
    9a86:	1d01      	adds	r1, r0, #4
    9a88:	6858      	ldr	r0, [r3, #4]
    9a8a:	e7f3      	b.n	9a74 <prvInsertTimerInActiveList+0x18>
    9a8c:	2001      	movs	r0, #1
    9a8e:	bd08      	pop	{r3, pc}
    9a90:	20012880 	.word	0x20012880
    9a94:	00008409 	.word	0x00008409

00009a98 <prvCheckForValidListAndQueue.part.1>:
    9a98:	f04f 0380 	mov.w	r3, #128	; 0x80
    9a9c:	f383 8811 	msr	BASEPRI, r3
    9aa0:	f3bf 8f6f 	isb	sy
    9aa4:	f3bf 8f4f 	dsb	sy
    9aa8:	e7fe      	b.n	9aa8 <prvCheckForValidListAndQueue.part.1+0x10>
	...

00009aac <prvCheckForValidListAndQueue>:
    9aac:	e92d 41f0 	stmdb	sp!, {r4, r5, r6, r7, r8, lr}
    9ab0:	4c0e      	ldr	r4, [pc, #56]	; (9aec <prvCheckForValidListAndQueue+0x40>)
    9ab2:	4b0f      	ldr	r3, [pc, #60]	; (9af0 <prvCheckForValidListAndQueue+0x44>)
    9ab4:	4798      	blx	r3
    9ab6:	68a5      	ldr	r5, [r4, #8]
    9ab8:	b9a5      	cbnz	r5, 9ae4 <prvCheckForValidListAndQueue+0x38>
    9aba:	f104 070c 	add.w	r7, r4, #12
    9abe:	4638      	mov	r0, r7
    9ac0:	f8df 803c 	ldr.w	r8, [pc, #60]	; 9b00 <prvCheckForValidListAndQueue+0x54>
    9ac4:	f104 0620 	add.w	r6, r4, #32
    9ac8:	47c0      	blx	r8
    9aca:	4630      	mov	r0, r6
    9acc:	47c0      	blx	r8
    9ace:	462a      	mov	r2, r5
    9ad0:	210c      	movs	r1, #12
    9ad2:	2002      	movs	r0, #2
    9ad4:	4b07      	ldr	r3, [pc, #28]	; (9af4 <prvCheckForValidListAndQueue+0x48>)
    9ad6:	e884 00c0 	stmia.w	r4, {r6, r7}
    9ada:	4798      	blx	r3
    9adc:	60a0      	str	r0, [r4, #8]
    9ade:	b908      	cbnz	r0, 9ae4 <prvCheckForValidListAndQueue+0x38>
    9ae0:	4b05      	ldr	r3, [pc, #20]	; (9af8 <prvCheckForValidListAndQueue+0x4c>)
    9ae2:	4798      	blx	r3
    9ae4:	4b05      	ldr	r3, [pc, #20]	; (9afc <prvCheckForValidListAndQueue+0x50>)
    9ae6:	e8bd 41f0 	ldmia.w	sp!, {r4, r5, r6, r7, r8, lr}
    9aea:	4718      	bx	r3
    9aec:	20012880 	.word	0x20012880
    9af0:	00008501 	.word	0x00008501
    9af4:	00008aa9 	.word	0x00008aa9
    9af8:	00009a99 	.word	0x00009a99
    9afc:	00008545 	.word	0x00008545
    9b00:	000083d5 	.word	0x000083d5

00009b04 <xTimerCreateTimerTask>:
    9b04:	b51f      	push	{r0, r1, r2, r3, r4, lr}
    9b06:	4b0e      	ldr	r3, [pc, #56]	; (9b40 <xTimerCreateTimerTask+0x3c>)
    9b08:	4798      	blx	r3
    9b0a:	4b0e      	ldr	r3, [pc, #56]	; (9b44 <xTimerCreateTimerTask+0x40>)
    9b0c:	689b      	ldr	r3, [r3, #8]
    9b0e:	b163      	cbz	r3, 9b2a <xTimerCreateTimerTask+0x26>
    9b10:	2300      	movs	r3, #0
    9b12:	2202      	movs	r2, #2
    9b14:	9200      	str	r2, [sp, #0]
    9b16:	9303      	str	r3, [sp, #12]
    9b18:	9302      	str	r3, [sp, #8]
    9b1a:	9301      	str	r3, [sp, #4]
    9b1c:	f44f 7280 	mov.w	r2, #256	; 0x100
    9b20:	4909      	ldr	r1, [pc, #36]	; (9b48 <xTimerCreateTimerTask+0x44>)
    9b22:	480a      	ldr	r0, [pc, #40]	; (9b4c <xTimerCreateTimerTask+0x48>)
    9b24:	4c0a      	ldr	r4, [pc, #40]	; (9b50 <xTimerCreateTimerTask+0x4c>)
    9b26:	47a0      	blx	r4
    9b28:	b940      	cbnz	r0, 9b3c <xTimerCreateTimerTask+0x38>
    9b2a:	f04f 0380 	mov.w	r3, #128	; 0x80
    9b2e:	f383 8811 	msr	BASEPRI, r3
    9b32:	f3bf 8f6f 	isb	sy
    9b36:	f3bf 8f4f 	dsb	sy
    9b3a:	e7fe      	b.n	9b3a <xTimerCreateTimerTask+0x36>
    9b3c:	b004      	add	sp, #16
    9b3e:	bd10      	pop	{r4, pc}
    9b40:	00009aad 	.word	0x00009aad
    9b44:	20012880 	.word	0x20012880
    9b48:	0000bbe1 	.word	0x0000bbe1
    9b4c:	00009c31 	.word	0x00009c31
    9b50:	000092f9 	.word	0x000092f9

00009b54 <xTimerGenericCommand>:
    9b54:	b530      	push	{r4, r5, lr}
    9b56:	4615      	mov	r5, r2
    9b58:	b085      	sub	sp, #20
    9b5a:	461a      	mov	r2, r3
    9b5c:	4603      	mov	r3, r0
    9b5e:	b908      	cbnz	r0, 9b64 <xTimerGenericCommand+0x10>
    9b60:	4b0e      	ldr	r3, [pc, #56]	; (9b9c <xTimerGenericCommand+0x48>)
    9b62:	4798      	blx	r3
    9b64:	4c0e      	ldr	r4, [pc, #56]	; (9ba0 <xTimerGenericCommand+0x4c>)
    9b66:	68a0      	ldr	r0, [r4, #8]
    9b68:	b180      	cbz	r0, 9b8c <xTimerGenericCommand+0x38>
    9b6a:	2905      	cmp	r1, #5
    9b6c:	9101      	str	r1, [sp, #4]
    9b6e:	9502      	str	r5, [sp, #8]
    9b70:	9303      	str	r3, [sp, #12]
    9b72:	dc0d      	bgt.n	9b90 <xTimerGenericCommand+0x3c>
    9b74:	4b0b      	ldr	r3, [pc, #44]	; (9ba4 <xTimerGenericCommand+0x50>)
    9b76:	4d0c      	ldr	r5, [pc, #48]	; (9ba8 <xTimerGenericCommand+0x54>)
    9b78:	4798      	blx	r3
    9b7a:	2300      	movs	r3, #0
    9b7c:	2802      	cmp	r0, #2
    9b7e:	bf08      	it	eq
    9b80:	9a08      	ldreq	r2, [sp, #32]
    9b82:	68a0      	ldr	r0, [r4, #8]
    9b84:	bf18      	it	ne
    9b86:	461a      	movne	r2, r3
    9b88:	a901      	add	r1, sp, #4
    9b8a:	47a8      	blx	r5
    9b8c:	b005      	add	sp, #20
    9b8e:	bd30      	pop	{r4, r5, pc}
    9b90:	2300      	movs	r3, #0
    9b92:	a901      	add	r1, sp, #4
    9b94:	4c05      	ldr	r4, [pc, #20]	; (9bac <xTimerGenericCommand+0x58>)
    9b96:	47a0      	blx	r4
    9b98:	e7f8      	b.n	9b8c <xTimerGenericCommand+0x38>
    9b9a:	bf00      	nop
    9b9c:	00009a99 	.word	0x00009a99
    9ba0:	20012880 	.word	0x20012880
    9ba4:	00009921 	.word	0x00009921
    9ba8:	00008b61 	.word	0x00008b61
    9bac:	00008d09 	.word	0x00008d09

00009bb0 <prvSwitchTimerLists>:
    9bb0:	e92d 41f3 	stmdb	sp!, {r0, r1, r4, r5, r6, r7, r8, lr}
    9bb4:	4d1a      	ldr	r5, [pc, #104]	; (9c20 <prvSwitchTimerLists+0x70>)
    9bb6:	4f1b      	ldr	r7, [pc, #108]	; (9c24 <prvSwitchTimerLists+0x74>)
    9bb8:	686b      	ldr	r3, [r5, #4]
    9bba:	681a      	ldr	r2, [r3, #0]
    9bbc:	b92a      	cbnz	r2, 9bca <prvSwitchTimerLists+0x1a>
    9bbe:	682a      	ldr	r2, [r5, #0]
    9bc0:	606a      	str	r2, [r5, #4]
    9bc2:	602b      	str	r3, [r5, #0]
    9bc4:	b002      	add	sp, #8
    9bc6:	e8bd 81f0 	ldmia.w	sp!, {r4, r5, r6, r7, r8, pc}
    9bca:	68db      	ldr	r3, [r3, #12]
    9bcc:	68dc      	ldr	r4, [r3, #12]
    9bce:	681e      	ldr	r6, [r3, #0]
    9bd0:	f104 0804 	add.w	r8, r4, #4
    9bd4:	4640      	mov	r0, r8
    9bd6:	47b8      	blx	r7
    9bd8:	6a63      	ldr	r3, [r4, #36]	; 0x24
    9bda:	4620      	mov	r0, r4
    9bdc:	4798      	blx	r3
    9bde:	69e3      	ldr	r3, [r4, #28]
    9be0:	2b01      	cmp	r3, #1
    9be2:	d1e9      	bne.n	9bb8 <prvSwitchTimerLists+0x8>
    9be4:	69a3      	ldr	r3, [r4, #24]
    9be6:	4433      	add	r3, r6
    9be8:	429e      	cmp	r6, r3
    9bea:	d206      	bcs.n	9bfa <prvSwitchTimerLists+0x4a>
    9bec:	6063      	str	r3, [r4, #4]
    9bee:	6124      	str	r4, [r4, #16]
    9bf0:	4641      	mov	r1, r8
    9bf2:	6868      	ldr	r0, [r5, #4]
    9bf4:	4b0c      	ldr	r3, [pc, #48]	; (9c28 <prvSwitchTimerLists+0x78>)
    9bf6:	4798      	blx	r3
    9bf8:	e7de      	b.n	9bb8 <prvSwitchTimerLists+0x8>
    9bfa:	2300      	movs	r3, #0
    9bfc:	4620      	mov	r0, r4
    9bfe:	9300      	str	r3, [sp, #0]
    9c00:	4632      	mov	r2, r6
    9c02:	4619      	mov	r1, r3
    9c04:	4c09      	ldr	r4, [pc, #36]	; (9c2c <prvSwitchTimerLists+0x7c>)
    9c06:	47a0      	blx	r4
    9c08:	2800      	cmp	r0, #0
    9c0a:	d1d5      	bne.n	9bb8 <prvSwitchTimerLists+0x8>
    9c0c:	f04f 0380 	mov.w	r3, #128	; 0x80
    9c10:	f383 8811 	msr	BASEPRI, r3
    9c14:	f3bf 8f6f 	isb	sy
    9c18:	f3bf 8f4f 	dsb	sy
    9c1c:	e7fe      	b.n	9c1c <prvSwitchTimerLists+0x6c>
    9c1e:	bf00      	nop
    9c20:	20012880 	.word	0x20012880
    9c24:	00008437 	.word	0x00008437
    9c28:	00008409 	.word	0x00008409
    9c2c:	00009b55 	.word	0x00009b55

00009c30 <prvTimerTask>:
    9c30:	e92d 4ff0 	stmdb	sp!, {r4, r5, r6, r7, r8, r9, sl, fp, lr}
    9c34:	b087      	sub	sp, #28
    9c36:	4d65      	ldr	r5, [pc, #404]	; (9dcc <prvTimerTask+0x19c>)
    9c38:	686a      	ldr	r2, [r5, #4]
    9c3a:	f8d2 9000 	ldr.w	r9, [r2]
    9c3e:	46a8      	mov	r8, r5
    9c40:	f1b9 0f00 	cmp.w	r9, #0
    9c44:	d03c      	beq.n	9cc0 <prvTimerTask+0x90>
    9c46:	68d2      	ldr	r2, [r2, #12]
    9c48:	6816      	ldr	r6, [r2, #0]
    9c4a:	4a61      	ldr	r2, [pc, #388]	; (9dd0 <prvTimerTask+0x1a0>)
    9c4c:	4f61      	ldr	r7, [pc, #388]	; (9dd4 <prvTimerTask+0x1a4>)
    9c4e:	4790      	blx	r2
    9c50:	47b8      	blx	r7
    9c52:	6b6a      	ldr	r2, [r5, #52]	; 0x34
    9c54:	4290      	cmp	r0, r2
    9c56:	4682      	mov	sl, r0
    9c58:	d234      	bcs.n	9cc4 <prvTimerTask+0x94>
    9c5a:	4a5f      	ldr	r2, [pc, #380]	; (9dd8 <prvTimerTask+0x1a8>)
    9c5c:	4790      	blx	r2
    9c5e:	2401      	movs	r4, #1
    9c60:	f8c5 a034 	str.w	sl, [r5, #52]	; 0x34
    9c64:	f8df b190 	ldr.w	fp, [pc, #400]	; 9df8 <prvTimerTask+0x1c8>
    9c68:	2c00      	cmp	r4, #0
    9c6a:	d175      	bne.n	9d58 <prvTimerTask+0x128>
    9c6c:	f1b9 0f00 	cmp.w	r9, #0
    9c70:	d05a      	beq.n	9d28 <prvTimerTask+0xf8>
    9c72:	4556      	cmp	r6, sl
    9c74:	d86e      	bhi.n	9d54 <prvTimerTask+0x124>
    9c76:	47d8      	blx	fp
    9c78:	686b      	ldr	r3, [r5, #4]
    9c7a:	68db      	ldr	r3, [r3, #12]
    9c7c:	68dd      	ldr	r5, [r3, #12]
    9c7e:	4b57      	ldr	r3, [pc, #348]	; (9ddc <prvTimerTask+0x1ac>)
    9c80:	1d28      	adds	r0, r5, #4
    9c82:	4798      	blx	r3
    9c84:	69eb      	ldr	r3, [r5, #28]
    9c86:	2b01      	cmp	r3, #1
    9c88:	d11e      	bne.n	9cc8 <prvTimerTask+0x98>
    9c8a:	69a9      	ldr	r1, [r5, #24]
    9c8c:	4652      	mov	r2, sl
    9c8e:	4633      	mov	r3, r6
    9c90:	4431      	add	r1, r6
    9c92:	4628      	mov	r0, r5
    9c94:	f8df a15c 	ldr.w	sl, [pc, #348]	; 9df4 <prvTimerTask+0x1c4>
    9c98:	47d0      	blx	sl
    9c9a:	2801      	cmp	r0, #1
    9c9c:	d114      	bne.n	9cc8 <prvTimerTask+0x98>
    9c9e:	9400      	str	r4, [sp, #0]
    9ca0:	4623      	mov	r3, r4
    9ca2:	4621      	mov	r1, r4
    9ca4:	4632      	mov	r2, r6
    9ca6:	4628      	mov	r0, r5
    9ca8:	4c4d      	ldr	r4, [pc, #308]	; (9de0 <prvTimerTask+0x1b0>)
    9caa:	47a0      	blx	r4
    9cac:	b960      	cbnz	r0, 9cc8 <prvTimerTask+0x98>
    9cae:	f04f 0380 	mov.w	r3, #128	; 0x80
    9cb2:	f383 8811 	msr	BASEPRI, r3
    9cb6:	f3bf 8f6f 	isb	sy
    9cba:	f3bf 8f4f 	dsb	sy
    9cbe:	e7fe      	b.n	9cbe <prvTimerTask+0x8e>
    9cc0:	464e      	mov	r6, r9
    9cc2:	e7c2      	b.n	9c4a <prvTimerTask+0x1a>
    9cc4:	2400      	movs	r4, #0
    9cc6:	e7cb      	b.n	9c60 <prvTimerTask+0x30>
    9cc8:	6a6b      	ldr	r3, [r5, #36]	; 0x24
    9cca:	4628      	mov	r0, r5
    9ccc:	4798      	blx	r3
    9cce:	4d45      	ldr	r5, [pc, #276]	; (9de4 <prvTimerTask+0x1b4>)
    9cd0:	4e41      	ldr	r6, [pc, #260]	; (9dd8 <prvTimerTask+0x1a8>)
    9cd2:	f8d8 0008 	ldr.w	r0, [r8, #8]
    9cd6:	2300      	movs	r3, #0
    9cd8:	461a      	mov	r2, r3
    9cda:	a903      	add	r1, sp, #12
    9cdc:	47a8      	blx	r5
    9cde:	2800      	cmp	r0, #0
    9ce0:	d0a9      	beq.n	9c36 <prvTimerTask+0x6>
    9ce2:	9b03      	ldr	r3, [sp, #12]
    9ce4:	2b00      	cmp	r3, #0
    9ce6:	dbf4      	blt.n	9cd2 <prvTimerTask+0xa2>
    9ce8:	9c05      	ldr	r4, [sp, #20]
    9cea:	6963      	ldr	r3, [r4, #20]
    9cec:	b113      	cbz	r3, 9cf4 <prvTimerTask+0xc4>
    9cee:	1d20      	adds	r0, r4, #4
    9cf0:	4b3a      	ldr	r3, [pc, #232]	; (9ddc <prvTimerTask+0x1ac>)
    9cf2:	4798      	blx	r3
    9cf4:	47b8      	blx	r7
    9cf6:	f8d8 3034 	ldr.w	r3, [r8, #52]	; 0x34
    9cfa:	4298      	cmp	r0, r3
    9cfc:	4683      	mov	fp, r0
    9cfe:	d200      	bcs.n	9d02 <prvTimerTask+0xd2>
    9d00:	47b0      	blx	r6
    9d02:	9a03      	ldr	r2, [sp, #12]
    9d04:	f8c8 b034 	str.w	fp, [r8, #52]	; 0x34
    9d08:	2a09      	cmp	r2, #9
    9d0a:	d8e2      	bhi.n	9cd2 <prvTimerTask+0xa2>
    9d0c:	2301      	movs	r3, #1
    9d0e:	4093      	lsls	r3, r2
    9d10:	f413 7a04 	ands.w	sl, r3, #528	; 0x210
    9d14:	d146      	bne.n	9da4 <prvTimerTask+0x174>
    9d16:	f013 0fc7 	tst.w	r3, #199	; 0xc7
    9d1a:	d11f      	bne.n	9d5c <prvTimerTask+0x12c>
    9d1c:	069b      	lsls	r3, r3, #26
    9d1e:	d5d8      	bpl.n	9cd2 <prvTimerTask+0xa2>
    9d20:	4620      	mov	r0, r4
    9d22:	4b31      	ldr	r3, [pc, #196]	; (9de8 <prvTimerTask+0x1b8>)
    9d24:	4798      	blx	r3
    9d26:	e7d3      	b.n	9cd0 <prvTimerTask+0xa0>
    9d28:	682b      	ldr	r3, [r5, #0]
    9d2a:	681a      	ldr	r2, [r3, #0]
    9d2c:	fab2 f282 	clz	r2, r2
    9d30:	0952      	lsrs	r2, r2, #5
    9d32:	eba6 010a 	sub.w	r1, r6, sl
    9d36:	68a8      	ldr	r0, [r5, #8]
    9d38:	4b2c      	ldr	r3, [pc, #176]	; (9dec <prvTimerTask+0x1bc>)
    9d3a:	4798      	blx	r3
    9d3c:	47d8      	blx	fp
    9d3e:	2800      	cmp	r0, #0
    9d40:	d1c5      	bne.n	9cce <prvTimerTask+0x9e>
    9d42:	4b2b      	ldr	r3, [pc, #172]	; (9df0 <prvTimerTask+0x1c0>)
    9d44:	f04f 5280 	mov.w	r2, #268435456	; 0x10000000
    9d48:	601a      	str	r2, [r3, #0]
    9d4a:	f3bf 8f4f 	dsb	sy
    9d4e:	f3bf 8f6f 	isb	sy
    9d52:	e7bc      	b.n	9cce <prvTimerTask+0x9e>
    9d54:	4622      	mov	r2, r4
    9d56:	e7ec      	b.n	9d32 <prvTimerTask+0x102>
    9d58:	47d8      	blx	fp
    9d5a:	e7b8      	b.n	9cce <prvTimerTask+0x9e>
    9d5c:	69a1      	ldr	r1, [r4, #24]
    9d5e:	9b04      	ldr	r3, [sp, #16]
    9d60:	4e24      	ldr	r6, [pc, #144]	; (9df4 <prvTimerTask+0x1c4>)
    9d62:	465a      	mov	r2, fp
    9d64:	4419      	add	r1, r3
    9d66:	4620      	mov	r0, r4
    9d68:	47b0      	blx	r6
    9d6a:	2801      	cmp	r0, #1
    9d6c:	d1b0      	bne.n	9cd0 <prvTimerTask+0xa0>
    9d6e:	6a63      	ldr	r3, [r4, #36]	; 0x24
    9d70:	4620      	mov	r0, r4
    9d72:	4798      	blx	r3
    9d74:	69e3      	ldr	r3, [r4, #28]
    9d76:	2b01      	cmp	r3, #1
    9d78:	d1aa      	bne.n	9cd0 <prvTimerTask+0xa0>
    9d7a:	69a2      	ldr	r2, [r4, #24]
    9d7c:	9904      	ldr	r1, [sp, #16]
    9d7e:	f8cd a000 	str.w	sl, [sp]
    9d82:	440a      	add	r2, r1
    9d84:	4620      	mov	r0, r4
    9d86:	4653      	mov	r3, sl
    9d88:	4651      	mov	r1, sl
    9d8a:	4c15      	ldr	r4, [pc, #84]	; (9de0 <prvTimerTask+0x1b0>)
    9d8c:	47a0      	blx	r4
    9d8e:	2800      	cmp	r0, #0
    9d90:	d19e      	bne.n	9cd0 <prvTimerTask+0xa0>
    9d92:	f04f 0380 	mov.w	r3, #128	; 0x80
    9d96:	f383 8811 	msr	BASEPRI, r3
    9d9a:	f3bf 8f6f 	isb	sy
    9d9e:	f3bf 8f4f 	dsb	sy
    9da2:	e7fe      	b.n	9da2 <prvTimerTask+0x172>
    9da4:	9904      	ldr	r1, [sp, #16]
    9da6:	61a1      	str	r1, [r4, #24]
    9da8:	b941      	cbnz	r1, 9dbc <prvTimerTask+0x18c>
    9daa:	f04f 0380 	mov.w	r3, #128	; 0x80
    9dae:	f383 8811 	msr	BASEPRI, r3
    9db2:	f3bf 8f6f 	isb	sy
    9db6:	f3bf 8f4f 	dsb	sy
    9dba:	e7fe      	b.n	9dba <prvTimerTask+0x18a>
    9dbc:	465b      	mov	r3, fp
    9dbe:	465a      	mov	r2, fp
    9dc0:	4459      	add	r1, fp
    9dc2:	4620      	mov	r0, r4
    9dc4:	4c0b      	ldr	r4, [pc, #44]	; (9df4 <prvTimerTask+0x1c4>)
    9dc6:	47a0      	blx	r4
    9dc8:	e782      	b.n	9cd0 <prvTimerTask+0xa0>
    9dca:	bf00      	nop
    9dcc:	20012880 	.word	0x20012880
    9dd0:	000093b9 	.word	0x000093b9
    9dd4:	000093cd 	.word	0x000093cd
    9dd8:	00009bb1 	.word	0x00009bb1
    9ddc:	00008437 	.word	0x00008437
    9de0:	00009b55 	.word	0x00009b55
    9de4:	00008ead 	.word	0x00008ead
    9de8:	0000881d 	.word	0x0000881d
    9dec:	0000908d 	.word	0x0000908d
    9df0:	e000ed04 	.word	0xe000ed04
    9df4:	00009a5d 	.word	0x00009a5d
    9df8:	000094cd 	.word	0x000094cd

00009dfc <gmac_task>:
    9dfc:	b570      	push	{r4, r5, r6, lr}
    9dfe:	4e06      	ldr	r6, [pc, #24]	; (9e18 <gmac_task+0x1c>)
    9e00:	4d06      	ldr	r5, [pc, #24]	; (9e1c <gmac_task+0x20>)
    9e02:	4604      	mov	r4, r0
    9e04:	2300      	movs	r3, #0
    9e06:	f04f 32ff 	mov.w	r2, #4294967295
    9e0a:	4619      	mov	r1, r3
    9e0c:	6860      	ldr	r0, [r4, #4]
    9e0e:	47b0      	blx	r6
    9e10:	6820      	ldr	r0, [r4, #0]
    9e12:	47a8      	blx	r5
    9e14:	e7f6      	b.n	9e04 <gmac_task+0x8>
    9e16:	bf00      	nop
    9e18:	00008ead 	.word	0x00008ead
    9e1c:	00001bd9 	.word	0x00001bd9

00009e20 <gmac_handler_cb>:
    9e20:	b507      	push	{r0, r1, r2, lr}
    9e22:	a902      	add	r1, sp, #8
    9e24:	2300      	movs	r3, #0
    9e26:	f841 3d04 	str.w	r3, [r1, #-4]!
    9e2a:	4b08      	ldr	r3, [pc, #32]	; (9e4c <gmac_handler_cb+0x2c>)
    9e2c:	6858      	ldr	r0, [r3, #4]
    9e2e:	4b08      	ldr	r3, [pc, #32]	; (9e50 <gmac_handler_cb+0x30>)
    9e30:	4798      	blx	r3
    9e32:	9b01      	ldr	r3, [sp, #4]
    9e34:	b13b      	cbz	r3, 9e46 <gmac_handler_cb+0x26>
    9e36:	4b07      	ldr	r3, [pc, #28]	; (9e54 <gmac_handler_cb+0x34>)
    9e38:	f04f 5280 	mov.w	r2, #268435456	; 0x10000000
    9e3c:	601a      	str	r2, [r3, #0]
    9e3e:	f3bf 8f4f 	dsb	sy
    9e42:	f3bf 8f6f 	isb	sy
    9e46:	b003      	add	sp, #12
    9e48:	f85d fb04 	ldr.w	pc, [sp], #4
    9e4c:	200161f4 	.word	0x200161f4
    9e50:	00008de9 	.word	0x00008de9
    9e54:	e000ed04 	.word	0xe000ed04

00009e58 <tcpip_init_done>:
    9e58:	b5f0      	push	{r4, r5, r6, r7, lr}
    9e5a:	4b27      	ldr	r3, [pc, #156]	; (9ef8 <tcpip_init_done+0xa0>)
    9e5c:	4c27      	ldr	r4, [pc, #156]	; (9efc <tcpip_init_done+0xa4>)
    9e5e:	4a28      	ldr	r2, [pc, #160]	; (9f00 <tcpip_init_done+0xa8>)
    9e60:	4f28      	ldr	r7, [pc, #160]	; (9f04 <tcpip_init_done+0xac>)
    9e62:	b085      	sub	sp, #20
    9e64:	4606      	mov	r6, r0
    9e66:	6818      	ldr	r0, [r3, #0]
    9e68:	889b      	ldrh	r3, [r3, #4]
    9e6a:	9002      	str	r0, [sp, #8]
    9e6c:	f8ad 300c 	strh.w	r3, [sp, #12]
    9e70:	4620      	mov	r0, r4
    9e72:	4b25      	ldr	r3, [pc, #148]	; (9f08 <tcpip_init_done+0xb0>)
    9e74:	2100      	movs	r1, #0
    9e76:	4798      	blx	r3
    9e78:	6823      	ldr	r3, [r4, #0]
    9e7a:	4c24      	ldr	r4, [pc, #144]	; (9f0c <tcpip_init_done+0xb4>)
    9e7c:	2202      	movs	r2, #2
    9e7e:	629a      	str	r2, [r3, #40]	; 0x28
    9e80:	1c65      	adds	r5, r4, #1
    9e82:	4629      	mov	r1, r5
    9e84:	4638      	mov	r0, r7
    9e86:	4b22      	ldr	r3, [pc, #136]	; (9f10 <tcpip_init_done+0xb8>)
    9e88:	4798      	blx	r3
    9e8a:	b110      	cbz	r0, 9e92 <tcpip_init_done+0x3a>
    9e8c:	7863      	ldrb	r3, [r4, #1]
    9e8e:	2b00      	cmp	r3, #0
    9e90:	d02d      	beq.n	9eee <tcpip_init_done+0x96>
    9e92:	4b20      	ldr	r3, [pc, #128]	; (9f14 <tcpip_init_done+0xbc>)
    9e94:	4820      	ldr	r0, [pc, #128]	; (9f18 <tcpip_init_done+0xc0>)
    9e96:	4c21      	ldr	r4, [pc, #132]	; (9f1c <tcpip_init_done+0xc4>)
    9e98:	4d21      	ldr	r5, [pc, #132]	; (9f20 <tcpip_init_done+0xc8>)
    9e9a:	4798      	blx	r3
    9e9c:	4b21      	ldr	r3, [pc, #132]	; (9f24 <tcpip_init_done+0xcc>)
    9e9e:	4817      	ldr	r0, [pc, #92]	; (9efc <tcpip_init_done+0xa4>)
    9ea0:	22a0      	movs	r2, #160	; 0xa0
    9ea2:	f883 2354 	strb.w	r2, [r3, #852]	; 0x354
    9ea6:	f44f 1280 	mov.w	r2, #1048576	; 0x100000
    9eaa:	609a      	str	r2, [r3, #8]
    9eac:	4b1e      	ldr	r3, [pc, #120]	; (9f28 <tcpip_init_done+0xd0>)
    9eae:	4798      	blx	r3
    9eb0:	a802      	add	r0, sp, #8
    9eb2:	4b1e      	ldr	r3, [pc, #120]	; (9f2c <tcpip_init_done+0xd4>)
    9eb4:	4798      	blx	r3
    9eb6:	4b1e      	ldr	r3, [pc, #120]	; (9f30 <tcpip_init_done+0xd8>)
    9eb8:	6123      	str	r3, [r4, #16]
    9eba:	2100      	movs	r1, #0
    9ebc:	4b1d      	ldr	r3, [pc, #116]	; (9f34 <tcpip_init_done+0xdc>)
    9ebe:	602c      	str	r4, [r5, #0]
    9ec0:	2010      	movs	r0, #16
    9ec2:	4798      	blx	r3
    9ec4:	2302      	movs	r3, #2
    9ec6:	462a      	mov	r2, r5
    9ec8:	491b      	ldr	r1, [pc, #108]	; (9f38 <tcpip_init_done+0xe0>)
    9eca:	6068      	str	r0, [r5, #4]
    9ecc:	9300      	str	r3, [sp, #0]
    9ece:	4d1b      	ldr	r5, [pc, #108]	; (9f3c <tcpip_init_done+0xe4>)
    9ed0:	481b      	ldr	r0, [pc, #108]	; (9f40 <tcpip_init_done+0xe8>)
    9ed2:	f44f 7300 	mov.w	r3, #512	; 0x200
    9ed6:	47a8      	blx	r5
    9ed8:	4620      	mov	r0, r4
    9eda:	4b1a      	ldr	r3, [pc, #104]	; (9f44 <tcpip_init_done+0xec>)
    9edc:	4798      	blx	r3
    9ede:	4620      	mov	r0, r4
    9ee0:	4b19      	ldr	r3, [pc, #100]	; (9f48 <tcpip_init_done+0xf0>)
    9ee2:	4798      	blx	r3
    9ee4:	4630      	mov	r0, r6
    9ee6:	4b19      	ldr	r3, [pc, #100]	; (9f4c <tcpip_init_done+0xf4>)
    9ee8:	4798      	blx	r3
    9eea:	b005      	add	sp, #20
    9eec:	bdf0      	pop	{r4, r5, r6, r7, pc}
    9eee:	2014      	movs	r0, #20
    9ef0:	4b17      	ldr	r3, [pc, #92]	; (9f50 <tcpip_init_done+0xf8>)
    9ef2:	4798      	blx	r3
    9ef4:	e7c5      	b.n	9e82 <tcpip_init_done+0x2a>
    9ef6:	bf00      	nop
    9ef8:	0000bbe9 	.word	0x0000bbe9
    9efc:	2001290c 	.word	0x2001290c
    9f00:	00009e21 	.word	0x00009e21
    9f04:	20012944 	.word	0x20012944
    9f08:	00000fc9 	.word	0x00000fc9
    9f0c:	200128b8 	.word	0x200128b8
    9f10:	00000d41 	.word	0x00000d41
    9f14:	0000aaf5 	.word	0x0000aaf5
    9f18:	0000bbef 	.word	0x0000bbef
    9f1c:	2001294c 	.word	0x2001294c
    9f20:	200161f4 	.word	0x200161f4
    9f24:	e000e100 	.word	0xe000e100
    9f28:	00000fa9 	.word	0x00000fa9
    9f2c:	00000de9 	.word	0x00000de9
    9f30:	000032dd 	.word	0x000032dd
    9f34:	00008b0d 	.word	0x00008b0d
    9f38:	00009dfd 	.word	0x00009dfd
    9f3c:	00001ec1 	.word	0x00001ec1
    9f40:	0000bc05 	.word	0x0000bc05
    9f44:	0000463d 	.word	0x0000463d
    9f48:	00004649 	.word	0x00004649
    9f4c:	00001cd9 	.word	0x00001cd9
    9f50:	000095bd 	.word	0x000095bd

00009f54 <__aeabi_drsub>:
    9f54:	f081 4100 	eor.w	r1, r1, #2147483648	; 0x80000000
    9f58:	e002      	b.n	9f60 <__adddf3>
    9f5a:	bf00      	nop

00009f5c <__aeabi_dsub>:
    9f5c:	f083 4300 	eor.w	r3, r3, #2147483648	; 0x80000000

00009f60 <__adddf3>:
    9f60:	b530      	push	{r4, r5, lr}
    9f62:	ea4f 0441 	mov.w	r4, r1, lsl #1
    9f66:	ea4f 0543 	mov.w	r5, r3, lsl #1
    9f6a:	ea94 0f05 	teq	r4, r5
    9f6e:	bf08      	it	eq
    9f70:	ea90 0f02 	teqeq	r0, r2
    9f74:	bf1f      	itttt	ne
    9f76:	ea54 0c00 	orrsne.w	ip, r4, r0
    9f7a:	ea55 0c02 	orrsne.w	ip, r5, r2
    9f7e:	ea7f 5c64 	mvnsne.w	ip, r4, asr #21
    9f82:	ea7f 5c65 	mvnsne.w	ip, r5, asr #21
    9f86:	f000 80e2 	beq.w	a14e <__adddf3+0x1ee>
    9f8a:	ea4f 5454 	mov.w	r4, r4, lsr #21
    9f8e:	ebd4 5555 	rsbs	r5, r4, r5, lsr #21
    9f92:	bfb8      	it	lt
    9f94:	426d      	neglt	r5, r5
    9f96:	dd0c      	ble.n	9fb2 <__adddf3+0x52>
    9f98:	442c      	add	r4, r5
    9f9a:	ea80 0202 	eor.w	r2, r0, r2
    9f9e:	ea81 0303 	eor.w	r3, r1, r3
    9fa2:	ea82 0000 	eor.w	r0, r2, r0
    9fa6:	ea83 0101 	eor.w	r1, r3, r1
    9faa:	ea80 0202 	eor.w	r2, r0, r2
    9fae:	ea81 0303 	eor.w	r3, r1, r3
    9fb2:	2d36      	cmp	r5, #54	; 0x36
    9fb4:	bf88      	it	hi
    9fb6:	bd30      	pophi	{r4, r5, pc}
    9fb8:	f011 4f00 	tst.w	r1, #2147483648	; 0x80000000
    9fbc:	ea4f 3101 	mov.w	r1, r1, lsl #12
    9fc0:	f44f 1c80 	mov.w	ip, #1048576	; 0x100000
    9fc4:	ea4c 3111 	orr.w	r1, ip, r1, lsr #12
    9fc8:	d002      	beq.n	9fd0 <__adddf3+0x70>
    9fca:	4240      	negs	r0, r0
    9fcc:	eb61 0141 	sbc.w	r1, r1, r1, lsl #1
    9fd0:	f013 4f00 	tst.w	r3, #2147483648	; 0x80000000
    9fd4:	ea4f 3303 	mov.w	r3, r3, lsl #12
    9fd8:	ea4c 3313 	orr.w	r3, ip, r3, lsr #12
    9fdc:	d002      	beq.n	9fe4 <__adddf3+0x84>
    9fde:	4252      	negs	r2, r2
    9fe0:	eb63 0343 	sbc.w	r3, r3, r3, lsl #1
    9fe4:	ea94 0f05 	teq	r4, r5
    9fe8:	f000 80a7 	beq.w	a13a <__adddf3+0x1da>
    9fec:	f1a4 0401 	sub.w	r4, r4, #1
    9ff0:	f1d5 0e20 	rsbs	lr, r5, #32
    9ff4:	db0d      	blt.n	a012 <__adddf3+0xb2>
    9ff6:	fa02 fc0e 	lsl.w	ip, r2, lr
    9ffa:	fa22 f205 	lsr.w	r2, r2, r5
    9ffe:	1880      	adds	r0, r0, r2
    a000:	f141 0100 	adc.w	r1, r1, #0
    a004:	fa03 f20e 	lsl.w	r2, r3, lr
    a008:	1880      	adds	r0, r0, r2
    a00a:	fa43 f305 	asr.w	r3, r3, r5
    a00e:	4159      	adcs	r1, r3
    a010:	e00e      	b.n	a030 <__adddf3+0xd0>
    a012:	f1a5 0520 	sub.w	r5, r5, #32
    a016:	f10e 0e20 	add.w	lr, lr, #32
    a01a:	2a01      	cmp	r2, #1
    a01c:	fa03 fc0e 	lsl.w	ip, r3, lr
    a020:	bf28      	it	cs
    a022:	f04c 0c02 	orrcs.w	ip, ip, #2
    a026:	fa43 f305 	asr.w	r3, r3, r5
    a02a:	18c0      	adds	r0, r0, r3
    a02c:	eb51 71e3 	adcs.w	r1, r1, r3, asr #31
    a030:	f001 4500 	and.w	r5, r1, #2147483648	; 0x80000000
    a034:	d507      	bpl.n	a046 <__adddf3+0xe6>
    a036:	f04f 0e00 	mov.w	lr, #0
    a03a:	f1dc 0c00 	rsbs	ip, ip, #0
    a03e:	eb7e 0000 	sbcs.w	r0, lr, r0
    a042:	eb6e 0101 	sbc.w	r1, lr, r1
    a046:	f5b1 1f80 	cmp.w	r1, #1048576	; 0x100000
    a04a:	d31b      	bcc.n	a084 <__adddf3+0x124>
    a04c:	f5b1 1f00 	cmp.w	r1, #2097152	; 0x200000
    a050:	d30c      	bcc.n	a06c <__adddf3+0x10c>
    a052:	0849      	lsrs	r1, r1, #1
    a054:	ea5f 0030 	movs.w	r0, r0, rrx
    a058:	ea4f 0c3c 	mov.w	ip, ip, rrx
    a05c:	f104 0401 	add.w	r4, r4, #1
    a060:	ea4f 5244 	mov.w	r2, r4, lsl #21
    a064:	f512 0f80 	cmn.w	r2, #4194304	; 0x400000
    a068:	f080 809a 	bcs.w	a1a0 <__adddf3+0x240>
    a06c:	f1bc 4f00 	cmp.w	ip, #2147483648	; 0x80000000
    a070:	bf08      	it	eq
    a072:	ea5f 0c50 	movseq.w	ip, r0, lsr #1
    a076:	f150 0000 	adcs.w	r0, r0, #0
    a07a:	eb41 5104 	adc.w	r1, r1, r4, lsl #20
    a07e:	ea41 0105 	orr.w	r1, r1, r5
    a082:	bd30      	pop	{r4, r5, pc}
    a084:	ea5f 0c4c 	movs.w	ip, ip, lsl #1
    a088:	4140      	adcs	r0, r0
    a08a:	eb41 0101 	adc.w	r1, r1, r1
    a08e:	f411 1f80 	tst.w	r1, #1048576	; 0x100000
    a092:	f1a4 0401 	sub.w	r4, r4, #1
    a096:	d1e9      	bne.n	a06c <__adddf3+0x10c>
    a098:	f091 0f00 	teq	r1, #0
    a09c:	bf04      	itt	eq
    a09e:	4601      	moveq	r1, r0
    a0a0:	2000      	moveq	r0, #0
    a0a2:	fab1 f381 	clz	r3, r1
    a0a6:	bf08      	it	eq
    a0a8:	3320      	addeq	r3, #32
    a0aa:	f1a3 030b 	sub.w	r3, r3, #11
    a0ae:	f1b3 0220 	subs.w	r2, r3, #32
    a0b2:	da0c      	bge.n	a0ce <__adddf3+0x16e>
    a0b4:	320c      	adds	r2, #12
    a0b6:	dd08      	ble.n	a0ca <__adddf3+0x16a>
    a0b8:	f102 0c14 	add.w	ip, r2, #20
    a0bc:	f1c2 020c 	rsb	r2, r2, #12
    a0c0:	fa01 f00c 	lsl.w	r0, r1, ip
    a0c4:	fa21 f102 	lsr.w	r1, r1, r2
    a0c8:	e00c      	b.n	a0e4 <__adddf3+0x184>
    a0ca:	f102 0214 	add.w	r2, r2, #20
    a0ce:	bfd8      	it	le
    a0d0:	f1c2 0c20 	rsble	ip, r2, #32
    a0d4:	fa01 f102 	lsl.w	r1, r1, r2
    a0d8:	fa20 fc0c 	lsr.w	ip, r0, ip
    a0dc:	bfdc      	itt	le
    a0de:	ea41 010c 	orrle.w	r1, r1, ip
    a0e2:	4090      	lslle	r0, r2
    a0e4:	1ae4      	subs	r4, r4, r3
    a0e6:	bfa2      	ittt	ge
    a0e8:	eb01 5104 	addge.w	r1, r1, r4, lsl #20
    a0ec:	4329      	orrge	r1, r5
    a0ee:	bd30      	popge	{r4, r5, pc}
    a0f0:	ea6f 0404 	mvn.w	r4, r4
    a0f4:	3c1f      	subs	r4, #31
    a0f6:	da1c      	bge.n	a132 <__adddf3+0x1d2>
    a0f8:	340c      	adds	r4, #12
    a0fa:	dc0e      	bgt.n	a11a <__adddf3+0x1ba>
    a0fc:	f104 0414 	add.w	r4, r4, #20
    a100:	f1c4 0220 	rsb	r2, r4, #32
    a104:	fa20 f004 	lsr.w	r0, r0, r4
    a108:	fa01 f302 	lsl.w	r3, r1, r2
    a10c:	ea40 0003 	orr.w	r0, r0, r3
    a110:	fa21 f304 	lsr.w	r3, r1, r4
    a114:	ea45 0103 	orr.w	r1, r5, r3
    a118:	bd30      	pop	{r4, r5, pc}
    a11a:	f1c4 040c 	rsb	r4, r4, #12
    a11e:	f1c4 0220 	rsb	r2, r4, #32
    a122:	fa20 f002 	lsr.w	r0, r0, r2
    a126:	fa01 f304 	lsl.w	r3, r1, r4
    a12a:	ea40 0003 	orr.w	r0, r0, r3
    a12e:	4629      	mov	r1, r5
    a130:	bd30      	pop	{r4, r5, pc}
    a132:	fa21 f004 	lsr.w	r0, r1, r4
    a136:	4629      	mov	r1, r5
    a138:	bd30      	pop	{r4, r5, pc}
    a13a:	f094 0f00 	teq	r4, #0
    a13e:	f483 1380 	eor.w	r3, r3, #1048576	; 0x100000
    a142:	bf06      	itte	eq
    a144:	f481 1180 	eoreq.w	r1, r1, #1048576	; 0x100000
    a148:	3401      	addeq	r4, #1
    a14a:	3d01      	subne	r5, #1
    a14c:	e74e      	b.n	9fec <__adddf3+0x8c>
    a14e:	ea7f 5c64 	mvns.w	ip, r4, asr #21
    a152:	bf18      	it	ne
    a154:	ea7f 5c65 	mvnsne.w	ip, r5, asr #21
    a158:	d029      	beq.n	a1ae <__adddf3+0x24e>
    a15a:	ea94 0f05 	teq	r4, r5
    a15e:	bf08      	it	eq
    a160:	ea90 0f02 	teqeq	r0, r2
    a164:	d005      	beq.n	a172 <__adddf3+0x212>
    a166:	ea54 0c00 	orrs.w	ip, r4, r0
    a16a:	bf04      	itt	eq
    a16c:	4619      	moveq	r1, r3
    a16e:	4610      	moveq	r0, r2
    a170:	bd30      	pop	{r4, r5, pc}
    a172:	ea91 0f03 	teq	r1, r3
    a176:	bf1e      	ittt	ne
    a178:	2100      	movne	r1, #0
    a17a:	2000      	movne	r0, #0
    a17c:	bd30      	popne	{r4, r5, pc}
    a17e:	ea5f 5c54 	movs.w	ip, r4, lsr #21
    a182:	d105      	bne.n	a190 <__adddf3+0x230>
    a184:	0040      	lsls	r0, r0, #1
    a186:	4149      	adcs	r1, r1
    a188:	bf28      	it	cs
    a18a:	f041 4100 	orrcs.w	r1, r1, #2147483648	; 0x80000000
    a18e:	bd30      	pop	{r4, r5, pc}
    a190:	f514 0480 	adds.w	r4, r4, #4194304	; 0x400000
    a194:	bf3c      	itt	cc
    a196:	f501 1180 	addcc.w	r1, r1, #1048576	; 0x100000
    a19a:	bd30      	popcc	{r4, r5, pc}
    a19c:	f001 4500 	and.w	r5, r1, #2147483648	; 0x80000000
    a1a0:	f045 41fe 	orr.w	r1, r5, #2130706432	; 0x7f000000
    a1a4:	f441 0170 	orr.w	r1, r1, #15728640	; 0xf00000
    a1a8:	f04f 0000 	mov.w	r0, #0
    a1ac:	bd30      	pop	{r4, r5, pc}
    a1ae:	ea7f 5c64 	mvns.w	ip, r4, asr #21
    a1b2:	bf1a      	itte	ne
    a1b4:	4619      	movne	r1, r3
    a1b6:	4610      	movne	r0, r2
    a1b8:	ea7f 5c65 	mvnseq.w	ip, r5, asr #21
    a1bc:	bf1c      	itt	ne
    a1be:	460b      	movne	r3, r1
    a1c0:	4602      	movne	r2, r0
    a1c2:	ea50 3401 	orrs.w	r4, r0, r1, lsl #12
    a1c6:	bf06      	itte	eq
    a1c8:	ea52 3503 	orrseq.w	r5, r2, r3, lsl #12
    a1cc:	ea91 0f03 	teqeq	r1, r3
    a1d0:	f441 2100 	orrne.w	r1, r1, #524288	; 0x80000
    a1d4:	bd30      	pop	{r4, r5, pc}
    a1d6:	bf00      	nop

0000a1d8 <__aeabi_ui2d>:
    a1d8:	f090 0f00 	teq	r0, #0
    a1dc:	bf04      	itt	eq
    a1de:	2100      	moveq	r1, #0
    a1e0:	4770      	bxeq	lr
    a1e2:	b530      	push	{r4, r5, lr}
    a1e4:	f44f 6480 	mov.w	r4, #1024	; 0x400
    a1e8:	f104 0432 	add.w	r4, r4, #50	; 0x32
    a1ec:	f04f 0500 	mov.w	r5, #0
    a1f0:	f04f 0100 	mov.w	r1, #0
    a1f4:	e750      	b.n	a098 <__adddf3+0x138>
    a1f6:	bf00      	nop

0000a1f8 <__aeabi_i2d>:
    a1f8:	f090 0f00 	teq	r0, #0
    a1fc:	bf04      	itt	eq
    a1fe:	2100      	moveq	r1, #0
    a200:	4770      	bxeq	lr
    a202:	b530      	push	{r4, r5, lr}
    a204:	f44f 6480 	mov.w	r4, #1024	; 0x400
    a208:	f104 0432 	add.w	r4, r4, #50	; 0x32
    a20c:	f010 4500 	ands.w	r5, r0, #2147483648	; 0x80000000
    a210:	bf48      	it	mi
    a212:	4240      	negmi	r0, r0
    a214:	f04f 0100 	mov.w	r1, #0
    a218:	e73e      	b.n	a098 <__adddf3+0x138>
    a21a:	bf00      	nop

0000a21c <__aeabi_f2d>:
    a21c:	0042      	lsls	r2, r0, #1
    a21e:	ea4f 01e2 	mov.w	r1, r2, asr #3
    a222:	ea4f 0131 	mov.w	r1, r1, rrx
    a226:	ea4f 7002 	mov.w	r0, r2, lsl #28
    a22a:	bf1f      	itttt	ne
    a22c:	f012 437f 	andsne.w	r3, r2, #4278190080	; 0xff000000
    a230:	f093 4f7f 	teqne	r3, #4278190080	; 0xff000000
    a234:	f081 5160 	eorne.w	r1, r1, #939524096	; 0x38000000
    a238:	4770      	bxne	lr
    a23a:	f092 0f00 	teq	r2, #0
    a23e:	bf14      	ite	ne
    a240:	f093 4f7f 	teqne	r3, #4278190080	; 0xff000000
    a244:	4770      	bxeq	lr
    a246:	b530      	push	{r4, r5, lr}
    a248:	f44f 7460 	mov.w	r4, #896	; 0x380
    a24c:	f001 4500 	and.w	r5, r1, #2147483648	; 0x80000000
    a250:	f021 4100 	bic.w	r1, r1, #2147483648	; 0x80000000
    a254:	e720      	b.n	a098 <__adddf3+0x138>
    a256:	bf00      	nop

0000a258 <__aeabi_ul2d>:
    a258:	ea50 0201 	orrs.w	r2, r0, r1
    a25c:	bf08      	it	eq
    a25e:	4770      	bxeq	lr
    a260:	b530      	push	{r4, r5, lr}
    a262:	f04f 0500 	mov.w	r5, #0
    a266:	e00a      	b.n	a27e <__aeabi_l2d+0x16>

0000a268 <__aeabi_l2d>:
    a268:	ea50 0201 	orrs.w	r2, r0, r1
    a26c:	bf08      	it	eq
    a26e:	4770      	bxeq	lr
    a270:	b530      	push	{r4, r5, lr}
    a272:	f011 4500 	ands.w	r5, r1, #2147483648	; 0x80000000
    a276:	d502      	bpl.n	a27e <__aeabi_l2d+0x16>
    a278:	4240      	negs	r0, r0
    a27a:	eb61 0141 	sbc.w	r1, r1, r1, lsl #1
    a27e:	f44f 6480 	mov.w	r4, #1024	; 0x400
    a282:	f104 0432 	add.w	r4, r4, #50	; 0x32
    a286:	ea5f 5c91 	movs.w	ip, r1, lsr #22
    a28a:	f43f aedc 	beq.w	a046 <__adddf3+0xe6>
    a28e:	f04f 0203 	mov.w	r2, #3
    a292:	ea5f 0cdc 	movs.w	ip, ip, lsr #3
    a296:	bf18      	it	ne
    a298:	3203      	addne	r2, #3
    a29a:	ea5f 0cdc 	movs.w	ip, ip, lsr #3
    a29e:	bf18      	it	ne
    a2a0:	3203      	addne	r2, #3
    a2a2:	eb02 02dc 	add.w	r2, r2, ip, lsr #3
    a2a6:	f1c2 0320 	rsb	r3, r2, #32
    a2aa:	fa00 fc03 	lsl.w	ip, r0, r3
    a2ae:	fa20 f002 	lsr.w	r0, r0, r2
    a2b2:	fa01 fe03 	lsl.w	lr, r1, r3
    a2b6:	ea40 000e 	orr.w	r0, r0, lr
    a2ba:	fa21 f102 	lsr.w	r1, r1, r2
    a2be:	4414      	add	r4, r2
    a2c0:	e6c1      	b.n	a046 <__adddf3+0xe6>
    a2c2:	bf00      	nop

0000a2c4 <__aeabi_dmul>:
    a2c4:	b570      	push	{r4, r5, r6, lr}
    a2c6:	f04f 0cff 	mov.w	ip, #255	; 0xff
    a2ca:	f44c 6ce0 	orr.w	ip, ip, #1792	; 0x700
    a2ce:	ea1c 5411 	ands.w	r4, ip, r1, lsr #20
    a2d2:	bf1d      	ittte	ne
    a2d4:	ea1c 5513 	andsne.w	r5, ip, r3, lsr #20
    a2d8:	ea94 0f0c 	teqne	r4, ip
    a2dc:	ea95 0f0c 	teqne	r5, ip
    a2e0:	f000 f8de 	bleq	a4a0 <__aeabi_dmul+0x1dc>
    a2e4:	442c      	add	r4, r5
    a2e6:	ea81 0603 	eor.w	r6, r1, r3
    a2ea:	ea21 514c 	bic.w	r1, r1, ip, lsl #21
    a2ee:	ea23 534c 	bic.w	r3, r3, ip, lsl #21
    a2f2:	ea50 3501 	orrs.w	r5, r0, r1, lsl #12
    a2f6:	bf18      	it	ne
    a2f8:	ea52 3503 	orrsne.w	r5, r2, r3, lsl #12
    a2fc:	f441 1180 	orr.w	r1, r1, #1048576	; 0x100000
    a300:	f443 1380 	orr.w	r3, r3, #1048576	; 0x100000
    a304:	d038      	beq.n	a378 <__aeabi_dmul+0xb4>
    a306:	fba0 ce02 	umull	ip, lr, r0, r2
    a30a:	f04f 0500 	mov.w	r5, #0
    a30e:	fbe1 e502 	umlal	lr, r5, r1, r2
    a312:	f006 4200 	and.w	r2, r6, #2147483648	; 0x80000000
    a316:	fbe0 e503 	umlal	lr, r5, r0, r3
    a31a:	f04f 0600 	mov.w	r6, #0
    a31e:	fbe1 5603 	umlal	r5, r6, r1, r3
    a322:	f09c 0f00 	teq	ip, #0
    a326:	bf18      	it	ne
    a328:	f04e 0e01 	orrne.w	lr, lr, #1
    a32c:	f1a4 04ff 	sub.w	r4, r4, #255	; 0xff
    a330:	f5b6 7f00 	cmp.w	r6, #512	; 0x200
    a334:	f564 7440 	sbc.w	r4, r4, #768	; 0x300
    a338:	d204      	bcs.n	a344 <__aeabi_dmul+0x80>
    a33a:	ea5f 0e4e 	movs.w	lr, lr, lsl #1
    a33e:	416d      	adcs	r5, r5
    a340:	eb46 0606 	adc.w	r6, r6, r6
    a344:	ea42 21c6 	orr.w	r1, r2, r6, lsl #11
    a348:	ea41 5155 	orr.w	r1, r1, r5, lsr #21
    a34c:	ea4f 20c5 	mov.w	r0, r5, lsl #11
    a350:	ea40 505e 	orr.w	r0, r0, lr, lsr #21
    a354:	ea4f 2ece 	mov.w	lr, lr, lsl #11
    a358:	f1b4 0cfd 	subs.w	ip, r4, #253	; 0xfd
    a35c:	bf88      	it	hi
    a35e:	f5bc 6fe0 	cmphi.w	ip, #1792	; 0x700
    a362:	d81e      	bhi.n	a3a2 <__aeabi_dmul+0xde>
    a364:	f1be 4f00 	cmp.w	lr, #2147483648	; 0x80000000
    a368:	bf08      	it	eq
    a36a:	ea5f 0e50 	movseq.w	lr, r0, lsr #1
    a36e:	f150 0000 	adcs.w	r0, r0, #0
    a372:	eb41 5104 	adc.w	r1, r1, r4, lsl #20
    a376:	bd70      	pop	{r4, r5, r6, pc}
    a378:	f006 4600 	and.w	r6, r6, #2147483648	; 0x80000000
    a37c:	ea46 0101 	orr.w	r1, r6, r1
    a380:	ea40 0002 	orr.w	r0, r0, r2
    a384:	ea81 0103 	eor.w	r1, r1, r3
    a388:	ebb4 045c 	subs.w	r4, r4, ip, lsr #1
    a38c:	bfc2      	ittt	gt
    a38e:	ebd4 050c 	rsbsgt	r5, r4, ip
    a392:	ea41 5104 	orrgt.w	r1, r1, r4, lsl #20
    a396:	bd70      	popgt	{r4, r5, r6, pc}
    a398:	f441 1180 	orr.w	r1, r1, #1048576	; 0x100000
    a39c:	f04f 0e00 	mov.w	lr, #0
    a3a0:	3c01      	subs	r4, #1
    a3a2:	f300 80ab 	bgt.w	a4fc <__aeabi_dmul+0x238>
    a3a6:	f114 0f36 	cmn.w	r4, #54	; 0x36
    a3aa:	bfde      	ittt	le
    a3ac:	2000      	movle	r0, #0
    a3ae:	f001 4100 	andle.w	r1, r1, #2147483648	; 0x80000000
    a3b2:	bd70      	pople	{r4, r5, r6, pc}
    a3b4:	f1c4 0400 	rsb	r4, r4, #0
    a3b8:	3c20      	subs	r4, #32
    a3ba:	da35      	bge.n	a428 <__aeabi_dmul+0x164>
    a3bc:	340c      	adds	r4, #12
    a3be:	dc1b      	bgt.n	a3f8 <__aeabi_dmul+0x134>
    a3c0:	f104 0414 	add.w	r4, r4, #20
    a3c4:	f1c4 0520 	rsb	r5, r4, #32
    a3c8:	fa00 f305 	lsl.w	r3, r0, r5
    a3cc:	fa20 f004 	lsr.w	r0, r0, r4
    a3d0:	fa01 f205 	lsl.w	r2, r1, r5
    a3d4:	ea40 0002 	orr.w	r0, r0, r2
    a3d8:	f001 4200 	and.w	r2, r1, #2147483648	; 0x80000000
    a3dc:	f021 4100 	bic.w	r1, r1, #2147483648	; 0x80000000
    a3e0:	eb10 70d3 	adds.w	r0, r0, r3, lsr #31
    a3e4:	fa21 f604 	lsr.w	r6, r1, r4
    a3e8:	eb42 0106 	adc.w	r1, r2, r6
    a3ec:	ea5e 0e43 	orrs.w	lr, lr, r3, lsl #1
    a3f0:	bf08      	it	eq
    a3f2:	ea20 70d3 	biceq.w	r0, r0, r3, lsr #31
    a3f6:	bd70      	pop	{r4, r5, r6, pc}
    a3f8:	f1c4 040c 	rsb	r4, r4, #12
    a3fc:	f1c4 0520 	rsb	r5, r4, #32
    a400:	fa00 f304 	lsl.w	r3, r0, r4
    a404:	fa20 f005 	lsr.w	r0, r0, r5
    a408:	fa01 f204 	lsl.w	r2, r1, r4
    a40c:	ea40 0002 	orr.w	r0, r0, r2
    a410:	f001 4100 	and.w	r1, r1, #2147483648	; 0x80000000
    a414:	eb10 70d3 	adds.w	r0, r0, r3, lsr #31
    a418:	f141 0100 	adc.w	r1, r1, #0
    a41c:	ea5e 0e43 	orrs.w	lr, lr, r3, lsl #1
    a420:	bf08      	it	eq
    a422:	ea20 70d3 	biceq.w	r0, r0, r3, lsr #31
    a426:	bd70      	pop	{r4, r5, r6, pc}
    a428:	f1c4 0520 	rsb	r5, r4, #32
    a42c:	fa00 f205 	lsl.w	r2, r0, r5
    a430:	ea4e 0e02 	orr.w	lr, lr, r2
    a434:	fa20 f304 	lsr.w	r3, r0, r4
    a438:	fa01 f205 	lsl.w	r2, r1, r5
    a43c:	ea43 0302 	orr.w	r3, r3, r2
    a440:	fa21 f004 	lsr.w	r0, r1, r4
    a444:	f001 4100 	and.w	r1, r1, #2147483648	; 0x80000000
    a448:	fa21 f204 	lsr.w	r2, r1, r4
    a44c:	ea20 0002 	bic.w	r0, r0, r2
    a450:	eb00 70d3 	add.w	r0, r0, r3, lsr #31
    a454:	ea5e 0e43 	orrs.w	lr, lr, r3, lsl #1
    a458:	bf08      	it	eq
    a45a:	ea20 70d3 	biceq.w	r0, r0, r3, lsr #31
    a45e:	bd70      	pop	{r4, r5, r6, pc}
    a460:	f094 0f00 	teq	r4, #0
    a464:	d10f      	bne.n	a486 <__aeabi_dmul+0x1c2>
    a466:	f001 4600 	and.w	r6, r1, #2147483648	; 0x80000000
    a46a:	0040      	lsls	r0, r0, #1
    a46c:	eb41 0101 	adc.w	r1, r1, r1
    a470:	f411 1f80 	tst.w	r1, #1048576	; 0x100000
    a474:	bf08      	it	eq
    a476:	3c01      	subeq	r4, #1
    a478:	d0f7      	beq.n	a46a <__aeabi_dmul+0x1a6>
    a47a:	ea41 0106 	orr.w	r1, r1, r6
    a47e:	f095 0f00 	teq	r5, #0
    a482:	bf18      	it	ne
    a484:	4770      	bxne	lr
    a486:	f003 4600 	and.w	r6, r3, #2147483648	; 0x80000000
    a48a:	0052      	lsls	r2, r2, #1
    a48c:	eb43 0303 	adc.w	r3, r3, r3
    a490:	f413 1f80 	tst.w	r3, #1048576	; 0x100000
    a494:	bf08      	it	eq
    a496:	3d01      	subeq	r5, #1
    a498:	d0f7      	beq.n	a48a <__aeabi_dmul+0x1c6>
    a49a:	ea43 0306 	orr.w	r3, r3, r6
    a49e:	4770      	bx	lr
    a4a0:	ea94 0f0c 	teq	r4, ip
    a4a4:	ea0c 5513 	and.w	r5, ip, r3, lsr #20
    a4a8:	bf18      	it	ne
    a4aa:	ea95 0f0c 	teqne	r5, ip
    a4ae:	d00c      	beq.n	a4ca <__aeabi_dmul+0x206>
    a4b0:	ea50 0641 	orrs.w	r6, r0, r1, lsl #1
    a4b4:	bf18      	it	ne
    a4b6:	ea52 0643 	orrsne.w	r6, r2, r3, lsl #1
    a4ba:	d1d1      	bne.n	a460 <__aeabi_dmul+0x19c>
    a4bc:	ea81 0103 	eor.w	r1, r1, r3
    a4c0:	f001 4100 	and.w	r1, r1, #2147483648	; 0x80000000
    a4c4:	f04f 0000 	mov.w	r0, #0
    a4c8:	bd70      	pop	{r4, r5, r6, pc}
    a4ca:	ea50 0641 	orrs.w	r6, r0, r1, lsl #1
    a4ce:	bf06      	itte	eq
    a4d0:	4610      	moveq	r0, r2
    a4d2:	4619      	moveq	r1, r3
    a4d4:	ea52 0643 	orrsne.w	r6, r2, r3, lsl #1
    a4d8:	d019      	beq.n	a50e <__aeabi_dmul+0x24a>
    a4da:	ea94 0f0c 	teq	r4, ip
    a4de:	d102      	bne.n	a4e6 <__aeabi_dmul+0x222>
    a4e0:	ea50 3601 	orrs.w	r6, r0, r1, lsl #12
    a4e4:	d113      	bne.n	a50e <__aeabi_dmul+0x24a>
    a4e6:	ea95 0f0c 	teq	r5, ip
    a4ea:	d105      	bne.n	a4f8 <__aeabi_dmul+0x234>
    a4ec:	ea52 3603 	orrs.w	r6, r2, r3, lsl #12
    a4f0:	bf1c      	itt	ne
    a4f2:	4610      	movne	r0, r2
    a4f4:	4619      	movne	r1, r3
    a4f6:	d10a      	bne.n	a50e <__aeabi_dmul+0x24a>
    a4f8:	ea81 0103 	eor.w	r1, r1, r3
    a4fc:	f001 4100 	and.w	r1, r1, #2147483648	; 0x80000000
    a500:	f041 41fe 	orr.w	r1, r1, #2130706432	; 0x7f000000
    a504:	f441 0170 	orr.w	r1, r1, #15728640	; 0xf00000
    a508:	f04f 0000 	mov.w	r0, #0
    a50c:	bd70      	pop	{r4, r5, r6, pc}
    a50e:	f041 41fe 	orr.w	r1, r1, #2130706432	; 0x7f000000
    a512:	f441 0178 	orr.w	r1, r1, #16252928	; 0xf80000
    a516:	bd70      	pop	{r4, r5, r6, pc}

0000a518 <__aeabi_ddiv>:
    a518:	b570      	push	{r4, r5, r6, lr}
    a51a:	f04f 0cff 	mov.w	ip, #255	; 0xff
    a51e:	f44c 6ce0 	orr.w	ip, ip, #1792	; 0x700
    a522:	ea1c 5411 	ands.w	r4, ip, r1, lsr #20
    a526:	bf1d      	ittte	ne
    a528:	ea1c 5513 	andsne.w	r5, ip, r3, lsr #20
    a52c:	ea94 0f0c 	teqne	r4, ip
    a530:	ea95 0f0c 	teqne	r5, ip
    a534:	f000 f8a7 	bleq	a686 <__aeabi_ddiv+0x16e>
    a538:	eba4 0405 	sub.w	r4, r4, r5
    a53c:	ea81 0e03 	eor.w	lr, r1, r3
    a540:	ea52 3503 	orrs.w	r5, r2, r3, lsl #12
    a544:	ea4f 3101 	mov.w	r1, r1, lsl #12
    a548:	f000 8088 	beq.w	a65c <__aeabi_ddiv+0x144>
    a54c:	ea4f 3303 	mov.w	r3, r3, lsl #12
    a550:	f04f 5580 	mov.w	r5, #268435456	; 0x10000000
    a554:	ea45 1313 	orr.w	r3, r5, r3, lsr #4
    a558:	ea43 6312 	orr.w	r3, r3, r2, lsr #24
    a55c:	ea4f 2202 	mov.w	r2, r2, lsl #8
    a560:	ea45 1511 	orr.w	r5, r5, r1, lsr #4
    a564:	ea45 6510 	orr.w	r5, r5, r0, lsr #24
    a568:	ea4f 2600 	mov.w	r6, r0, lsl #8
    a56c:	f00e 4100 	and.w	r1, lr, #2147483648	; 0x80000000
    a570:	429d      	cmp	r5, r3
    a572:	bf08      	it	eq
    a574:	4296      	cmpeq	r6, r2
    a576:	f144 04fd 	adc.w	r4, r4, #253	; 0xfd
    a57a:	f504 7440 	add.w	r4, r4, #768	; 0x300
    a57e:	d202      	bcs.n	a586 <__aeabi_ddiv+0x6e>
    a580:	085b      	lsrs	r3, r3, #1
    a582:	ea4f 0232 	mov.w	r2, r2, rrx
    a586:	1ab6      	subs	r6, r6, r2
    a588:	eb65 0503 	sbc.w	r5, r5, r3
    a58c:	085b      	lsrs	r3, r3, #1
    a58e:	ea4f 0232 	mov.w	r2, r2, rrx
    a592:	f44f 1080 	mov.w	r0, #1048576	; 0x100000
    a596:	f44f 2c00 	mov.w	ip, #524288	; 0x80000
    a59a:	ebb6 0e02 	subs.w	lr, r6, r2
    a59e:	eb75 0e03 	sbcs.w	lr, r5, r3
    a5a2:	bf22      	ittt	cs
    a5a4:	1ab6      	subcs	r6, r6, r2
    a5a6:	4675      	movcs	r5, lr
    a5a8:	ea40 000c 	orrcs.w	r0, r0, ip
    a5ac:	085b      	lsrs	r3, r3, #1
    a5ae:	ea4f 0232 	mov.w	r2, r2, rrx
    a5b2:	ebb6 0e02 	subs.w	lr, r6, r2
    a5b6:	eb75 0e03 	sbcs.w	lr, r5, r3
    a5ba:	bf22      	ittt	cs
    a5bc:	1ab6      	subcs	r6, r6, r2
    a5be:	4675      	movcs	r5, lr
    a5c0:	ea40 005c 	orrcs.w	r0, r0, ip, lsr #1
    a5c4:	085b      	lsrs	r3, r3, #1
    a5c6:	ea4f 0232 	mov.w	r2, r2, rrx
    a5ca:	ebb6 0e02 	subs.w	lr, r6, r2
    a5ce:	eb75 0e03 	sbcs.w	lr, r5, r3
    a5d2:	bf22      	ittt	cs
    a5d4:	1ab6      	subcs	r6, r6, r2
    a5d6:	4675      	movcs	r5, lr
    a5d8:	ea40 009c 	orrcs.w	r0, r0, ip, lsr #2
    a5dc:	085b      	lsrs	r3, r3, #1
    a5de:	ea4f 0232 	mov.w	r2, r2, rrx
    a5e2:	ebb6 0e02 	subs.w	lr, r6, r2
    a5e6:	eb75 0e03 	sbcs.w	lr, r5, r3
    a5ea:	bf22      	ittt	cs
    a5ec:	1ab6      	subcs	r6, r6, r2
    a5ee:	4675      	movcs	r5, lr
    a5f0:	ea40 00dc 	orrcs.w	r0, r0, ip, lsr #3
    a5f4:	ea55 0e06 	orrs.w	lr, r5, r6
    a5f8:	d018      	beq.n	a62c <__aeabi_ddiv+0x114>
    a5fa:	ea4f 1505 	mov.w	r5, r5, lsl #4
    a5fe:	ea45 7516 	orr.w	r5, r5, r6, lsr #28
    a602:	ea4f 1606 	mov.w	r6, r6, lsl #4
    a606:	ea4f 03c3 	mov.w	r3, r3, lsl #3
    a60a:	ea43 7352 	orr.w	r3, r3, r2, lsr #29
    a60e:	ea4f 02c2 	mov.w	r2, r2, lsl #3
    a612:	ea5f 1c1c 	movs.w	ip, ip, lsr #4
    a616:	d1c0      	bne.n	a59a <__aeabi_ddiv+0x82>
    a618:	f411 1f80 	tst.w	r1, #1048576	; 0x100000
    a61c:	d10b      	bne.n	a636 <__aeabi_ddiv+0x11e>
    a61e:	ea41 0100 	orr.w	r1, r1, r0
    a622:	f04f 0000 	mov.w	r0, #0
    a626:	f04f 4c00 	mov.w	ip, #2147483648	; 0x80000000
    a62a:	e7b6      	b.n	a59a <__aeabi_ddiv+0x82>
    a62c:	f411 1f80 	tst.w	r1, #1048576	; 0x100000
    a630:	bf04      	itt	eq
    a632:	4301      	orreq	r1, r0
    a634:	2000      	moveq	r0, #0
    a636:	f1b4 0cfd 	subs.w	ip, r4, #253	; 0xfd
    a63a:	bf88      	it	hi
    a63c:	f5bc 6fe0 	cmphi.w	ip, #1792	; 0x700
    a640:	f63f aeaf 	bhi.w	a3a2 <__aeabi_dmul+0xde>
    a644:	ebb5 0c03 	subs.w	ip, r5, r3
    a648:	bf04      	itt	eq
    a64a:	ebb6 0c02 	subseq.w	ip, r6, r2
    a64e:	ea5f 0c50 	movseq.w	ip, r0, lsr #1
    a652:	f150 0000 	adcs.w	r0, r0, #0
    a656:	eb41 5104 	adc.w	r1, r1, r4, lsl #20
    a65a:	bd70      	pop	{r4, r5, r6, pc}
    a65c:	f00e 4e00 	and.w	lr, lr, #2147483648	; 0x80000000
    a660:	ea4e 3111 	orr.w	r1, lr, r1, lsr #12
    a664:	eb14 045c 	adds.w	r4, r4, ip, lsr #1
    a668:	bfc2      	ittt	gt
    a66a:	ebd4 050c 	rsbsgt	r5, r4, ip
    a66e:	ea41 5104 	orrgt.w	r1, r1, r4, lsl #20
    a672:	bd70      	popgt	{r4, r5, r6, pc}
    a674:	f441 1180 	orr.w	r1, r1, #1048576	; 0x100000
    a678:	f04f 0e00 	mov.w	lr, #0
    a67c:	3c01      	subs	r4, #1
    a67e:	e690      	b.n	a3a2 <__aeabi_dmul+0xde>
    a680:	ea45 0e06 	orr.w	lr, r5, r6
    a684:	e68d      	b.n	a3a2 <__aeabi_dmul+0xde>
    a686:	ea0c 5513 	and.w	r5, ip, r3, lsr #20
    a68a:	ea94 0f0c 	teq	r4, ip
    a68e:	bf08      	it	eq
    a690:	ea95 0f0c 	teqeq	r5, ip
    a694:	f43f af3b 	beq.w	a50e <__aeabi_dmul+0x24a>
    a698:	ea94 0f0c 	teq	r4, ip
    a69c:	d10a      	bne.n	a6b4 <__aeabi_ddiv+0x19c>
    a69e:	ea50 3401 	orrs.w	r4, r0, r1, lsl #12
    a6a2:	f47f af34 	bne.w	a50e <__aeabi_dmul+0x24a>
    a6a6:	ea95 0f0c 	teq	r5, ip
    a6aa:	f47f af25 	bne.w	a4f8 <__aeabi_dmul+0x234>
    a6ae:	4610      	mov	r0, r2
    a6b0:	4619      	mov	r1, r3
    a6b2:	e72c      	b.n	a50e <__aeabi_dmul+0x24a>
    a6b4:	ea95 0f0c 	teq	r5, ip
    a6b8:	d106      	bne.n	a6c8 <__aeabi_ddiv+0x1b0>
    a6ba:	ea52 3503 	orrs.w	r5, r2, r3, lsl #12
    a6be:	f43f aefd 	beq.w	a4bc <__aeabi_dmul+0x1f8>
    a6c2:	4610      	mov	r0, r2
    a6c4:	4619      	mov	r1, r3
    a6c6:	e722      	b.n	a50e <__aeabi_dmul+0x24a>
    a6c8:	ea50 0641 	orrs.w	r6, r0, r1, lsl #1
    a6cc:	bf18      	it	ne
    a6ce:	ea52 0643 	orrsne.w	r6, r2, r3, lsl #1
    a6d2:	f47f aec5 	bne.w	a460 <__aeabi_dmul+0x19c>
    a6d6:	ea50 0441 	orrs.w	r4, r0, r1, lsl #1
    a6da:	f47f af0d 	bne.w	a4f8 <__aeabi_dmul+0x234>
    a6de:	ea52 0543 	orrs.w	r5, r2, r3, lsl #1
    a6e2:	f47f aeeb 	bne.w	a4bc <__aeabi_dmul+0x1f8>
    a6e6:	e712      	b.n	a50e <__aeabi_dmul+0x24a>

0000a6e8 <__aeabi_d2iz>:
    a6e8:	ea4f 0241 	mov.w	r2, r1, lsl #1
    a6ec:	f512 1200 	adds.w	r2, r2, #2097152	; 0x200000
    a6f0:	d215      	bcs.n	a71e <__aeabi_d2iz+0x36>
    a6f2:	d511      	bpl.n	a718 <__aeabi_d2iz+0x30>
    a6f4:	f46f 7378 	mvn.w	r3, #992	; 0x3e0
    a6f8:	ebb3 5262 	subs.w	r2, r3, r2, asr #21
    a6fc:	d912      	bls.n	a724 <__aeabi_d2iz+0x3c>
    a6fe:	ea4f 23c1 	mov.w	r3, r1, lsl #11
    a702:	f043 4300 	orr.w	r3, r3, #2147483648	; 0x80000000
    a706:	ea43 5350 	orr.w	r3, r3, r0, lsr #21
    a70a:	f011 4f00 	tst.w	r1, #2147483648	; 0x80000000
    a70e:	fa23 f002 	lsr.w	r0, r3, r2
    a712:	bf18      	it	ne
    a714:	4240      	negne	r0, r0
    a716:	4770      	bx	lr
    a718:	f04f 0000 	mov.w	r0, #0
    a71c:	4770      	bx	lr
    a71e:	ea50 3001 	orrs.w	r0, r0, r1, lsl #12
    a722:	d105      	bne.n	a730 <__aeabi_d2iz+0x48>
    a724:	f011 4000 	ands.w	r0, r1, #2147483648	; 0x80000000
    a728:	bf08      	it	eq
    a72a:	f06f 4000 	mvneq.w	r0, #2147483648	; 0x80000000
    a72e:	4770      	bx	lr
    a730:	f04f 0000 	mov.w	r0, #0
    a734:	4770      	bx	lr
    a736:	bf00      	nop

0000a738 <__aeabi_d2uiz>:
    a738:	004a      	lsls	r2, r1, #1
    a73a:	d211      	bcs.n	a760 <__aeabi_d2uiz+0x28>
    a73c:	f512 1200 	adds.w	r2, r2, #2097152	; 0x200000
    a740:	d211      	bcs.n	a766 <__aeabi_d2uiz+0x2e>
    a742:	d50d      	bpl.n	a760 <__aeabi_d2uiz+0x28>
    a744:	f46f 7378 	mvn.w	r3, #992	; 0x3e0
    a748:	ebb3 5262 	subs.w	r2, r3, r2, asr #21
    a74c:	d40e      	bmi.n	a76c <__aeabi_d2uiz+0x34>
    a74e:	ea4f 23c1 	mov.w	r3, r1, lsl #11
    a752:	f043 4300 	orr.w	r3, r3, #2147483648	; 0x80000000
    a756:	ea43 5350 	orr.w	r3, r3, r0, lsr #21
    a75a:	fa23 f002 	lsr.w	r0, r3, r2
    a75e:	4770      	bx	lr
    a760:	f04f 0000 	mov.w	r0, #0
    a764:	4770      	bx	lr
    a766:	ea50 3001 	orrs.w	r0, r0, r1, lsl #12
    a76a:	d102      	bne.n	a772 <__aeabi_d2uiz+0x3a>
    a76c:	f04f 30ff 	mov.w	r0, #4294967295
    a770:	4770      	bx	lr
    a772:	f04f 0000 	mov.w	r0, #0
    a776:	4770      	bx	lr

0000a778 <__aeabi_d2f>:
    a778:	ea4f 0241 	mov.w	r2, r1, lsl #1
    a77c:	f1b2 43e0 	subs.w	r3, r2, #1879048192	; 0x70000000
    a780:	bf24      	itt	cs
    a782:	f5b3 1c00 	subscs.w	ip, r3, #2097152	; 0x200000
    a786:	f1dc 5cfe 	rsbscs	ip, ip, #532676608	; 0x1fc00000
    a78a:	d90d      	bls.n	a7a8 <__aeabi_d2f+0x30>
    a78c:	f001 4c00 	and.w	ip, r1, #2147483648	; 0x80000000
    a790:	ea4f 02c0 	mov.w	r2, r0, lsl #3
    a794:	ea4c 7050 	orr.w	r0, ip, r0, lsr #29
    a798:	f1b2 4f00 	cmp.w	r2, #2147483648	; 0x80000000
    a79c:	eb40 0083 	adc.w	r0, r0, r3, lsl #2
    a7a0:	bf08      	it	eq
    a7a2:	f020 0001 	biceq.w	r0, r0, #1
    a7a6:	4770      	bx	lr
    a7a8:	f011 4f80 	tst.w	r1, #1073741824	; 0x40000000
    a7ac:	d121      	bne.n	a7f2 <__aeabi_d2f+0x7a>
    a7ae:	f113 7238 	adds.w	r2, r3, #48234496	; 0x2e00000
    a7b2:	bfbc      	itt	lt
    a7b4:	f001 4000 	andlt.w	r0, r1, #2147483648	; 0x80000000
    a7b8:	4770      	bxlt	lr
    a7ba:	f441 1180 	orr.w	r1, r1, #1048576	; 0x100000
    a7be:	ea4f 5252 	mov.w	r2, r2, lsr #21
    a7c2:	f1c2 0218 	rsb	r2, r2, #24
    a7c6:	f1c2 0c20 	rsb	ip, r2, #32
    a7ca:	fa10 f30c 	lsls.w	r3, r0, ip
    a7ce:	fa20 f002 	lsr.w	r0, r0, r2
    a7d2:	bf18      	it	ne
    a7d4:	f040 0001 	orrne.w	r0, r0, #1
    a7d8:	ea4f 23c1 	mov.w	r3, r1, lsl #11
    a7dc:	ea4f 23d3 	mov.w	r3, r3, lsr #11
    a7e0:	fa03 fc0c 	lsl.w	ip, r3, ip
    a7e4:	ea40 000c 	orr.w	r0, r0, ip
    a7e8:	fa23 f302 	lsr.w	r3, r3, r2
    a7ec:	ea4f 0343 	mov.w	r3, r3, lsl #1
    a7f0:	e7cc      	b.n	a78c <__aeabi_d2f+0x14>
    a7f2:	ea7f 5362 	mvns.w	r3, r2, asr #21
    a7f6:	d107      	bne.n	a808 <__aeabi_d2f+0x90>
    a7f8:	ea50 3301 	orrs.w	r3, r0, r1, lsl #12
    a7fc:	bf1e      	ittt	ne
    a7fe:	f04f 40fe 	movne.w	r0, #2130706432	; 0x7f000000
    a802:	f440 0040 	orrne.w	r0, r0, #12582912	; 0xc00000
    a806:	4770      	bxne	lr
    a808:	f001 4000 	and.w	r0, r1, #2147483648	; 0x80000000
    a80c:	f040 40fe 	orr.w	r0, r0, #2130706432	; 0x7f000000
    a810:	f440 0000 	orr.w	r0, r0, #8388608	; 0x800000
    a814:	4770      	bx	lr
    a816:	bf00      	nop

0000a818 <__libc_init_array>:
    a818:	b570      	push	{r4, r5, r6, lr}
    a81a:	4e0d      	ldr	r6, [pc, #52]	; (a850 <__libc_init_array+0x38>)
    a81c:	4c0d      	ldr	r4, [pc, #52]	; (a854 <__libc_init_array+0x3c>)
    a81e:	1ba4      	subs	r4, r4, r6
    a820:	10a4      	asrs	r4, r4, #2
    a822:	2500      	movs	r5, #0
    a824:	42a5      	cmp	r5, r4
    a826:	d109      	bne.n	a83c <__libc_init_array+0x24>
    a828:	4e0b      	ldr	r6, [pc, #44]	; (a858 <__libc_init_array+0x40>)
    a82a:	4c0c      	ldr	r4, [pc, #48]	; (a85c <__libc_init_array+0x44>)
    a82c:	f001 fa3c 	bl	bca8 <_init>
    a830:	1ba4      	subs	r4, r4, r6
    a832:	10a4      	asrs	r4, r4, #2
    a834:	2500      	movs	r5, #0
    a836:	42a5      	cmp	r5, r4
    a838:	d105      	bne.n	a846 <__libc_init_array+0x2e>
    a83a:	bd70      	pop	{r4, r5, r6, pc}
    a83c:	f856 3025 	ldr.w	r3, [r6, r5, lsl #2]
    a840:	4798      	blx	r3
    a842:	3501      	adds	r5, #1
    a844:	e7ee      	b.n	a824 <__libc_init_array+0xc>
    a846:	f856 3025 	ldr.w	r3, [r6, r5, lsl #2]
    a84a:	4798      	blx	r3
    a84c:	3501      	adds	r5, #1
    a84e:	e7f2      	b.n	a836 <__libc_init_array+0x1e>
    a850:	0000bcb4 	.word	0x0000bcb4
    a854:	0000bcb4 	.word	0x0000bcb4
    a858:	0000bcb4 	.word	0x0000bcb4
    a85c:	0000bcb8 	.word	0x0000bcb8

0000a860 <malloc>:
    a860:	4b02      	ldr	r3, [pc, #8]	; (a86c <malloc+0xc>)
    a862:	4601      	mov	r1, r0
    a864:	6818      	ldr	r0, [r3, #0]
    a866:	f000 b873 	b.w	a950 <_malloc_r>
    a86a:	bf00      	nop
    a86c:	20000050 	.word	0x20000050

0000a870 <memcmp>:
    a870:	b510      	push	{r4, lr}
    a872:	3901      	subs	r1, #1
    a874:	4402      	add	r2, r0
    a876:	4290      	cmp	r0, r2
    a878:	d101      	bne.n	a87e <memcmp+0xe>
    a87a:	2000      	movs	r0, #0
    a87c:	bd10      	pop	{r4, pc}
    a87e:	f810 3b01 	ldrb.w	r3, [r0], #1
    a882:	f811 4f01 	ldrb.w	r4, [r1, #1]!
    a886:	42a3      	cmp	r3, r4
    a888:	d0f5      	beq.n	a876 <memcmp+0x6>
    a88a:	1b18      	subs	r0, r3, r4
    a88c:	bd10      	pop	{r4, pc}

0000a88e <memcpy>:
    a88e:	b510      	push	{r4, lr}
    a890:	1e43      	subs	r3, r0, #1
    a892:	440a      	add	r2, r1
    a894:	4291      	cmp	r1, r2
    a896:	d100      	bne.n	a89a <memcpy+0xc>
    a898:	bd10      	pop	{r4, pc}
    a89a:	f811 4b01 	ldrb.w	r4, [r1], #1
    a89e:	f803 4f01 	strb.w	r4, [r3, #1]!
    a8a2:	e7f7      	b.n	a894 <memcpy+0x6>

0000a8a4 <memset>:
    a8a4:	4402      	add	r2, r0
    a8a6:	4603      	mov	r3, r0
    a8a8:	4293      	cmp	r3, r2
    a8aa:	d100      	bne.n	a8ae <memset+0xa>
    a8ac:	4770      	bx	lr
    a8ae:	f803 1b01 	strb.w	r1, [r3], #1
    a8b2:	e7f9      	b.n	a8a8 <memset+0x4>

0000a8b4 <_free_r>:
    a8b4:	b538      	push	{r3, r4, r5, lr}
    a8b6:	4605      	mov	r5, r0
    a8b8:	2900      	cmp	r1, #0
    a8ba:	d045      	beq.n	a948 <_free_r+0x94>
    a8bc:	f851 3c04 	ldr.w	r3, [r1, #-4]
    a8c0:	1f0c      	subs	r4, r1, #4
    a8c2:	2b00      	cmp	r3, #0
    a8c4:	bfb8      	it	lt
    a8c6:	18e4      	addlt	r4, r4, r3
    a8c8:	f000 fc82 	bl	b1d0 <__malloc_lock>
    a8cc:	4a1f      	ldr	r2, [pc, #124]	; (a94c <_free_r+0x98>)
    a8ce:	6813      	ldr	r3, [r2, #0]
    a8d0:	4610      	mov	r0, r2
    a8d2:	b933      	cbnz	r3, a8e2 <_free_r+0x2e>
    a8d4:	6063      	str	r3, [r4, #4]
    a8d6:	6014      	str	r4, [r2, #0]
    a8d8:	4628      	mov	r0, r5
    a8da:	e8bd 4038 	ldmia.w	sp!, {r3, r4, r5, lr}
    a8de:	f000 bc78 	b.w	b1d2 <__malloc_unlock>
    a8e2:	42a3      	cmp	r3, r4
    a8e4:	d90c      	bls.n	a900 <_free_r+0x4c>
    a8e6:	6821      	ldr	r1, [r4, #0]
    a8e8:	1862      	adds	r2, r4, r1
    a8ea:	4293      	cmp	r3, r2
    a8ec:	bf04      	itt	eq
    a8ee:	681a      	ldreq	r2, [r3, #0]
    a8f0:	685b      	ldreq	r3, [r3, #4]
    a8f2:	6063      	str	r3, [r4, #4]
    a8f4:	bf04      	itt	eq
    a8f6:	1852      	addeq	r2, r2, r1
    a8f8:	6022      	streq	r2, [r4, #0]
    a8fa:	6004      	str	r4, [r0, #0]
    a8fc:	e7ec      	b.n	a8d8 <_free_r+0x24>
    a8fe:	4613      	mov	r3, r2
    a900:	685a      	ldr	r2, [r3, #4]
    a902:	b10a      	cbz	r2, a908 <_free_r+0x54>
    a904:	42a2      	cmp	r2, r4
    a906:	d9fa      	bls.n	a8fe <_free_r+0x4a>
    a908:	6819      	ldr	r1, [r3, #0]
    a90a:	1858      	adds	r0, r3, r1
    a90c:	42a0      	cmp	r0, r4
    a90e:	d10b      	bne.n	a928 <_free_r+0x74>
    a910:	6820      	ldr	r0, [r4, #0]
    a912:	4401      	add	r1, r0
    a914:	1858      	adds	r0, r3, r1
    a916:	4282      	cmp	r2, r0
    a918:	6019      	str	r1, [r3, #0]
    a91a:	d1dd      	bne.n	a8d8 <_free_r+0x24>
    a91c:	6810      	ldr	r0, [r2, #0]
    a91e:	6852      	ldr	r2, [r2, #4]
    a920:	605a      	str	r2, [r3, #4]
    a922:	4401      	add	r1, r0
    a924:	6019      	str	r1, [r3, #0]
    a926:	e7d7      	b.n	a8d8 <_free_r+0x24>
    a928:	d902      	bls.n	a930 <_free_r+0x7c>
    a92a:	230c      	movs	r3, #12
    a92c:	602b      	str	r3, [r5, #0]
    a92e:	e7d3      	b.n	a8d8 <_free_r+0x24>
    a930:	6820      	ldr	r0, [r4, #0]
    a932:	1821      	adds	r1, r4, r0
    a934:	428a      	cmp	r2, r1
    a936:	bf04      	itt	eq
    a938:	6811      	ldreq	r1, [r2, #0]
    a93a:	6852      	ldreq	r2, [r2, #4]
    a93c:	6062      	str	r2, [r4, #4]
    a93e:	bf04      	itt	eq
    a940:	1809      	addeq	r1, r1, r0
    a942:	6021      	streq	r1, [r4, #0]
    a944:	605c      	str	r4, [r3, #4]
    a946:	e7c7      	b.n	a8d8 <_free_r+0x24>
    a948:	bd38      	pop	{r3, r4, r5, pc}
    a94a:	bf00      	nop
    a94c:	200128c0 	.word	0x200128c0

0000a950 <_malloc_r>:
    a950:	b570      	push	{r4, r5, r6, lr}
    a952:	1ccd      	adds	r5, r1, #3
    a954:	f025 0503 	bic.w	r5, r5, #3
    a958:	3508      	adds	r5, #8
    a95a:	2d0c      	cmp	r5, #12
    a95c:	bf38      	it	cc
    a95e:	250c      	movcc	r5, #12
    a960:	2d00      	cmp	r5, #0
    a962:	4606      	mov	r6, r0
    a964:	db01      	blt.n	a96a <_malloc_r+0x1a>
    a966:	42a9      	cmp	r1, r5
    a968:	d903      	bls.n	a972 <_malloc_r+0x22>
    a96a:	230c      	movs	r3, #12
    a96c:	6033      	str	r3, [r6, #0]
    a96e:	2000      	movs	r0, #0
    a970:	bd70      	pop	{r4, r5, r6, pc}
    a972:	f000 fc2d 	bl	b1d0 <__malloc_lock>
    a976:	4a23      	ldr	r2, [pc, #140]	; (aa04 <_malloc_r+0xb4>)
    a978:	6814      	ldr	r4, [r2, #0]
    a97a:	4621      	mov	r1, r4
    a97c:	b991      	cbnz	r1, a9a4 <_malloc_r+0x54>
    a97e:	4c22      	ldr	r4, [pc, #136]	; (aa08 <_malloc_r+0xb8>)
    a980:	6823      	ldr	r3, [r4, #0]
    a982:	b91b      	cbnz	r3, a98c <_malloc_r+0x3c>
    a984:	4630      	mov	r0, r6
    a986:	f000 f8bd 	bl	ab04 <_sbrk_r>
    a98a:	6020      	str	r0, [r4, #0]
    a98c:	4629      	mov	r1, r5
    a98e:	4630      	mov	r0, r6
    a990:	f000 f8b8 	bl	ab04 <_sbrk_r>
    a994:	1c43      	adds	r3, r0, #1
    a996:	d126      	bne.n	a9e6 <_malloc_r+0x96>
    a998:	230c      	movs	r3, #12
    a99a:	6033      	str	r3, [r6, #0]
    a99c:	4630      	mov	r0, r6
    a99e:	f000 fc18 	bl	b1d2 <__malloc_unlock>
    a9a2:	e7e4      	b.n	a96e <_malloc_r+0x1e>
    a9a4:	680b      	ldr	r3, [r1, #0]
    a9a6:	1b5b      	subs	r3, r3, r5
    a9a8:	d41a      	bmi.n	a9e0 <_malloc_r+0x90>
    a9aa:	2b0b      	cmp	r3, #11
    a9ac:	d90f      	bls.n	a9ce <_malloc_r+0x7e>
    a9ae:	600b      	str	r3, [r1, #0]
    a9b0:	50cd      	str	r5, [r1, r3]
    a9b2:	18cc      	adds	r4, r1, r3
    a9b4:	4630      	mov	r0, r6
    a9b6:	f000 fc0c 	bl	b1d2 <__malloc_unlock>
    a9ba:	f104 000b 	add.w	r0, r4, #11
    a9be:	1d23      	adds	r3, r4, #4
    a9c0:	f020 0007 	bic.w	r0, r0, #7
    a9c4:	1ac3      	subs	r3, r0, r3
    a9c6:	d01b      	beq.n	aa00 <_malloc_r+0xb0>
    a9c8:	425a      	negs	r2, r3
    a9ca:	50e2      	str	r2, [r4, r3]
    a9cc:	bd70      	pop	{r4, r5, r6, pc}
    a9ce:	428c      	cmp	r4, r1
    a9d0:	bf0d      	iteet	eq
    a9d2:	6863      	ldreq	r3, [r4, #4]
    a9d4:	684b      	ldrne	r3, [r1, #4]
    a9d6:	6063      	strne	r3, [r4, #4]
    a9d8:	6013      	streq	r3, [r2, #0]
    a9da:	bf18      	it	ne
    a9dc:	460c      	movne	r4, r1
    a9de:	e7e9      	b.n	a9b4 <_malloc_r+0x64>
    a9e0:	460c      	mov	r4, r1
    a9e2:	6849      	ldr	r1, [r1, #4]
    a9e4:	e7ca      	b.n	a97c <_malloc_r+0x2c>
    a9e6:	1cc4      	adds	r4, r0, #3
    a9e8:	f024 0403 	bic.w	r4, r4, #3
    a9ec:	42a0      	cmp	r0, r4
    a9ee:	d005      	beq.n	a9fc <_malloc_r+0xac>
    a9f0:	1a21      	subs	r1, r4, r0
    a9f2:	4630      	mov	r0, r6
    a9f4:	f000 f886 	bl	ab04 <_sbrk_r>
    a9f8:	3001      	adds	r0, #1
    a9fa:	d0cd      	beq.n	a998 <_malloc_r+0x48>
    a9fc:	6025      	str	r5, [r4, #0]
    a9fe:	e7d9      	b.n	a9b4 <_malloc_r+0x64>
    aa00:	bd70      	pop	{r4, r5, r6, pc}
    aa02:	bf00      	nop
    aa04:	200128c0 	.word	0x200128c0
    aa08:	200128c4 	.word	0x200128c4

0000aa0c <iprintf>:
    aa0c:	b40f      	push	{r0, r1, r2, r3}
    aa0e:	4b0a      	ldr	r3, [pc, #40]	; (aa38 <iprintf+0x2c>)
    aa10:	b513      	push	{r0, r1, r4, lr}
    aa12:	681c      	ldr	r4, [r3, #0]
    aa14:	b124      	cbz	r4, aa20 <iprintf+0x14>
    aa16:	69a3      	ldr	r3, [r4, #24]
    aa18:	b913      	cbnz	r3, aa20 <iprintf+0x14>
    aa1a:	4620      	mov	r0, r4
    aa1c:	f000 faea 	bl	aff4 <__sinit>
    aa20:	ab05      	add	r3, sp, #20
    aa22:	9a04      	ldr	r2, [sp, #16]
    aa24:	68a1      	ldr	r1, [r4, #8]
    aa26:	9301      	str	r3, [sp, #4]
    aa28:	4620      	mov	r0, r4
    aa2a:	f000 fbfb 	bl	b224 <_vfiprintf_r>
    aa2e:	b002      	add	sp, #8
    aa30:	e8bd 4010 	ldmia.w	sp!, {r4, lr}
    aa34:	b004      	add	sp, #16
    aa36:	4770      	bx	lr
    aa38:	20000050 	.word	0x20000050

0000aa3c <_puts_r>:
    aa3c:	b570      	push	{r4, r5, r6, lr}
    aa3e:	460e      	mov	r6, r1
    aa40:	4605      	mov	r5, r0
    aa42:	b118      	cbz	r0, aa4c <_puts_r+0x10>
    aa44:	6983      	ldr	r3, [r0, #24]
    aa46:	b90b      	cbnz	r3, aa4c <_puts_r+0x10>
    aa48:	f000 fad4 	bl	aff4 <__sinit>
    aa4c:	69ab      	ldr	r3, [r5, #24]
    aa4e:	68ac      	ldr	r4, [r5, #8]
    aa50:	b913      	cbnz	r3, aa58 <_puts_r+0x1c>
    aa52:	4628      	mov	r0, r5
    aa54:	f000 face 	bl	aff4 <__sinit>
    aa58:	4b23      	ldr	r3, [pc, #140]	; (aae8 <_puts_r+0xac>)
    aa5a:	429c      	cmp	r4, r3
    aa5c:	d117      	bne.n	aa8e <_puts_r+0x52>
    aa5e:	686c      	ldr	r4, [r5, #4]
    aa60:	89a3      	ldrh	r3, [r4, #12]
    aa62:	071b      	lsls	r3, r3, #28
    aa64:	d51d      	bpl.n	aaa2 <_puts_r+0x66>
    aa66:	6923      	ldr	r3, [r4, #16]
    aa68:	b1db      	cbz	r3, aaa2 <_puts_r+0x66>
    aa6a:	3e01      	subs	r6, #1
    aa6c:	68a3      	ldr	r3, [r4, #8]
    aa6e:	f816 1f01 	ldrb.w	r1, [r6, #1]!
    aa72:	3b01      	subs	r3, #1
    aa74:	60a3      	str	r3, [r4, #8]
    aa76:	b9e9      	cbnz	r1, aab4 <_puts_r+0x78>
    aa78:	2b00      	cmp	r3, #0
    aa7a:	da2e      	bge.n	aada <_puts_r+0x9e>
    aa7c:	4622      	mov	r2, r4
    aa7e:	210a      	movs	r1, #10
    aa80:	4628      	mov	r0, r5
    aa82:	f000 f905 	bl	ac90 <__swbuf_r>
    aa86:	3001      	adds	r0, #1
    aa88:	d011      	beq.n	aaae <_puts_r+0x72>
    aa8a:	200a      	movs	r0, #10
    aa8c:	bd70      	pop	{r4, r5, r6, pc}
    aa8e:	4b17      	ldr	r3, [pc, #92]	; (aaec <_puts_r+0xb0>)
    aa90:	429c      	cmp	r4, r3
    aa92:	d101      	bne.n	aa98 <_puts_r+0x5c>
    aa94:	68ac      	ldr	r4, [r5, #8]
    aa96:	e7e3      	b.n	aa60 <_puts_r+0x24>
    aa98:	4b15      	ldr	r3, [pc, #84]	; (aaf0 <_puts_r+0xb4>)
    aa9a:	429c      	cmp	r4, r3
    aa9c:	bf08      	it	eq
    aa9e:	68ec      	ldreq	r4, [r5, #12]
    aaa0:	e7de      	b.n	aa60 <_puts_r+0x24>
    aaa2:	4621      	mov	r1, r4
    aaa4:	4628      	mov	r0, r5
    aaa6:	f000 f945 	bl	ad34 <__swsetup_r>
    aaaa:	2800      	cmp	r0, #0
    aaac:	d0dd      	beq.n	aa6a <_puts_r+0x2e>
    aaae:	f04f 30ff 	mov.w	r0, #4294967295
    aab2:	bd70      	pop	{r4, r5, r6, pc}
    aab4:	2b00      	cmp	r3, #0
    aab6:	da04      	bge.n	aac2 <_puts_r+0x86>
    aab8:	69a2      	ldr	r2, [r4, #24]
    aaba:	4293      	cmp	r3, r2
    aabc:	db06      	blt.n	aacc <_puts_r+0x90>
    aabe:	290a      	cmp	r1, #10
    aac0:	d004      	beq.n	aacc <_puts_r+0x90>
    aac2:	6823      	ldr	r3, [r4, #0]
    aac4:	1c5a      	adds	r2, r3, #1
    aac6:	6022      	str	r2, [r4, #0]
    aac8:	7019      	strb	r1, [r3, #0]
    aaca:	e7cf      	b.n	aa6c <_puts_r+0x30>
    aacc:	4622      	mov	r2, r4
    aace:	4628      	mov	r0, r5
    aad0:	f000 f8de 	bl	ac90 <__swbuf_r>
    aad4:	3001      	adds	r0, #1
    aad6:	d1c9      	bne.n	aa6c <_puts_r+0x30>
    aad8:	e7e9      	b.n	aaae <_puts_r+0x72>
    aada:	6823      	ldr	r3, [r4, #0]
    aadc:	200a      	movs	r0, #10
    aade:	1c5a      	adds	r2, r3, #1
    aae0:	6022      	str	r2, [r4, #0]
    aae2:	7018      	strb	r0, [r3, #0]
    aae4:	bd70      	pop	{r4, r5, r6, pc}
    aae6:	bf00      	nop
    aae8:	0000bc34 	.word	0x0000bc34
    aaec:	0000bc54 	.word	0x0000bc54
    aaf0:	0000bc14 	.word	0x0000bc14

0000aaf4 <puts>:
    aaf4:	4b02      	ldr	r3, [pc, #8]	; (ab00 <puts+0xc>)
    aaf6:	4601      	mov	r1, r0
    aaf8:	6818      	ldr	r0, [r3, #0]
    aafa:	f7ff bf9f 	b.w	aa3c <_puts_r>
    aafe:	bf00      	nop
    ab00:	20000050 	.word	0x20000050

0000ab04 <_sbrk_r>:
    ab04:	b538      	push	{r3, r4, r5, lr}
    ab06:	4c06      	ldr	r4, [pc, #24]	; (ab20 <_sbrk_r+0x1c>)
    ab08:	2300      	movs	r3, #0
    ab0a:	4605      	mov	r5, r0
    ab0c:	4608      	mov	r0, r1
    ab0e:	6023      	str	r3, [r4, #0]
    ab10:	f7f6 fb12 	bl	1138 <_sbrk>
    ab14:	1c43      	adds	r3, r0, #1
    ab16:	d102      	bne.n	ab1e <_sbrk_r+0x1a>
    ab18:	6823      	ldr	r3, [r4, #0]
    ab1a:	b103      	cbz	r3, ab1e <_sbrk_r+0x1a>
    ab1c:	602b      	str	r3, [r5, #0]
    ab1e:	bd38      	pop	{r3, r4, r5, pc}
    ab20:	200161fc 	.word	0x200161fc

0000ab24 <setbuf>:
    ab24:	2900      	cmp	r1, #0
    ab26:	f44f 6380 	mov.w	r3, #1024	; 0x400
    ab2a:	bf0c      	ite	eq
    ab2c:	2202      	moveq	r2, #2
    ab2e:	2200      	movne	r2, #0
    ab30:	f000 b800 	b.w	ab34 <setvbuf>

0000ab34 <setvbuf>:
    ab34:	e92d 43f7 	stmdb	sp!, {r0, r1, r2, r4, r5, r6, r7, r8, r9, lr}
    ab38:	461d      	mov	r5, r3
    ab3a:	4b51      	ldr	r3, [pc, #324]	; (ac80 <setvbuf+0x14c>)
    ab3c:	681e      	ldr	r6, [r3, #0]
    ab3e:	4604      	mov	r4, r0
    ab40:	460f      	mov	r7, r1
    ab42:	4690      	mov	r8, r2
    ab44:	b126      	cbz	r6, ab50 <setvbuf+0x1c>
    ab46:	69b3      	ldr	r3, [r6, #24]
    ab48:	b913      	cbnz	r3, ab50 <setvbuf+0x1c>
    ab4a:	4630      	mov	r0, r6
    ab4c:	f000 fa52 	bl	aff4 <__sinit>
    ab50:	4b4c      	ldr	r3, [pc, #304]	; (ac84 <setvbuf+0x150>)
    ab52:	429c      	cmp	r4, r3
    ab54:	d152      	bne.n	abfc <setvbuf+0xc8>
    ab56:	6874      	ldr	r4, [r6, #4]
    ab58:	f1b8 0f02 	cmp.w	r8, #2
    ab5c:	d006      	beq.n	ab6c <setvbuf+0x38>
    ab5e:	f1b8 0f01 	cmp.w	r8, #1
    ab62:	f200 8089 	bhi.w	ac78 <setvbuf+0x144>
    ab66:	2d00      	cmp	r5, #0
    ab68:	f2c0 8086 	blt.w	ac78 <setvbuf+0x144>
    ab6c:	4621      	mov	r1, r4
    ab6e:	4630      	mov	r0, r6
    ab70:	f000 f9d6 	bl	af20 <_fflush_r>
    ab74:	6b61      	ldr	r1, [r4, #52]	; 0x34
    ab76:	b141      	cbz	r1, ab8a <setvbuf+0x56>
    ab78:	f104 0344 	add.w	r3, r4, #68	; 0x44
    ab7c:	4299      	cmp	r1, r3
    ab7e:	d002      	beq.n	ab86 <setvbuf+0x52>
    ab80:	4630      	mov	r0, r6
    ab82:	f7ff fe97 	bl	a8b4 <_free_r>
    ab86:	2300      	movs	r3, #0
    ab88:	6363      	str	r3, [r4, #52]	; 0x34
    ab8a:	2300      	movs	r3, #0
    ab8c:	61a3      	str	r3, [r4, #24]
    ab8e:	6063      	str	r3, [r4, #4]
    ab90:	89a3      	ldrh	r3, [r4, #12]
    ab92:	061b      	lsls	r3, r3, #24
    ab94:	d503      	bpl.n	ab9e <setvbuf+0x6a>
    ab96:	6921      	ldr	r1, [r4, #16]
    ab98:	4630      	mov	r0, r6
    ab9a:	f7ff fe8b 	bl	a8b4 <_free_r>
    ab9e:	89a3      	ldrh	r3, [r4, #12]
    aba0:	f423 634a 	bic.w	r3, r3, #3232	; 0xca0
    aba4:	f023 0303 	bic.w	r3, r3, #3
    aba8:	f1b8 0f02 	cmp.w	r8, #2
    abac:	81a3      	strh	r3, [r4, #12]
    abae:	d05d      	beq.n	ac6c <setvbuf+0x138>
    abb0:	ab01      	add	r3, sp, #4
    abb2:	466a      	mov	r2, sp
    abb4:	4621      	mov	r1, r4
    abb6:	4630      	mov	r0, r6
    abb8:	f000 faa6 	bl	b108 <__swhatbuf_r>
    abbc:	89a3      	ldrh	r3, [r4, #12]
    abbe:	4318      	orrs	r0, r3
    abc0:	81a0      	strh	r0, [r4, #12]
    abc2:	bb2d      	cbnz	r5, ac10 <setvbuf+0xdc>
    abc4:	9d00      	ldr	r5, [sp, #0]
    abc6:	4628      	mov	r0, r5
    abc8:	f7ff fe4a 	bl	a860 <malloc>
    abcc:	4607      	mov	r7, r0
    abce:	2800      	cmp	r0, #0
    abd0:	d14e      	bne.n	ac70 <setvbuf+0x13c>
    abd2:	f8dd 9000 	ldr.w	r9, [sp]
    abd6:	45a9      	cmp	r9, r5
    abd8:	d13c      	bne.n	ac54 <setvbuf+0x120>
    abda:	f04f 30ff 	mov.w	r0, #4294967295
    abde:	89a3      	ldrh	r3, [r4, #12]
    abe0:	f043 0302 	orr.w	r3, r3, #2
    abe4:	81a3      	strh	r3, [r4, #12]
    abe6:	2300      	movs	r3, #0
    abe8:	60a3      	str	r3, [r4, #8]
    abea:	f104 0347 	add.w	r3, r4, #71	; 0x47
    abee:	6023      	str	r3, [r4, #0]
    abf0:	6123      	str	r3, [r4, #16]
    abf2:	2301      	movs	r3, #1
    abf4:	6163      	str	r3, [r4, #20]
    abf6:	b003      	add	sp, #12
    abf8:	e8bd 83f0 	ldmia.w	sp!, {r4, r5, r6, r7, r8, r9, pc}
    abfc:	4b22      	ldr	r3, [pc, #136]	; (ac88 <setvbuf+0x154>)
    abfe:	429c      	cmp	r4, r3
    ac00:	d101      	bne.n	ac06 <setvbuf+0xd2>
    ac02:	68b4      	ldr	r4, [r6, #8]
    ac04:	e7a8      	b.n	ab58 <setvbuf+0x24>
    ac06:	4b21      	ldr	r3, [pc, #132]	; (ac8c <setvbuf+0x158>)
    ac08:	429c      	cmp	r4, r3
    ac0a:	bf08      	it	eq
    ac0c:	68f4      	ldreq	r4, [r6, #12]
    ac0e:	e7a3      	b.n	ab58 <setvbuf+0x24>
    ac10:	2f00      	cmp	r7, #0
    ac12:	d0d8      	beq.n	abc6 <setvbuf+0x92>
    ac14:	69b3      	ldr	r3, [r6, #24]
    ac16:	b913      	cbnz	r3, ac1e <setvbuf+0xea>
    ac18:	4630      	mov	r0, r6
    ac1a:	f000 f9eb 	bl	aff4 <__sinit>
    ac1e:	f1b8 0f01 	cmp.w	r8, #1
    ac22:	bf08      	it	eq
    ac24:	89a3      	ldrheq	r3, [r4, #12]
    ac26:	6027      	str	r7, [r4, #0]
    ac28:	bf04      	itt	eq
    ac2a:	f043 0301 	orreq.w	r3, r3, #1
    ac2e:	81a3      	strheq	r3, [r4, #12]
    ac30:	89a3      	ldrh	r3, [r4, #12]
    ac32:	6127      	str	r7, [r4, #16]
    ac34:	f013 0008 	ands.w	r0, r3, #8
    ac38:	6165      	str	r5, [r4, #20]
    ac3a:	d01b      	beq.n	ac74 <setvbuf+0x140>
    ac3c:	f013 0001 	ands.w	r0, r3, #1
    ac40:	bf18      	it	ne
    ac42:	426d      	negne	r5, r5
    ac44:	f04f 0300 	mov.w	r3, #0
    ac48:	bf1d      	ittte	ne
    ac4a:	60a3      	strne	r3, [r4, #8]
    ac4c:	61a5      	strne	r5, [r4, #24]
    ac4e:	4618      	movne	r0, r3
    ac50:	60a5      	streq	r5, [r4, #8]
    ac52:	e7d0      	b.n	abf6 <setvbuf+0xc2>
    ac54:	4648      	mov	r0, r9
    ac56:	f7ff fe03 	bl	a860 <malloc>
    ac5a:	4607      	mov	r7, r0
    ac5c:	2800      	cmp	r0, #0
    ac5e:	d0bc      	beq.n	abda <setvbuf+0xa6>
    ac60:	89a3      	ldrh	r3, [r4, #12]
    ac62:	f043 0380 	orr.w	r3, r3, #128	; 0x80
    ac66:	81a3      	strh	r3, [r4, #12]
    ac68:	464d      	mov	r5, r9
    ac6a:	e7d3      	b.n	ac14 <setvbuf+0xe0>
    ac6c:	2000      	movs	r0, #0
    ac6e:	e7b6      	b.n	abde <setvbuf+0xaa>
    ac70:	46a9      	mov	r9, r5
    ac72:	e7f5      	b.n	ac60 <setvbuf+0x12c>
    ac74:	60a0      	str	r0, [r4, #8]
    ac76:	e7be      	b.n	abf6 <setvbuf+0xc2>
    ac78:	f04f 30ff 	mov.w	r0, #4294967295
    ac7c:	e7bb      	b.n	abf6 <setvbuf+0xc2>
    ac7e:	bf00      	nop
    ac80:	20000050 	.word	0x20000050
    ac84:	0000bc34 	.word	0x0000bc34
    ac88:	0000bc54 	.word	0x0000bc54
    ac8c:	0000bc14 	.word	0x0000bc14

0000ac90 <__swbuf_r>:
    ac90:	b5f8      	push	{r3, r4, r5, r6, r7, lr}
    ac92:	460e      	mov	r6, r1
    ac94:	4614      	mov	r4, r2
    ac96:	4605      	mov	r5, r0
    ac98:	b118      	cbz	r0, aca2 <__swbuf_r+0x12>
    ac9a:	6983      	ldr	r3, [r0, #24]
    ac9c:	b90b      	cbnz	r3, aca2 <__swbuf_r+0x12>
    ac9e:	f000 f9a9 	bl	aff4 <__sinit>
    aca2:	4b21      	ldr	r3, [pc, #132]	; (ad28 <__swbuf_r+0x98>)
    aca4:	429c      	cmp	r4, r3
    aca6:	d12a      	bne.n	acfe <__swbuf_r+0x6e>
    aca8:	686c      	ldr	r4, [r5, #4]
    acaa:	69a3      	ldr	r3, [r4, #24]
    acac:	60a3      	str	r3, [r4, #8]
    acae:	89a3      	ldrh	r3, [r4, #12]
    acb0:	071a      	lsls	r2, r3, #28
    acb2:	d52e      	bpl.n	ad12 <__swbuf_r+0x82>
    acb4:	6923      	ldr	r3, [r4, #16]
    acb6:	b363      	cbz	r3, ad12 <__swbuf_r+0x82>
    acb8:	6923      	ldr	r3, [r4, #16]
    acba:	6820      	ldr	r0, [r4, #0]
    acbc:	1ac0      	subs	r0, r0, r3
    acbe:	6963      	ldr	r3, [r4, #20]
    acc0:	b2f6      	uxtb	r6, r6
    acc2:	4298      	cmp	r0, r3
    acc4:	4637      	mov	r7, r6
    acc6:	db04      	blt.n	acd2 <__swbuf_r+0x42>
    acc8:	4621      	mov	r1, r4
    acca:	4628      	mov	r0, r5
    accc:	f000 f928 	bl	af20 <_fflush_r>
    acd0:	bb28      	cbnz	r0, ad1e <__swbuf_r+0x8e>
    acd2:	68a3      	ldr	r3, [r4, #8]
    acd4:	3b01      	subs	r3, #1
    acd6:	60a3      	str	r3, [r4, #8]
    acd8:	6823      	ldr	r3, [r4, #0]
    acda:	1c5a      	adds	r2, r3, #1
    acdc:	6022      	str	r2, [r4, #0]
    acde:	701e      	strb	r6, [r3, #0]
    ace0:	6963      	ldr	r3, [r4, #20]
    ace2:	3001      	adds	r0, #1
    ace4:	4298      	cmp	r0, r3
    ace6:	d004      	beq.n	acf2 <__swbuf_r+0x62>
    ace8:	89a3      	ldrh	r3, [r4, #12]
    acea:	07db      	lsls	r3, r3, #31
    acec:	d519      	bpl.n	ad22 <__swbuf_r+0x92>
    acee:	2e0a      	cmp	r6, #10
    acf0:	d117      	bne.n	ad22 <__swbuf_r+0x92>
    acf2:	4621      	mov	r1, r4
    acf4:	4628      	mov	r0, r5
    acf6:	f000 f913 	bl	af20 <_fflush_r>
    acfa:	b190      	cbz	r0, ad22 <__swbuf_r+0x92>
    acfc:	e00f      	b.n	ad1e <__swbuf_r+0x8e>
    acfe:	4b0b      	ldr	r3, [pc, #44]	; (ad2c <__swbuf_r+0x9c>)
    ad00:	429c      	cmp	r4, r3
    ad02:	d101      	bne.n	ad08 <__swbuf_r+0x78>
    ad04:	68ac      	ldr	r4, [r5, #8]
    ad06:	e7d0      	b.n	acaa <__swbuf_r+0x1a>
    ad08:	4b09      	ldr	r3, [pc, #36]	; (ad30 <__swbuf_r+0xa0>)
    ad0a:	429c      	cmp	r4, r3
    ad0c:	bf08      	it	eq
    ad0e:	68ec      	ldreq	r4, [r5, #12]
    ad10:	e7cb      	b.n	acaa <__swbuf_r+0x1a>
    ad12:	4621      	mov	r1, r4
    ad14:	4628      	mov	r0, r5
    ad16:	f000 f80d 	bl	ad34 <__swsetup_r>
    ad1a:	2800      	cmp	r0, #0
    ad1c:	d0cc      	beq.n	acb8 <__swbuf_r+0x28>
    ad1e:	f04f 37ff 	mov.w	r7, #4294967295
    ad22:	4638      	mov	r0, r7
    ad24:	bdf8      	pop	{r3, r4, r5, r6, r7, pc}
    ad26:	bf00      	nop
    ad28:	0000bc34 	.word	0x0000bc34
    ad2c:	0000bc54 	.word	0x0000bc54
    ad30:	0000bc14 	.word	0x0000bc14

0000ad34 <__swsetup_r>:
    ad34:	4b32      	ldr	r3, [pc, #200]	; (ae00 <__swsetup_r+0xcc>)
    ad36:	b570      	push	{r4, r5, r6, lr}
    ad38:	681d      	ldr	r5, [r3, #0]
    ad3a:	4606      	mov	r6, r0
    ad3c:	460c      	mov	r4, r1
    ad3e:	b125      	cbz	r5, ad4a <__swsetup_r+0x16>
    ad40:	69ab      	ldr	r3, [r5, #24]
    ad42:	b913      	cbnz	r3, ad4a <__swsetup_r+0x16>
    ad44:	4628      	mov	r0, r5
    ad46:	f000 f955 	bl	aff4 <__sinit>
    ad4a:	4b2e      	ldr	r3, [pc, #184]	; (ae04 <__swsetup_r+0xd0>)
    ad4c:	429c      	cmp	r4, r3
    ad4e:	d10f      	bne.n	ad70 <__swsetup_r+0x3c>
    ad50:	686c      	ldr	r4, [r5, #4]
    ad52:	f9b4 300c 	ldrsh.w	r3, [r4, #12]
    ad56:	b29a      	uxth	r2, r3
    ad58:	0715      	lsls	r5, r2, #28
    ad5a:	d42c      	bmi.n	adb6 <__swsetup_r+0x82>
    ad5c:	06d0      	lsls	r0, r2, #27
    ad5e:	d411      	bmi.n	ad84 <__swsetup_r+0x50>
    ad60:	2209      	movs	r2, #9
    ad62:	6032      	str	r2, [r6, #0]
    ad64:	f043 0340 	orr.w	r3, r3, #64	; 0x40
    ad68:	81a3      	strh	r3, [r4, #12]
    ad6a:	f04f 30ff 	mov.w	r0, #4294967295
    ad6e:	bd70      	pop	{r4, r5, r6, pc}
    ad70:	4b25      	ldr	r3, [pc, #148]	; (ae08 <__swsetup_r+0xd4>)
    ad72:	429c      	cmp	r4, r3
    ad74:	d101      	bne.n	ad7a <__swsetup_r+0x46>
    ad76:	68ac      	ldr	r4, [r5, #8]
    ad78:	e7eb      	b.n	ad52 <__swsetup_r+0x1e>
    ad7a:	4b24      	ldr	r3, [pc, #144]	; (ae0c <__swsetup_r+0xd8>)
    ad7c:	429c      	cmp	r4, r3
    ad7e:	bf08      	it	eq
    ad80:	68ec      	ldreq	r4, [r5, #12]
    ad82:	e7e6      	b.n	ad52 <__swsetup_r+0x1e>
    ad84:	0751      	lsls	r1, r2, #29
    ad86:	d512      	bpl.n	adae <__swsetup_r+0x7a>
    ad88:	6b61      	ldr	r1, [r4, #52]	; 0x34
    ad8a:	b141      	cbz	r1, ad9e <__swsetup_r+0x6a>
    ad8c:	f104 0344 	add.w	r3, r4, #68	; 0x44
    ad90:	4299      	cmp	r1, r3
    ad92:	d002      	beq.n	ad9a <__swsetup_r+0x66>
    ad94:	4630      	mov	r0, r6
    ad96:	f7ff fd8d 	bl	a8b4 <_free_r>
    ad9a:	2300      	movs	r3, #0
    ad9c:	6363      	str	r3, [r4, #52]	; 0x34
    ad9e:	89a3      	ldrh	r3, [r4, #12]
    ada0:	f023 0324 	bic.w	r3, r3, #36	; 0x24
    ada4:	81a3      	strh	r3, [r4, #12]
    ada6:	2300      	movs	r3, #0
    ada8:	6063      	str	r3, [r4, #4]
    adaa:	6923      	ldr	r3, [r4, #16]
    adac:	6023      	str	r3, [r4, #0]
    adae:	89a3      	ldrh	r3, [r4, #12]
    adb0:	f043 0308 	orr.w	r3, r3, #8
    adb4:	81a3      	strh	r3, [r4, #12]
    adb6:	6923      	ldr	r3, [r4, #16]
    adb8:	b94b      	cbnz	r3, adce <__swsetup_r+0x9a>
    adba:	89a3      	ldrh	r3, [r4, #12]
    adbc:	f403 7320 	and.w	r3, r3, #640	; 0x280
    adc0:	f5b3 7f00 	cmp.w	r3, #512	; 0x200
    adc4:	d003      	beq.n	adce <__swsetup_r+0x9a>
    adc6:	4621      	mov	r1, r4
    adc8:	4630      	mov	r0, r6
    adca:	f000 f9c1 	bl	b150 <__smakebuf_r>
    adce:	89a2      	ldrh	r2, [r4, #12]
    add0:	f012 0301 	ands.w	r3, r2, #1
    add4:	d00c      	beq.n	adf0 <__swsetup_r+0xbc>
    add6:	2300      	movs	r3, #0
    add8:	60a3      	str	r3, [r4, #8]
    adda:	6963      	ldr	r3, [r4, #20]
    addc:	425b      	negs	r3, r3
    adde:	61a3      	str	r3, [r4, #24]
    ade0:	6923      	ldr	r3, [r4, #16]
    ade2:	b953      	cbnz	r3, adfa <__swsetup_r+0xc6>
    ade4:	f9b4 300c 	ldrsh.w	r3, [r4, #12]
    ade8:	f013 0080 	ands.w	r0, r3, #128	; 0x80
    adec:	d1ba      	bne.n	ad64 <__swsetup_r+0x30>
    adee:	bd70      	pop	{r4, r5, r6, pc}
    adf0:	0792      	lsls	r2, r2, #30
    adf2:	bf58      	it	pl
    adf4:	6963      	ldrpl	r3, [r4, #20]
    adf6:	60a3      	str	r3, [r4, #8]
    adf8:	e7f2      	b.n	ade0 <__swsetup_r+0xac>
    adfa:	2000      	movs	r0, #0
    adfc:	e7f7      	b.n	adee <__swsetup_r+0xba>
    adfe:	bf00      	nop
    ae00:	20000050 	.word	0x20000050
    ae04:	0000bc34 	.word	0x0000bc34
    ae08:	0000bc54 	.word	0x0000bc54
    ae0c:	0000bc14 	.word	0x0000bc14

0000ae10 <__sflush_r>:
    ae10:	898a      	ldrh	r2, [r1, #12]
    ae12:	e92d 41f0 	stmdb	sp!, {r4, r5, r6, r7, r8, lr}
    ae16:	4605      	mov	r5, r0
    ae18:	0710      	lsls	r0, r2, #28
    ae1a:	460c      	mov	r4, r1
    ae1c:	d45a      	bmi.n	aed4 <__sflush_r+0xc4>
    ae1e:	684b      	ldr	r3, [r1, #4]
    ae20:	2b00      	cmp	r3, #0
    ae22:	dc05      	bgt.n	ae30 <__sflush_r+0x20>
    ae24:	6c0b      	ldr	r3, [r1, #64]	; 0x40
    ae26:	2b00      	cmp	r3, #0
    ae28:	dc02      	bgt.n	ae30 <__sflush_r+0x20>
    ae2a:	2000      	movs	r0, #0
    ae2c:	e8bd 81f0 	ldmia.w	sp!, {r4, r5, r6, r7, r8, pc}
    ae30:	6ae6      	ldr	r6, [r4, #44]	; 0x2c
    ae32:	2e00      	cmp	r6, #0
    ae34:	d0f9      	beq.n	ae2a <__sflush_r+0x1a>
    ae36:	2300      	movs	r3, #0
    ae38:	f412 5280 	ands.w	r2, r2, #4096	; 0x1000
    ae3c:	682f      	ldr	r7, [r5, #0]
    ae3e:	602b      	str	r3, [r5, #0]
    ae40:	d033      	beq.n	aeaa <__sflush_r+0x9a>
    ae42:	6d60      	ldr	r0, [r4, #84]	; 0x54
    ae44:	89a3      	ldrh	r3, [r4, #12]
    ae46:	075a      	lsls	r2, r3, #29
    ae48:	d505      	bpl.n	ae56 <__sflush_r+0x46>
    ae4a:	6863      	ldr	r3, [r4, #4]
    ae4c:	1ac0      	subs	r0, r0, r3
    ae4e:	6b63      	ldr	r3, [r4, #52]	; 0x34
    ae50:	b10b      	cbz	r3, ae56 <__sflush_r+0x46>
    ae52:	6c23      	ldr	r3, [r4, #64]	; 0x40
    ae54:	1ac0      	subs	r0, r0, r3
    ae56:	2300      	movs	r3, #0
    ae58:	4602      	mov	r2, r0
    ae5a:	6ae6      	ldr	r6, [r4, #44]	; 0x2c
    ae5c:	6a21      	ldr	r1, [r4, #32]
    ae5e:	4628      	mov	r0, r5
    ae60:	47b0      	blx	r6
    ae62:	1c43      	adds	r3, r0, #1
    ae64:	89a3      	ldrh	r3, [r4, #12]
    ae66:	d106      	bne.n	ae76 <__sflush_r+0x66>
    ae68:	6829      	ldr	r1, [r5, #0]
    ae6a:	291d      	cmp	r1, #29
    ae6c:	d84b      	bhi.n	af06 <__sflush_r+0xf6>
    ae6e:	4a2b      	ldr	r2, [pc, #172]	; (af1c <__sflush_r+0x10c>)
    ae70:	40ca      	lsrs	r2, r1
    ae72:	07d6      	lsls	r6, r2, #31
    ae74:	d547      	bpl.n	af06 <__sflush_r+0xf6>
    ae76:	2200      	movs	r2, #0
    ae78:	6062      	str	r2, [r4, #4]
    ae7a:	04d9      	lsls	r1, r3, #19
    ae7c:	6922      	ldr	r2, [r4, #16]
    ae7e:	6022      	str	r2, [r4, #0]
    ae80:	d504      	bpl.n	ae8c <__sflush_r+0x7c>
    ae82:	1c42      	adds	r2, r0, #1
    ae84:	d101      	bne.n	ae8a <__sflush_r+0x7a>
    ae86:	682b      	ldr	r3, [r5, #0]
    ae88:	b903      	cbnz	r3, ae8c <__sflush_r+0x7c>
    ae8a:	6560      	str	r0, [r4, #84]	; 0x54
    ae8c:	6b61      	ldr	r1, [r4, #52]	; 0x34
    ae8e:	602f      	str	r7, [r5, #0]
    ae90:	2900      	cmp	r1, #0
    ae92:	d0ca      	beq.n	ae2a <__sflush_r+0x1a>
    ae94:	f104 0344 	add.w	r3, r4, #68	; 0x44
    ae98:	4299      	cmp	r1, r3
    ae9a:	d002      	beq.n	aea2 <__sflush_r+0x92>
    ae9c:	4628      	mov	r0, r5
    ae9e:	f7ff fd09 	bl	a8b4 <_free_r>
    aea2:	2000      	movs	r0, #0
    aea4:	6360      	str	r0, [r4, #52]	; 0x34
    aea6:	e8bd 81f0 	ldmia.w	sp!, {r4, r5, r6, r7, r8, pc}
    aeaa:	6a21      	ldr	r1, [r4, #32]
    aeac:	2301      	movs	r3, #1
    aeae:	4628      	mov	r0, r5
    aeb0:	47b0      	blx	r6
    aeb2:	1c41      	adds	r1, r0, #1
    aeb4:	d1c6      	bne.n	ae44 <__sflush_r+0x34>
    aeb6:	682b      	ldr	r3, [r5, #0]
    aeb8:	2b00      	cmp	r3, #0
    aeba:	d0c3      	beq.n	ae44 <__sflush_r+0x34>
    aebc:	2b1d      	cmp	r3, #29
    aebe:	d001      	beq.n	aec4 <__sflush_r+0xb4>
    aec0:	2b16      	cmp	r3, #22
    aec2:	d101      	bne.n	aec8 <__sflush_r+0xb8>
    aec4:	602f      	str	r7, [r5, #0]
    aec6:	e7b0      	b.n	ae2a <__sflush_r+0x1a>
    aec8:	89a3      	ldrh	r3, [r4, #12]
    aeca:	f043 0340 	orr.w	r3, r3, #64	; 0x40
    aece:	81a3      	strh	r3, [r4, #12]
    aed0:	e8bd 81f0 	ldmia.w	sp!, {r4, r5, r6, r7, r8, pc}
    aed4:	690f      	ldr	r7, [r1, #16]
    aed6:	2f00      	cmp	r7, #0
    aed8:	d0a7      	beq.n	ae2a <__sflush_r+0x1a>
    aeda:	0793      	lsls	r3, r2, #30
    aedc:	680e      	ldr	r6, [r1, #0]
    aede:	bf08      	it	eq
    aee0:	694b      	ldreq	r3, [r1, #20]
    aee2:	600f      	str	r7, [r1, #0]
    aee4:	bf18      	it	ne
    aee6:	2300      	movne	r3, #0
    aee8:	eba6 0807 	sub.w	r8, r6, r7
    aeec:	608b      	str	r3, [r1, #8]
    aeee:	f1b8 0f00 	cmp.w	r8, #0
    aef2:	dd9a      	ble.n	ae2a <__sflush_r+0x1a>
    aef4:	4643      	mov	r3, r8
    aef6:	463a      	mov	r2, r7
    aef8:	6a21      	ldr	r1, [r4, #32]
    aefa:	6aa6      	ldr	r6, [r4, #40]	; 0x28
    aefc:	4628      	mov	r0, r5
    aefe:	47b0      	blx	r6
    af00:	2800      	cmp	r0, #0
    af02:	dc07      	bgt.n	af14 <__sflush_r+0x104>
    af04:	89a3      	ldrh	r3, [r4, #12]
    af06:	f043 0340 	orr.w	r3, r3, #64	; 0x40
    af0a:	81a3      	strh	r3, [r4, #12]
    af0c:	f04f 30ff 	mov.w	r0, #4294967295
    af10:	e8bd 81f0 	ldmia.w	sp!, {r4, r5, r6, r7, r8, pc}
    af14:	4407      	add	r7, r0
    af16:	eba8 0800 	sub.w	r8, r8, r0
    af1a:	e7e8      	b.n	aeee <__sflush_r+0xde>
    af1c:	20400001 	.word	0x20400001

0000af20 <_fflush_r>:
    af20:	b538      	push	{r3, r4, r5, lr}
    af22:	690b      	ldr	r3, [r1, #16]
    af24:	4605      	mov	r5, r0
    af26:	460c      	mov	r4, r1
    af28:	b1db      	cbz	r3, af62 <_fflush_r+0x42>
    af2a:	b118      	cbz	r0, af34 <_fflush_r+0x14>
    af2c:	6983      	ldr	r3, [r0, #24]
    af2e:	b90b      	cbnz	r3, af34 <_fflush_r+0x14>
    af30:	f000 f860 	bl	aff4 <__sinit>
    af34:	4b0c      	ldr	r3, [pc, #48]	; (af68 <_fflush_r+0x48>)
    af36:	429c      	cmp	r4, r3
    af38:	d109      	bne.n	af4e <_fflush_r+0x2e>
    af3a:	686c      	ldr	r4, [r5, #4]
    af3c:	f9b4 300c 	ldrsh.w	r3, [r4, #12]
    af40:	b17b      	cbz	r3, af62 <_fflush_r+0x42>
    af42:	4621      	mov	r1, r4
    af44:	4628      	mov	r0, r5
    af46:	e8bd 4038 	ldmia.w	sp!, {r3, r4, r5, lr}
    af4a:	f7ff bf61 	b.w	ae10 <__sflush_r>
    af4e:	4b07      	ldr	r3, [pc, #28]	; (af6c <_fflush_r+0x4c>)
    af50:	429c      	cmp	r4, r3
    af52:	d101      	bne.n	af58 <_fflush_r+0x38>
    af54:	68ac      	ldr	r4, [r5, #8]
    af56:	e7f1      	b.n	af3c <_fflush_r+0x1c>
    af58:	4b05      	ldr	r3, [pc, #20]	; (af70 <_fflush_r+0x50>)
    af5a:	429c      	cmp	r4, r3
    af5c:	bf08      	it	eq
    af5e:	68ec      	ldreq	r4, [r5, #12]
    af60:	e7ec      	b.n	af3c <_fflush_r+0x1c>
    af62:	2000      	movs	r0, #0
    af64:	bd38      	pop	{r3, r4, r5, pc}
    af66:	bf00      	nop
    af68:	0000bc34 	.word	0x0000bc34
    af6c:	0000bc54 	.word	0x0000bc54
    af70:	0000bc14 	.word	0x0000bc14

0000af74 <_cleanup_r>:
    af74:	4901      	ldr	r1, [pc, #4]	; (af7c <_cleanup_r+0x8>)
    af76:	f000 b8a9 	b.w	b0cc <_fwalk_reent>
    af7a:	bf00      	nop
    af7c:	0000af21 	.word	0x0000af21

0000af80 <std.isra.0>:
    af80:	2300      	movs	r3, #0
    af82:	b510      	push	{r4, lr}
    af84:	4604      	mov	r4, r0
    af86:	6003      	str	r3, [r0, #0]
    af88:	6043      	str	r3, [r0, #4]
    af8a:	6083      	str	r3, [r0, #8]
    af8c:	8181      	strh	r1, [r0, #12]
    af8e:	6643      	str	r3, [r0, #100]	; 0x64
    af90:	81c2      	strh	r2, [r0, #14]
    af92:	6103      	str	r3, [r0, #16]
    af94:	6143      	str	r3, [r0, #20]
    af96:	6183      	str	r3, [r0, #24]
    af98:	4619      	mov	r1, r3
    af9a:	2208      	movs	r2, #8
    af9c:	305c      	adds	r0, #92	; 0x5c
    af9e:	f7ff fc81 	bl	a8a4 <memset>
    afa2:	4b05      	ldr	r3, [pc, #20]	; (afb8 <std.isra.0+0x38>)
    afa4:	6263      	str	r3, [r4, #36]	; 0x24
    afa6:	4b05      	ldr	r3, [pc, #20]	; (afbc <std.isra.0+0x3c>)
    afa8:	62a3      	str	r3, [r4, #40]	; 0x28
    afaa:	4b05      	ldr	r3, [pc, #20]	; (afc0 <std.isra.0+0x40>)
    afac:	62e3      	str	r3, [r4, #44]	; 0x2c
    afae:	4b05      	ldr	r3, [pc, #20]	; (afc4 <std.isra.0+0x44>)
    afb0:	6224      	str	r4, [r4, #32]
    afb2:	6323      	str	r3, [r4, #48]	; 0x30
    afb4:	bd10      	pop	{r4, pc}
    afb6:	bf00      	nop
    afb8:	0000b77d 	.word	0x0000b77d
    afbc:	0000b79f 	.word	0x0000b79f
    afc0:	0000b7d7 	.word	0x0000b7d7
    afc4:	0000b7fb 	.word	0x0000b7fb

0000afc8 <__sfmoreglue>:
    afc8:	b570      	push	{r4, r5, r6, lr}
    afca:	1e4a      	subs	r2, r1, #1
    afcc:	2568      	movs	r5, #104	; 0x68
    afce:	4355      	muls	r5, r2
    afd0:	460e      	mov	r6, r1
    afd2:	f105 0174 	add.w	r1, r5, #116	; 0x74
    afd6:	f7ff fcbb 	bl	a950 <_malloc_r>
    afda:	4604      	mov	r4, r0
    afdc:	b140      	cbz	r0, aff0 <__sfmoreglue+0x28>
    afde:	2100      	movs	r1, #0
    afe0:	e880 0042 	stmia.w	r0, {r1, r6}
    afe4:	300c      	adds	r0, #12
    afe6:	60a0      	str	r0, [r4, #8]
    afe8:	f105 0268 	add.w	r2, r5, #104	; 0x68
    afec:	f7ff fc5a 	bl	a8a4 <memset>
    aff0:	4620      	mov	r0, r4
    aff2:	bd70      	pop	{r4, r5, r6, pc}

0000aff4 <__sinit>:
    aff4:	6983      	ldr	r3, [r0, #24]
    aff6:	b510      	push	{r4, lr}
    aff8:	4604      	mov	r4, r0
    affa:	bb33      	cbnz	r3, b04a <__sinit+0x56>
    affc:	6483      	str	r3, [r0, #72]	; 0x48
    affe:	64c3      	str	r3, [r0, #76]	; 0x4c
    b000:	6503      	str	r3, [r0, #80]	; 0x50
    b002:	4b12      	ldr	r3, [pc, #72]	; (b04c <__sinit+0x58>)
    b004:	4a12      	ldr	r2, [pc, #72]	; (b050 <__sinit+0x5c>)
    b006:	681b      	ldr	r3, [r3, #0]
    b008:	6282      	str	r2, [r0, #40]	; 0x28
    b00a:	4298      	cmp	r0, r3
    b00c:	bf04      	itt	eq
    b00e:	2301      	moveq	r3, #1
    b010:	6183      	streq	r3, [r0, #24]
    b012:	f000 f81f 	bl	b054 <__sfp>
    b016:	6060      	str	r0, [r4, #4]
    b018:	4620      	mov	r0, r4
    b01a:	f000 f81b 	bl	b054 <__sfp>
    b01e:	60a0      	str	r0, [r4, #8]
    b020:	4620      	mov	r0, r4
    b022:	f000 f817 	bl	b054 <__sfp>
    b026:	2200      	movs	r2, #0
    b028:	60e0      	str	r0, [r4, #12]
    b02a:	2104      	movs	r1, #4
    b02c:	6860      	ldr	r0, [r4, #4]
    b02e:	f7ff ffa7 	bl	af80 <std.isra.0>
    b032:	2201      	movs	r2, #1
    b034:	2109      	movs	r1, #9
    b036:	68a0      	ldr	r0, [r4, #8]
    b038:	f7ff ffa2 	bl	af80 <std.isra.0>
    b03c:	2202      	movs	r2, #2
    b03e:	2112      	movs	r1, #18
    b040:	68e0      	ldr	r0, [r4, #12]
    b042:	f7ff ff9d 	bl	af80 <std.isra.0>
    b046:	2301      	movs	r3, #1
    b048:	61a3      	str	r3, [r4, #24]
    b04a:	bd10      	pop	{r4, pc}
    b04c:	0000bc10 	.word	0x0000bc10
    b050:	0000af75 	.word	0x0000af75

0000b054 <__sfp>:
    b054:	b5f8      	push	{r3, r4, r5, r6, r7, lr}
    b056:	4b1c      	ldr	r3, [pc, #112]	; (b0c8 <__sfp+0x74>)
    b058:	681e      	ldr	r6, [r3, #0]
    b05a:	69b3      	ldr	r3, [r6, #24]
    b05c:	4607      	mov	r7, r0
    b05e:	b913      	cbnz	r3, b066 <__sfp+0x12>
    b060:	4630      	mov	r0, r6
    b062:	f7ff ffc7 	bl	aff4 <__sinit>
    b066:	3648      	adds	r6, #72	; 0x48
    b068:	68b4      	ldr	r4, [r6, #8]
    b06a:	6873      	ldr	r3, [r6, #4]
    b06c:	3b01      	subs	r3, #1
    b06e:	d503      	bpl.n	b078 <__sfp+0x24>
    b070:	6833      	ldr	r3, [r6, #0]
    b072:	b133      	cbz	r3, b082 <__sfp+0x2e>
    b074:	6836      	ldr	r6, [r6, #0]
    b076:	e7f7      	b.n	b068 <__sfp+0x14>
    b078:	f9b4 500c 	ldrsh.w	r5, [r4, #12]
    b07c:	b16d      	cbz	r5, b09a <__sfp+0x46>
    b07e:	3468      	adds	r4, #104	; 0x68
    b080:	e7f4      	b.n	b06c <__sfp+0x18>
    b082:	2104      	movs	r1, #4
    b084:	4638      	mov	r0, r7
    b086:	f7ff ff9f 	bl	afc8 <__sfmoreglue>
    b08a:	6030      	str	r0, [r6, #0]
    b08c:	2800      	cmp	r0, #0
    b08e:	d1f1      	bne.n	b074 <__sfp+0x20>
    b090:	230c      	movs	r3, #12
    b092:	603b      	str	r3, [r7, #0]
    b094:	4604      	mov	r4, r0
    b096:	4620      	mov	r0, r4
    b098:	bdf8      	pop	{r3, r4, r5, r6, r7, pc}
    b09a:	f64f 73ff 	movw	r3, #65535	; 0xffff
    b09e:	81e3      	strh	r3, [r4, #14]
    b0a0:	2301      	movs	r3, #1
    b0a2:	81a3      	strh	r3, [r4, #12]
    b0a4:	6665      	str	r5, [r4, #100]	; 0x64
    b0a6:	6025      	str	r5, [r4, #0]
    b0a8:	60a5      	str	r5, [r4, #8]
    b0aa:	6065      	str	r5, [r4, #4]
    b0ac:	6125      	str	r5, [r4, #16]
    b0ae:	6165      	str	r5, [r4, #20]
    b0b0:	61a5      	str	r5, [r4, #24]
    b0b2:	2208      	movs	r2, #8
    b0b4:	4629      	mov	r1, r5
    b0b6:	f104 005c 	add.w	r0, r4, #92	; 0x5c
    b0ba:	f7ff fbf3 	bl	a8a4 <memset>
    b0be:	6365      	str	r5, [r4, #52]	; 0x34
    b0c0:	63a5      	str	r5, [r4, #56]	; 0x38
    b0c2:	64a5      	str	r5, [r4, #72]	; 0x48
    b0c4:	64e5      	str	r5, [r4, #76]	; 0x4c
    b0c6:	e7e6      	b.n	b096 <__sfp+0x42>
    b0c8:	0000bc10 	.word	0x0000bc10

0000b0cc <_fwalk_reent>:
    b0cc:	e92d 43f8 	stmdb	sp!, {r3, r4, r5, r6, r7, r8, r9, lr}
    b0d0:	4680      	mov	r8, r0
    b0d2:	4689      	mov	r9, r1
    b0d4:	f100 0448 	add.w	r4, r0, #72	; 0x48
    b0d8:	2600      	movs	r6, #0
    b0da:	b914      	cbnz	r4, b0e2 <_fwalk_reent+0x16>
    b0dc:	4630      	mov	r0, r6
    b0de:	e8bd 83f8 	ldmia.w	sp!, {r3, r4, r5, r6, r7, r8, r9, pc}
    b0e2:	68a5      	ldr	r5, [r4, #8]
    b0e4:	6867      	ldr	r7, [r4, #4]
    b0e6:	3f01      	subs	r7, #1
    b0e8:	d501      	bpl.n	b0ee <_fwalk_reent+0x22>
    b0ea:	6824      	ldr	r4, [r4, #0]
    b0ec:	e7f5      	b.n	b0da <_fwalk_reent+0xe>
    b0ee:	89ab      	ldrh	r3, [r5, #12]
    b0f0:	2b01      	cmp	r3, #1
    b0f2:	d907      	bls.n	b104 <_fwalk_reent+0x38>
    b0f4:	f9b5 300e 	ldrsh.w	r3, [r5, #14]
    b0f8:	3301      	adds	r3, #1
    b0fa:	d003      	beq.n	b104 <_fwalk_reent+0x38>
    b0fc:	4629      	mov	r1, r5
    b0fe:	4640      	mov	r0, r8
    b100:	47c8      	blx	r9
    b102:	4306      	orrs	r6, r0
    b104:	3568      	adds	r5, #104	; 0x68
    b106:	e7ee      	b.n	b0e6 <_fwalk_reent+0x1a>

0000b108 <__swhatbuf_r>:
    b108:	b570      	push	{r4, r5, r6, lr}
    b10a:	460e      	mov	r6, r1
    b10c:	f9b1 100e 	ldrsh.w	r1, [r1, #14]
    b110:	2900      	cmp	r1, #0
    b112:	b090      	sub	sp, #64	; 0x40
    b114:	4614      	mov	r4, r2
    b116:	461d      	mov	r5, r3
    b118:	da07      	bge.n	b12a <__swhatbuf_r+0x22>
    b11a:	2300      	movs	r3, #0
    b11c:	602b      	str	r3, [r5, #0]
    b11e:	89b3      	ldrh	r3, [r6, #12]
    b120:	061a      	lsls	r2, r3, #24
    b122:	d410      	bmi.n	b146 <__swhatbuf_r+0x3e>
    b124:	f44f 6380 	mov.w	r3, #1024	; 0x400
    b128:	e00e      	b.n	b148 <__swhatbuf_r+0x40>
    b12a:	aa01      	add	r2, sp, #4
    b12c:	f000 fb8c 	bl	b848 <_fstat_r>
    b130:	2800      	cmp	r0, #0
    b132:	dbf2      	blt.n	b11a <__swhatbuf_r+0x12>
    b134:	9a02      	ldr	r2, [sp, #8]
    b136:	f402 4270 	and.w	r2, r2, #61440	; 0xf000
    b13a:	f5a2 5300 	sub.w	r3, r2, #8192	; 0x2000
    b13e:	425a      	negs	r2, r3
    b140:	415a      	adcs	r2, r3
    b142:	602a      	str	r2, [r5, #0]
    b144:	e7ee      	b.n	b124 <__swhatbuf_r+0x1c>
    b146:	2340      	movs	r3, #64	; 0x40
    b148:	2000      	movs	r0, #0
    b14a:	6023      	str	r3, [r4, #0]
    b14c:	b010      	add	sp, #64	; 0x40
    b14e:	bd70      	pop	{r4, r5, r6, pc}

0000b150 <__smakebuf_r>:
    b150:	898b      	ldrh	r3, [r1, #12]
    b152:	b573      	push	{r0, r1, r4, r5, r6, lr}
    b154:	079d      	lsls	r5, r3, #30
    b156:	4606      	mov	r6, r0
    b158:	460c      	mov	r4, r1
    b15a:	d507      	bpl.n	b16c <__smakebuf_r+0x1c>
    b15c:	f104 0347 	add.w	r3, r4, #71	; 0x47
    b160:	6023      	str	r3, [r4, #0]
    b162:	6123      	str	r3, [r4, #16]
    b164:	2301      	movs	r3, #1
    b166:	6163      	str	r3, [r4, #20]
    b168:	b002      	add	sp, #8
    b16a:	bd70      	pop	{r4, r5, r6, pc}
    b16c:	ab01      	add	r3, sp, #4
    b16e:	466a      	mov	r2, sp
    b170:	f7ff ffca 	bl	b108 <__swhatbuf_r>
    b174:	9900      	ldr	r1, [sp, #0]
    b176:	4605      	mov	r5, r0
    b178:	4630      	mov	r0, r6
    b17a:	f7ff fbe9 	bl	a950 <_malloc_r>
    b17e:	b948      	cbnz	r0, b194 <__smakebuf_r+0x44>
    b180:	f9b4 300c 	ldrsh.w	r3, [r4, #12]
    b184:	059a      	lsls	r2, r3, #22
    b186:	d4ef      	bmi.n	b168 <__smakebuf_r+0x18>
    b188:	f023 0303 	bic.w	r3, r3, #3
    b18c:	f043 0302 	orr.w	r3, r3, #2
    b190:	81a3      	strh	r3, [r4, #12]
    b192:	e7e3      	b.n	b15c <__smakebuf_r+0xc>
    b194:	4b0d      	ldr	r3, [pc, #52]	; (b1cc <__smakebuf_r+0x7c>)
    b196:	62b3      	str	r3, [r6, #40]	; 0x28
    b198:	89a3      	ldrh	r3, [r4, #12]
    b19a:	6020      	str	r0, [r4, #0]
    b19c:	f043 0380 	orr.w	r3, r3, #128	; 0x80
    b1a0:	81a3      	strh	r3, [r4, #12]
    b1a2:	9b00      	ldr	r3, [sp, #0]
    b1a4:	6163      	str	r3, [r4, #20]
    b1a6:	9b01      	ldr	r3, [sp, #4]
    b1a8:	6120      	str	r0, [r4, #16]
    b1aa:	b15b      	cbz	r3, b1c4 <__smakebuf_r+0x74>
    b1ac:	f9b4 100e 	ldrsh.w	r1, [r4, #14]
    b1b0:	4630      	mov	r0, r6
    b1b2:	f000 fb5b 	bl	b86c <_isatty_r>
    b1b6:	b128      	cbz	r0, b1c4 <__smakebuf_r+0x74>
    b1b8:	89a3      	ldrh	r3, [r4, #12]
    b1ba:	f023 0303 	bic.w	r3, r3, #3
    b1be:	f043 0301 	orr.w	r3, r3, #1
    b1c2:	81a3      	strh	r3, [r4, #12]
    b1c4:	89a3      	ldrh	r3, [r4, #12]
    b1c6:	431d      	orrs	r5, r3
    b1c8:	81a5      	strh	r5, [r4, #12]
    b1ca:	e7cd      	b.n	b168 <__smakebuf_r+0x18>
    b1cc:	0000af75 	.word	0x0000af75

0000b1d0 <__malloc_lock>:
    b1d0:	4770      	bx	lr

0000b1d2 <__malloc_unlock>:
    b1d2:	4770      	bx	lr

0000b1d4 <__sfputc_r>:
    b1d4:	6893      	ldr	r3, [r2, #8]
    b1d6:	3b01      	subs	r3, #1
    b1d8:	2b00      	cmp	r3, #0
    b1da:	b410      	push	{r4}
    b1dc:	6093      	str	r3, [r2, #8]
    b1de:	da08      	bge.n	b1f2 <__sfputc_r+0x1e>
    b1e0:	6994      	ldr	r4, [r2, #24]
    b1e2:	42a3      	cmp	r3, r4
    b1e4:	db02      	blt.n	b1ec <__sfputc_r+0x18>
    b1e6:	b2cb      	uxtb	r3, r1
    b1e8:	2b0a      	cmp	r3, #10
    b1ea:	d102      	bne.n	b1f2 <__sfputc_r+0x1e>
    b1ec:	bc10      	pop	{r4}
    b1ee:	f7ff bd4f 	b.w	ac90 <__swbuf_r>
    b1f2:	6813      	ldr	r3, [r2, #0]
    b1f4:	1c58      	adds	r0, r3, #1
    b1f6:	6010      	str	r0, [r2, #0]
    b1f8:	7019      	strb	r1, [r3, #0]
    b1fa:	b2c8      	uxtb	r0, r1
    b1fc:	bc10      	pop	{r4}
    b1fe:	4770      	bx	lr

0000b200 <__sfputs_r>:
    b200:	b5f8      	push	{r3, r4, r5, r6, r7, lr}
    b202:	4606      	mov	r6, r0
    b204:	460f      	mov	r7, r1
    b206:	4614      	mov	r4, r2
    b208:	18d5      	adds	r5, r2, r3
    b20a:	42ac      	cmp	r4, r5
    b20c:	d101      	bne.n	b212 <__sfputs_r+0x12>
    b20e:	2000      	movs	r0, #0
    b210:	e007      	b.n	b222 <__sfputs_r+0x22>
    b212:	463a      	mov	r2, r7
    b214:	f814 1b01 	ldrb.w	r1, [r4], #1
    b218:	4630      	mov	r0, r6
    b21a:	f7ff ffdb 	bl	b1d4 <__sfputc_r>
    b21e:	1c43      	adds	r3, r0, #1
    b220:	d1f3      	bne.n	b20a <__sfputs_r+0xa>
    b222:	bdf8      	pop	{r3, r4, r5, r6, r7, pc}

0000b224 <_vfiprintf_r>:
    b224:	e92d 4ff0 	stmdb	sp!, {r4, r5, r6, r7, r8, r9, sl, fp, lr}
    b228:	b09d      	sub	sp, #116	; 0x74
    b22a:	460c      	mov	r4, r1
    b22c:	4617      	mov	r7, r2
    b22e:	9303      	str	r3, [sp, #12]
    b230:	4606      	mov	r6, r0
    b232:	b118      	cbz	r0, b23c <_vfiprintf_r+0x18>
    b234:	6983      	ldr	r3, [r0, #24]
    b236:	b90b      	cbnz	r3, b23c <_vfiprintf_r+0x18>
    b238:	f7ff fedc 	bl	aff4 <__sinit>
    b23c:	4b7c      	ldr	r3, [pc, #496]	; (b430 <_vfiprintf_r+0x20c>)
    b23e:	429c      	cmp	r4, r3
    b240:	d157      	bne.n	b2f2 <_vfiprintf_r+0xce>
    b242:	6874      	ldr	r4, [r6, #4]
    b244:	89a3      	ldrh	r3, [r4, #12]
    b246:	0718      	lsls	r0, r3, #28
    b248:	d55d      	bpl.n	b306 <_vfiprintf_r+0xe2>
    b24a:	6923      	ldr	r3, [r4, #16]
    b24c:	2b00      	cmp	r3, #0
    b24e:	d05a      	beq.n	b306 <_vfiprintf_r+0xe2>
    b250:	2300      	movs	r3, #0
    b252:	9309      	str	r3, [sp, #36]	; 0x24
    b254:	2320      	movs	r3, #32
    b256:	f88d 3029 	strb.w	r3, [sp, #41]	; 0x29
    b25a:	2330      	movs	r3, #48	; 0x30
    b25c:	f88d 302a 	strb.w	r3, [sp, #42]	; 0x2a
    b260:	f04f 0b01 	mov.w	fp, #1
    b264:	46b8      	mov	r8, r7
    b266:	4645      	mov	r5, r8
    b268:	f815 3b01 	ldrb.w	r3, [r5], #1
    b26c:	2b00      	cmp	r3, #0
    b26e:	d155      	bne.n	b31c <_vfiprintf_r+0xf8>
    b270:	ebb8 0a07 	subs.w	sl, r8, r7
    b274:	d00b      	beq.n	b28e <_vfiprintf_r+0x6a>
    b276:	4653      	mov	r3, sl
    b278:	463a      	mov	r2, r7
    b27a:	4621      	mov	r1, r4
    b27c:	4630      	mov	r0, r6
    b27e:	f7ff ffbf 	bl	b200 <__sfputs_r>
    b282:	3001      	adds	r0, #1
    b284:	f000 80c4 	beq.w	b410 <_vfiprintf_r+0x1ec>
    b288:	9b09      	ldr	r3, [sp, #36]	; 0x24
    b28a:	4453      	add	r3, sl
    b28c:	9309      	str	r3, [sp, #36]	; 0x24
    b28e:	f898 3000 	ldrb.w	r3, [r8]
    b292:	2b00      	cmp	r3, #0
    b294:	f000 80bc 	beq.w	b410 <_vfiprintf_r+0x1ec>
    b298:	2300      	movs	r3, #0
    b29a:	f04f 32ff 	mov.w	r2, #4294967295
    b29e:	9304      	str	r3, [sp, #16]
    b2a0:	9307      	str	r3, [sp, #28]
    b2a2:	9205      	str	r2, [sp, #20]
    b2a4:	9306      	str	r3, [sp, #24]
    b2a6:	f88d 3053 	strb.w	r3, [sp, #83]	; 0x53
    b2aa:	931a      	str	r3, [sp, #104]	; 0x68
    b2ac:	2205      	movs	r2, #5
    b2ae:	7829      	ldrb	r1, [r5, #0]
    b2b0:	4860      	ldr	r0, [pc, #384]	; (b434 <_vfiprintf_r+0x210>)
    b2b2:	f000 fafd 	bl	b8b0 <memchr>
    b2b6:	f105 0801 	add.w	r8, r5, #1
    b2ba:	9b04      	ldr	r3, [sp, #16]
    b2bc:	2800      	cmp	r0, #0
    b2be:	d131      	bne.n	b324 <_vfiprintf_r+0x100>
    b2c0:	06d9      	lsls	r1, r3, #27
    b2c2:	bf44      	itt	mi
    b2c4:	2220      	movmi	r2, #32
    b2c6:	f88d 2053 	strbmi.w	r2, [sp, #83]	; 0x53
    b2ca:	071a      	lsls	r2, r3, #28
    b2cc:	bf44      	itt	mi
    b2ce:	222b      	movmi	r2, #43	; 0x2b
    b2d0:	f88d 2053 	strbmi.w	r2, [sp, #83]	; 0x53
    b2d4:	782a      	ldrb	r2, [r5, #0]
    b2d6:	2a2a      	cmp	r2, #42	; 0x2a
    b2d8:	d02c      	beq.n	b334 <_vfiprintf_r+0x110>
    b2da:	9a07      	ldr	r2, [sp, #28]
    b2dc:	2100      	movs	r1, #0
    b2de:	200a      	movs	r0, #10
    b2e0:	46a8      	mov	r8, r5
    b2e2:	3501      	adds	r5, #1
    b2e4:	f898 3000 	ldrb.w	r3, [r8]
    b2e8:	3b30      	subs	r3, #48	; 0x30
    b2ea:	2b09      	cmp	r3, #9
    b2ec:	d96d      	bls.n	b3ca <_vfiprintf_r+0x1a6>
    b2ee:	b371      	cbz	r1, b34e <_vfiprintf_r+0x12a>
    b2f0:	e026      	b.n	b340 <_vfiprintf_r+0x11c>
    b2f2:	4b51      	ldr	r3, [pc, #324]	; (b438 <_vfiprintf_r+0x214>)
    b2f4:	429c      	cmp	r4, r3
    b2f6:	d101      	bne.n	b2fc <_vfiprintf_r+0xd8>
    b2f8:	68b4      	ldr	r4, [r6, #8]
    b2fa:	e7a3      	b.n	b244 <_vfiprintf_r+0x20>
    b2fc:	4b4f      	ldr	r3, [pc, #316]	; (b43c <_vfiprintf_r+0x218>)
    b2fe:	429c      	cmp	r4, r3
    b300:	bf08      	it	eq
    b302:	68f4      	ldreq	r4, [r6, #12]
    b304:	e79e      	b.n	b244 <_vfiprintf_r+0x20>
    b306:	4621      	mov	r1, r4
    b308:	4630      	mov	r0, r6
    b30a:	f7ff fd13 	bl	ad34 <__swsetup_r>
    b30e:	2800      	cmp	r0, #0
    b310:	d09e      	beq.n	b250 <_vfiprintf_r+0x2c>
    b312:	f04f 30ff 	mov.w	r0, #4294967295
    b316:	b01d      	add	sp, #116	; 0x74
    b318:	e8bd 8ff0 	ldmia.w	sp!, {r4, r5, r6, r7, r8, r9, sl, fp, pc}
    b31c:	2b25      	cmp	r3, #37	; 0x25
    b31e:	d0a7      	beq.n	b270 <_vfiprintf_r+0x4c>
    b320:	46a8      	mov	r8, r5
    b322:	e7a0      	b.n	b266 <_vfiprintf_r+0x42>
    b324:	4a43      	ldr	r2, [pc, #268]	; (b434 <_vfiprintf_r+0x210>)
    b326:	1a80      	subs	r0, r0, r2
    b328:	fa0b f000 	lsl.w	r0, fp, r0
    b32c:	4318      	orrs	r0, r3
    b32e:	9004      	str	r0, [sp, #16]
    b330:	4645      	mov	r5, r8
    b332:	e7bb      	b.n	b2ac <_vfiprintf_r+0x88>
    b334:	9a03      	ldr	r2, [sp, #12]
    b336:	1d11      	adds	r1, r2, #4
    b338:	6812      	ldr	r2, [r2, #0]
    b33a:	9103      	str	r1, [sp, #12]
    b33c:	2a00      	cmp	r2, #0
    b33e:	db01      	blt.n	b344 <_vfiprintf_r+0x120>
    b340:	9207      	str	r2, [sp, #28]
    b342:	e004      	b.n	b34e <_vfiprintf_r+0x12a>
    b344:	4252      	negs	r2, r2
    b346:	f043 0302 	orr.w	r3, r3, #2
    b34a:	9207      	str	r2, [sp, #28]
    b34c:	9304      	str	r3, [sp, #16]
    b34e:	f898 3000 	ldrb.w	r3, [r8]
    b352:	2b2e      	cmp	r3, #46	; 0x2e
    b354:	d110      	bne.n	b378 <_vfiprintf_r+0x154>
    b356:	f898 3001 	ldrb.w	r3, [r8, #1]
    b35a:	2b2a      	cmp	r3, #42	; 0x2a
    b35c:	f108 0101 	add.w	r1, r8, #1
    b360:	d137      	bne.n	b3d2 <_vfiprintf_r+0x1ae>
    b362:	9b03      	ldr	r3, [sp, #12]
    b364:	1d1a      	adds	r2, r3, #4
    b366:	681b      	ldr	r3, [r3, #0]
    b368:	9203      	str	r2, [sp, #12]
    b36a:	2b00      	cmp	r3, #0
    b36c:	bfb8      	it	lt
    b36e:	f04f 33ff 	movlt.w	r3, #4294967295
    b372:	f108 0802 	add.w	r8, r8, #2
    b376:	9305      	str	r3, [sp, #20]
    b378:	4d31      	ldr	r5, [pc, #196]	; (b440 <_vfiprintf_r+0x21c>)
    b37a:	f898 1000 	ldrb.w	r1, [r8]
    b37e:	2203      	movs	r2, #3
    b380:	4628      	mov	r0, r5
    b382:	f000 fa95 	bl	b8b0 <memchr>
    b386:	b140      	cbz	r0, b39a <_vfiprintf_r+0x176>
    b388:	2340      	movs	r3, #64	; 0x40
    b38a:	1b40      	subs	r0, r0, r5
    b38c:	fa03 f000 	lsl.w	r0, r3, r0
    b390:	9b04      	ldr	r3, [sp, #16]
    b392:	4303      	orrs	r3, r0
    b394:	9304      	str	r3, [sp, #16]
    b396:	f108 0801 	add.w	r8, r8, #1
    b39a:	f898 1000 	ldrb.w	r1, [r8]
    b39e:	4829      	ldr	r0, [pc, #164]	; (b444 <_vfiprintf_r+0x220>)
    b3a0:	f88d 1028 	strb.w	r1, [sp, #40]	; 0x28
    b3a4:	2206      	movs	r2, #6
    b3a6:	f108 0701 	add.w	r7, r8, #1
    b3aa:	f000 fa81 	bl	b8b0 <memchr>
    b3ae:	2800      	cmp	r0, #0
    b3b0:	d034      	beq.n	b41c <_vfiprintf_r+0x1f8>
    b3b2:	4b25      	ldr	r3, [pc, #148]	; (b448 <_vfiprintf_r+0x224>)
    b3b4:	bb03      	cbnz	r3, b3f8 <_vfiprintf_r+0x1d4>
    b3b6:	9b03      	ldr	r3, [sp, #12]
    b3b8:	3307      	adds	r3, #7
    b3ba:	f023 0307 	bic.w	r3, r3, #7
    b3be:	3308      	adds	r3, #8
    b3c0:	9303      	str	r3, [sp, #12]
    b3c2:	9b09      	ldr	r3, [sp, #36]	; 0x24
    b3c4:	444b      	add	r3, r9
    b3c6:	9309      	str	r3, [sp, #36]	; 0x24
    b3c8:	e74c      	b.n	b264 <_vfiprintf_r+0x40>
    b3ca:	fb00 3202 	mla	r2, r0, r2, r3
    b3ce:	2101      	movs	r1, #1
    b3d0:	e786      	b.n	b2e0 <_vfiprintf_r+0xbc>
    b3d2:	2300      	movs	r3, #0
    b3d4:	9305      	str	r3, [sp, #20]
    b3d6:	4618      	mov	r0, r3
    b3d8:	250a      	movs	r5, #10
    b3da:	4688      	mov	r8, r1
    b3dc:	3101      	adds	r1, #1
    b3de:	f898 2000 	ldrb.w	r2, [r8]
    b3e2:	3a30      	subs	r2, #48	; 0x30
    b3e4:	2a09      	cmp	r2, #9
    b3e6:	d903      	bls.n	b3f0 <_vfiprintf_r+0x1cc>
    b3e8:	2b00      	cmp	r3, #0
    b3ea:	d0c5      	beq.n	b378 <_vfiprintf_r+0x154>
    b3ec:	9005      	str	r0, [sp, #20]
    b3ee:	e7c3      	b.n	b378 <_vfiprintf_r+0x154>
    b3f0:	fb05 2000 	mla	r0, r5, r0, r2
    b3f4:	2301      	movs	r3, #1
    b3f6:	e7f0      	b.n	b3da <_vfiprintf_r+0x1b6>
    b3f8:	ab03      	add	r3, sp, #12
    b3fa:	9300      	str	r3, [sp, #0]
    b3fc:	4622      	mov	r2, r4
    b3fe:	4b13      	ldr	r3, [pc, #76]	; (b44c <_vfiprintf_r+0x228>)
    b400:	a904      	add	r1, sp, #16
    b402:	4630      	mov	r0, r6
    b404:	f3af 8000 	nop.w
    b408:	f1b0 3fff 	cmp.w	r0, #4294967295
    b40c:	4681      	mov	r9, r0
    b40e:	d1d8      	bne.n	b3c2 <_vfiprintf_r+0x19e>
    b410:	89a3      	ldrh	r3, [r4, #12]
    b412:	065b      	lsls	r3, r3, #25
    b414:	f53f af7d 	bmi.w	b312 <_vfiprintf_r+0xee>
    b418:	9809      	ldr	r0, [sp, #36]	; 0x24
    b41a:	e77c      	b.n	b316 <_vfiprintf_r+0xf2>
    b41c:	ab03      	add	r3, sp, #12
    b41e:	9300      	str	r3, [sp, #0]
    b420:	4622      	mov	r2, r4
    b422:	4b0a      	ldr	r3, [pc, #40]	; (b44c <_vfiprintf_r+0x228>)
    b424:	a904      	add	r1, sp, #16
    b426:	4630      	mov	r0, r6
    b428:	f000 f888 	bl	b53c <_printf_i>
    b42c:	e7ec      	b.n	b408 <_vfiprintf_r+0x1e4>
    b42e:	bf00      	nop
    b430:	0000bc34 	.word	0x0000bc34
    b434:	0000bc74 	.word	0x0000bc74
    b438:	0000bc54 	.word	0x0000bc54
    b43c:	0000bc14 	.word	0x0000bc14
    b440:	0000bc7a 	.word	0x0000bc7a
    b444:	0000bc7e 	.word	0x0000bc7e
    b448:	00000000 	.word	0x00000000
    b44c:	0000b201 	.word	0x0000b201

0000b450 <_printf_common>:
    b450:	e92d 47f0 	stmdb	sp!, {r4, r5, r6, r7, r8, r9, sl, lr}
    b454:	4691      	mov	r9, r2
    b456:	461f      	mov	r7, r3
    b458:	688a      	ldr	r2, [r1, #8]
    b45a:	690b      	ldr	r3, [r1, #16]
    b45c:	f8dd 8020 	ldr.w	r8, [sp, #32]
    b460:	4293      	cmp	r3, r2
    b462:	bfb8      	it	lt
    b464:	4613      	movlt	r3, r2
    b466:	f8c9 3000 	str.w	r3, [r9]
    b46a:	f891 2043 	ldrb.w	r2, [r1, #67]	; 0x43
    b46e:	4606      	mov	r6, r0
    b470:	460c      	mov	r4, r1
    b472:	b112      	cbz	r2, b47a <_printf_common+0x2a>
    b474:	3301      	adds	r3, #1
    b476:	f8c9 3000 	str.w	r3, [r9]
    b47a:	6823      	ldr	r3, [r4, #0]
    b47c:	0699      	lsls	r1, r3, #26
    b47e:	bf42      	ittt	mi
    b480:	f8d9 3000 	ldrmi.w	r3, [r9]
    b484:	3302      	addmi	r3, #2
    b486:	f8c9 3000 	strmi.w	r3, [r9]
    b48a:	6825      	ldr	r5, [r4, #0]
    b48c:	f015 0506 	ands.w	r5, r5, #6
    b490:	d107      	bne.n	b4a2 <_printf_common+0x52>
    b492:	f104 0a19 	add.w	sl, r4, #25
    b496:	68e3      	ldr	r3, [r4, #12]
    b498:	f8d9 2000 	ldr.w	r2, [r9]
    b49c:	1a9b      	subs	r3, r3, r2
    b49e:	429d      	cmp	r5, r3
    b4a0:	db29      	blt.n	b4f6 <_printf_common+0xa6>
    b4a2:	f894 3043 	ldrb.w	r3, [r4, #67]	; 0x43
    b4a6:	6822      	ldr	r2, [r4, #0]
    b4a8:	3300      	adds	r3, #0
    b4aa:	bf18      	it	ne
    b4ac:	2301      	movne	r3, #1
    b4ae:	0692      	lsls	r2, r2, #26
    b4b0:	d42e      	bmi.n	b510 <_printf_common+0xc0>
    b4b2:	f104 0243 	add.w	r2, r4, #67	; 0x43
    b4b6:	4639      	mov	r1, r7
    b4b8:	4630      	mov	r0, r6
    b4ba:	47c0      	blx	r8
    b4bc:	3001      	adds	r0, #1
    b4be:	d021      	beq.n	b504 <_printf_common+0xb4>
    b4c0:	6823      	ldr	r3, [r4, #0]
    b4c2:	68e5      	ldr	r5, [r4, #12]
    b4c4:	f8d9 2000 	ldr.w	r2, [r9]
    b4c8:	f003 0306 	and.w	r3, r3, #6
    b4cc:	2b04      	cmp	r3, #4
    b4ce:	bf08      	it	eq
    b4d0:	1aad      	subeq	r5, r5, r2
    b4d2:	68a3      	ldr	r3, [r4, #8]
    b4d4:	6922      	ldr	r2, [r4, #16]
    b4d6:	bf0c      	ite	eq
    b4d8:	ea25 75e5 	biceq.w	r5, r5, r5, asr #31
    b4dc:	2500      	movne	r5, #0
    b4de:	4293      	cmp	r3, r2
    b4e0:	bfc4      	itt	gt
    b4e2:	1a9b      	subgt	r3, r3, r2
    b4e4:	18ed      	addgt	r5, r5, r3
    b4e6:	f04f 0900 	mov.w	r9, #0
    b4ea:	341a      	adds	r4, #26
    b4ec:	454d      	cmp	r5, r9
    b4ee:	d11b      	bne.n	b528 <_printf_common+0xd8>
    b4f0:	2000      	movs	r0, #0
    b4f2:	e8bd 87f0 	ldmia.w	sp!, {r4, r5, r6, r7, r8, r9, sl, pc}
    b4f6:	2301      	movs	r3, #1
    b4f8:	4652      	mov	r2, sl
    b4fa:	4639      	mov	r1, r7
    b4fc:	4630      	mov	r0, r6
    b4fe:	47c0      	blx	r8
    b500:	3001      	adds	r0, #1
    b502:	d103      	bne.n	b50c <_printf_common+0xbc>
    b504:	f04f 30ff 	mov.w	r0, #4294967295
    b508:	e8bd 87f0 	ldmia.w	sp!, {r4, r5, r6, r7, r8, r9, sl, pc}
    b50c:	3501      	adds	r5, #1
    b50e:	e7c2      	b.n	b496 <_printf_common+0x46>
    b510:	18e1      	adds	r1, r4, r3
    b512:	1c5a      	adds	r2, r3, #1
    b514:	2030      	movs	r0, #48	; 0x30
    b516:	f881 0043 	strb.w	r0, [r1, #67]	; 0x43
    b51a:	4422      	add	r2, r4
    b51c:	f894 1045 	ldrb.w	r1, [r4, #69]	; 0x45
    b520:	f882 1043 	strb.w	r1, [r2, #67]	; 0x43
    b524:	3302      	adds	r3, #2
    b526:	e7c4      	b.n	b4b2 <_printf_common+0x62>
    b528:	2301      	movs	r3, #1
    b52a:	4622      	mov	r2, r4
    b52c:	4639      	mov	r1, r7
    b52e:	4630      	mov	r0, r6
    b530:	47c0      	blx	r8
    b532:	3001      	adds	r0, #1
    b534:	d0e6      	beq.n	b504 <_printf_common+0xb4>
    b536:	f109 0901 	add.w	r9, r9, #1
    b53a:	e7d7      	b.n	b4ec <_printf_common+0x9c>

0000b53c <_printf_i>:
    b53c:	e92d 43f0 	stmdb	sp!, {r4, r5, r6, r7, r8, r9, lr}
    b540:	4617      	mov	r7, r2
    b542:	7e0a      	ldrb	r2, [r1, #24]
    b544:	b085      	sub	sp, #20
    b546:	2a6e      	cmp	r2, #110	; 0x6e
    b548:	4698      	mov	r8, r3
    b54a:	4606      	mov	r6, r0
    b54c:	460c      	mov	r4, r1
    b54e:	9b0c      	ldr	r3, [sp, #48]	; 0x30
    b550:	f101 0e43 	add.w	lr, r1, #67	; 0x43
    b554:	f000 80bc 	beq.w	b6d0 <_printf_i+0x194>
    b558:	d81a      	bhi.n	b590 <_printf_i+0x54>
    b55a:	2a63      	cmp	r2, #99	; 0x63
    b55c:	d02e      	beq.n	b5bc <_printf_i+0x80>
    b55e:	d80a      	bhi.n	b576 <_printf_i+0x3a>
    b560:	2a00      	cmp	r2, #0
    b562:	f000 80c8 	beq.w	b6f6 <_printf_i+0x1ba>
    b566:	2a58      	cmp	r2, #88	; 0x58
    b568:	f000 808a 	beq.w	b680 <_printf_i+0x144>
    b56c:	f104 0542 	add.w	r5, r4, #66	; 0x42
    b570:	f884 2042 	strb.w	r2, [r4, #66]	; 0x42
    b574:	e02a      	b.n	b5cc <_printf_i+0x90>
    b576:	2a64      	cmp	r2, #100	; 0x64
    b578:	d001      	beq.n	b57e <_printf_i+0x42>
    b57a:	2a69      	cmp	r2, #105	; 0x69
    b57c:	d1f6      	bne.n	b56c <_printf_i+0x30>
    b57e:	6821      	ldr	r1, [r4, #0]
    b580:	681a      	ldr	r2, [r3, #0]
    b582:	f011 0f80 	tst.w	r1, #128	; 0x80
    b586:	d023      	beq.n	b5d0 <_printf_i+0x94>
    b588:	1d11      	adds	r1, r2, #4
    b58a:	6019      	str	r1, [r3, #0]
    b58c:	6813      	ldr	r3, [r2, #0]
    b58e:	e027      	b.n	b5e0 <_printf_i+0xa4>
    b590:	2a73      	cmp	r2, #115	; 0x73
    b592:	f000 80b4 	beq.w	b6fe <_printf_i+0x1c2>
    b596:	d808      	bhi.n	b5aa <_printf_i+0x6e>
    b598:	2a6f      	cmp	r2, #111	; 0x6f
    b59a:	d02a      	beq.n	b5f2 <_printf_i+0xb6>
    b59c:	2a70      	cmp	r2, #112	; 0x70
    b59e:	d1e5      	bne.n	b56c <_printf_i+0x30>
    b5a0:	680a      	ldr	r2, [r1, #0]
    b5a2:	f042 0220 	orr.w	r2, r2, #32
    b5a6:	600a      	str	r2, [r1, #0]
    b5a8:	e003      	b.n	b5b2 <_printf_i+0x76>
    b5aa:	2a75      	cmp	r2, #117	; 0x75
    b5ac:	d021      	beq.n	b5f2 <_printf_i+0xb6>
    b5ae:	2a78      	cmp	r2, #120	; 0x78
    b5b0:	d1dc      	bne.n	b56c <_printf_i+0x30>
    b5b2:	2278      	movs	r2, #120	; 0x78
    b5b4:	f884 2045 	strb.w	r2, [r4, #69]	; 0x45
    b5b8:	496e      	ldr	r1, [pc, #440]	; (b774 <_printf_i+0x238>)
    b5ba:	e064      	b.n	b686 <_printf_i+0x14a>
    b5bc:	681a      	ldr	r2, [r3, #0]
    b5be:	f101 0542 	add.w	r5, r1, #66	; 0x42
    b5c2:	1d11      	adds	r1, r2, #4
    b5c4:	6019      	str	r1, [r3, #0]
    b5c6:	6813      	ldr	r3, [r2, #0]
    b5c8:	f884 3042 	strb.w	r3, [r4, #66]	; 0x42
    b5cc:	2301      	movs	r3, #1
    b5ce:	e0a3      	b.n	b718 <_printf_i+0x1dc>
    b5d0:	f011 0f40 	tst.w	r1, #64	; 0x40
    b5d4:	f102 0104 	add.w	r1, r2, #4
    b5d8:	6019      	str	r1, [r3, #0]
    b5da:	d0d7      	beq.n	b58c <_printf_i+0x50>
    b5dc:	f9b2 3000 	ldrsh.w	r3, [r2]
    b5e0:	2b00      	cmp	r3, #0
    b5e2:	da03      	bge.n	b5ec <_printf_i+0xb0>
    b5e4:	222d      	movs	r2, #45	; 0x2d
    b5e6:	425b      	negs	r3, r3
    b5e8:	f884 2043 	strb.w	r2, [r4, #67]	; 0x43
    b5ec:	4962      	ldr	r1, [pc, #392]	; (b778 <_printf_i+0x23c>)
    b5ee:	220a      	movs	r2, #10
    b5f0:	e017      	b.n	b622 <_printf_i+0xe6>
    b5f2:	6820      	ldr	r0, [r4, #0]
    b5f4:	6819      	ldr	r1, [r3, #0]
    b5f6:	f010 0f80 	tst.w	r0, #128	; 0x80
    b5fa:	d003      	beq.n	b604 <_printf_i+0xc8>
    b5fc:	1d08      	adds	r0, r1, #4
    b5fe:	6018      	str	r0, [r3, #0]
    b600:	680b      	ldr	r3, [r1, #0]
    b602:	e006      	b.n	b612 <_printf_i+0xd6>
    b604:	f010 0f40 	tst.w	r0, #64	; 0x40
    b608:	f101 0004 	add.w	r0, r1, #4
    b60c:	6018      	str	r0, [r3, #0]
    b60e:	d0f7      	beq.n	b600 <_printf_i+0xc4>
    b610:	880b      	ldrh	r3, [r1, #0]
    b612:	4959      	ldr	r1, [pc, #356]	; (b778 <_printf_i+0x23c>)
    b614:	2a6f      	cmp	r2, #111	; 0x6f
    b616:	bf14      	ite	ne
    b618:	220a      	movne	r2, #10
    b61a:	2208      	moveq	r2, #8
    b61c:	2000      	movs	r0, #0
    b61e:	f884 0043 	strb.w	r0, [r4, #67]	; 0x43
    b622:	6865      	ldr	r5, [r4, #4]
    b624:	60a5      	str	r5, [r4, #8]
    b626:	2d00      	cmp	r5, #0
    b628:	f2c0 809c 	blt.w	b764 <_printf_i+0x228>
    b62c:	6820      	ldr	r0, [r4, #0]
    b62e:	f020 0004 	bic.w	r0, r0, #4
    b632:	6020      	str	r0, [r4, #0]
    b634:	2b00      	cmp	r3, #0
    b636:	d13f      	bne.n	b6b8 <_printf_i+0x17c>
    b638:	2d00      	cmp	r5, #0
    b63a:	f040 8095 	bne.w	b768 <_printf_i+0x22c>
    b63e:	4675      	mov	r5, lr
    b640:	2a08      	cmp	r2, #8
    b642:	d10b      	bne.n	b65c <_printf_i+0x120>
    b644:	6823      	ldr	r3, [r4, #0]
    b646:	07da      	lsls	r2, r3, #31
    b648:	d508      	bpl.n	b65c <_printf_i+0x120>
    b64a:	6923      	ldr	r3, [r4, #16]
    b64c:	6862      	ldr	r2, [r4, #4]
    b64e:	429a      	cmp	r2, r3
    b650:	bfde      	ittt	le
    b652:	2330      	movle	r3, #48	; 0x30
    b654:	f805 3c01 	strble.w	r3, [r5, #-1]
    b658:	f105 35ff 	addle.w	r5, r5, #4294967295
    b65c:	ebae 0305 	sub.w	r3, lr, r5
    b660:	6123      	str	r3, [r4, #16]
    b662:	f8cd 8000 	str.w	r8, [sp]
    b666:	463b      	mov	r3, r7
    b668:	aa03      	add	r2, sp, #12
    b66a:	4621      	mov	r1, r4
    b66c:	4630      	mov	r0, r6
    b66e:	f7ff feef 	bl	b450 <_printf_common>
    b672:	3001      	adds	r0, #1
    b674:	d155      	bne.n	b722 <_printf_i+0x1e6>
    b676:	f04f 30ff 	mov.w	r0, #4294967295
    b67a:	b005      	add	sp, #20
    b67c:	e8bd 83f0 	ldmia.w	sp!, {r4, r5, r6, r7, r8, r9, pc}
    b680:	f881 2045 	strb.w	r2, [r1, #69]	; 0x45
    b684:	493c      	ldr	r1, [pc, #240]	; (b778 <_printf_i+0x23c>)
    b686:	6822      	ldr	r2, [r4, #0]
    b688:	6818      	ldr	r0, [r3, #0]
    b68a:	f012 0f80 	tst.w	r2, #128	; 0x80
    b68e:	f100 0504 	add.w	r5, r0, #4
    b692:	601d      	str	r5, [r3, #0]
    b694:	d001      	beq.n	b69a <_printf_i+0x15e>
    b696:	6803      	ldr	r3, [r0, #0]
    b698:	e002      	b.n	b6a0 <_printf_i+0x164>
    b69a:	0655      	lsls	r5, r2, #25
    b69c:	d5fb      	bpl.n	b696 <_printf_i+0x15a>
    b69e:	8803      	ldrh	r3, [r0, #0]
    b6a0:	07d0      	lsls	r0, r2, #31
    b6a2:	bf44      	itt	mi
    b6a4:	f042 0220 	orrmi.w	r2, r2, #32
    b6a8:	6022      	strmi	r2, [r4, #0]
    b6aa:	b91b      	cbnz	r3, b6b4 <_printf_i+0x178>
    b6ac:	6822      	ldr	r2, [r4, #0]
    b6ae:	f022 0220 	bic.w	r2, r2, #32
    b6b2:	6022      	str	r2, [r4, #0]
    b6b4:	2210      	movs	r2, #16
    b6b6:	e7b1      	b.n	b61c <_printf_i+0xe0>
    b6b8:	4675      	mov	r5, lr
    b6ba:	fbb3 f0f2 	udiv	r0, r3, r2
    b6be:	fb02 3310 	mls	r3, r2, r0, r3
    b6c2:	5ccb      	ldrb	r3, [r1, r3]
    b6c4:	f805 3d01 	strb.w	r3, [r5, #-1]!
    b6c8:	4603      	mov	r3, r0
    b6ca:	2800      	cmp	r0, #0
    b6cc:	d1f5      	bne.n	b6ba <_printf_i+0x17e>
    b6ce:	e7b7      	b.n	b640 <_printf_i+0x104>
    b6d0:	6808      	ldr	r0, [r1, #0]
    b6d2:	681a      	ldr	r2, [r3, #0]
    b6d4:	6949      	ldr	r1, [r1, #20]
    b6d6:	f010 0f80 	tst.w	r0, #128	; 0x80
    b6da:	d004      	beq.n	b6e6 <_printf_i+0x1aa>
    b6dc:	1d10      	adds	r0, r2, #4
    b6de:	6018      	str	r0, [r3, #0]
    b6e0:	6813      	ldr	r3, [r2, #0]
    b6e2:	6019      	str	r1, [r3, #0]
    b6e4:	e007      	b.n	b6f6 <_printf_i+0x1ba>
    b6e6:	f010 0f40 	tst.w	r0, #64	; 0x40
    b6ea:	f102 0004 	add.w	r0, r2, #4
    b6ee:	6018      	str	r0, [r3, #0]
    b6f0:	6813      	ldr	r3, [r2, #0]
    b6f2:	d0f6      	beq.n	b6e2 <_printf_i+0x1a6>
    b6f4:	8019      	strh	r1, [r3, #0]
    b6f6:	2300      	movs	r3, #0
    b6f8:	6123      	str	r3, [r4, #16]
    b6fa:	4675      	mov	r5, lr
    b6fc:	e7b1      	b.n	b662 <_printf_i+0x126>
    b6fe:	681a      	ldr	r2, [r3, #0]
    b700:	1d11      	adds	r1, r2, #4
    b702:	6019      	str	r1, [r3, #0]
    b704:	6815      	ldr	r5, [r2, #0]
    b706:	6862      	ldr	r2, [r4, #4]
    b708:	2100      	movs	r1, #0
    b70a:	4628      	mov	r0, r5
    b70c:	f000 f8d0 	bl	b8b0 <memchr>
    b710:	b108      	cbz	r0, b716 <_printf_i+0x1da>
    b712:	1b40      	subs	r0, r0, r5
    b714:	6060      	str	r0, [r4, #4]
    b716:	6863      	ldr	r3, [r4, #4]
    b718:	6123      	str	r3, [r4, #16]
    b71a:	2300      	movs	r3, #0
    b71c:	f884 3043 	strb.w	r3, [r4, #67]	; 0x43
    b720:	e79f      	b.n	b662 <_printf_i+0x126>
    b722:	6923      	ldr	r3, [r4, #16]
    b724:	462a      	mov	r2, r5
    b726:	4639      	mov	r1, r7
    b728:	4630      	mov	r0, r6
    b72a:	47c0      	blx	r8
    b72c:	3001      	adds	r0, #1
    b72e:	d0a2      	beq.n	b676 <_printf_i+0x13a>
    b730:	6823      	ldr	r3, [r4, #0]
    b732:	079b      	lsls	r3, r3, #30
    b734:	d507      	bpl.n	b746 <_printf_i+0x20a>
    b736:	2500      	movs	r5, #0
    b738:	f104 0919 	add.w	r9, r4, #25
    b73c:	68e3      	ldr	r3, [r4, #12]
    b73e:	9a03      	ldr	r2, [sp, #12]
    b740:	1a9b      	subs	r3, r3, r2
    b742:	429d      	cmp	r5, r3
    b744:	db05      	blt.n	b752 <_printf_i+0x216>
    b746:	68e0      	ldr	r0, [r4, #12]
    b748:	9b03      	ldr	r3, [sp, #12]
    b74a:	4298      	cmp	r0, r3
    b74c:	bfb8      	it	lt
    b74e:	4618      	movlt	r0, r3
    b750:	e793      	b.n	b67a <_printf_i+0x13e>
    b752:	2301      	movs	r3, #1
    b754:	464a      	mov	r2, r9
    b756:	4639      	mov	r1, r7
    b758:	4630      	mov	r0, r6
    b75a:	47c0      	blx	r8
    b75c:	3001      	adds	r0, #1
    b75e:	d08a      	beq.n	b676 <_printf_i+0x13a>
    b760:	3501      	adds	r5, #1
    b762:	e7eb      	b.n	b73c <_printf_i+0x200>
    b764:	2b00      	cmp	r3, #0
    b766:	d1a7      	bne.n	b6b8 <_printf_i+0x17c>
    b768:	780b      	ldrb	r3, [r1, #0]
    b76a:	f884 3042 	strb.w	r3, [r4, #66]	; 0x42
    b76e:	f104 0542 	add.w	r5, r4, #66	; 0x42
    b772:	e765      	b.n	b640 <_printf_i+0x104>
    b774:	0000bc96 	.word	0x0000bc96
    b778:	0000bc85 	.word	0x0000bc85

0000b77c <__sread>:
    b77c:	b510      	push	{r4, lr}
    b77e:	460c      	mov	r4, r1
    b780:	f9b1 100e 	ldrsh.w	r1, [r1, #14]
    b784:	f000 f8e4 	bl	b950 <_read_r>
    b788:	2800      	cmp	r0, #0
    b78a:	bfab      	itete	ge
    b78c:	6d63      	ldrge	r3, [r4, #84]	; 0x54
    b78e:	89a3      	ldrhlt	r3, [r4, #12]
    b790:	181b      	addge	r3, r3, r0
    b792:	f423 5380 	biclt.w	r3, r3, #4096	; 0x1000
    b796:	bfac      	ite	ge
    b798:	6563      	strge	r3, [r4, #84]	; 0x54
    b79a:	81a3      	strhlt	r3, [r4, #12]
    b79c:	bd10      	pop	{r4, pc}

0000b79e <__swrite>:
    b79e:	e92d 41f0 	stmdb	sp!, {r4, r5, r6, r7, r8, lr}
    b7a2:	461f      	mov	r7, r3
    b7a4:	898b      	ldrh	r3, [r1, #12]
    b7a6:	05db      	lsls	r3, r3, #23
    b7a8:	4605      	mov	r5, r0
    b7aa:	460c      	mov	r4, r1
    b7ac:	4616      	mov	r6, r2
    b7ae:	d505      	bpl.n	b7bc <__swrite+0x1e>
    b7b0:	2302      	movs	r3, #2
    b7b2:	2200      	movs	r2, #0
    b7b4:	f9b1 100e 	ldrsh.w	r1, [r1, #14]
    b7b8:	f000 f868 	bl	b88c <_lseek_r>
    b7bc:	89a3      	ldrh	r3, [r4, #12]
    b7be:	f9b4 100e 	ldrsh.w	r1, [r4, #14]
    b7c2:	f423 5380 	bic.w	r3, r3, #4096	; 0x1000
    b7c6:	81a3      	strh	r3, [r4, #12]
    b7c8:	4632      	mov	r2, r6
    b7ca:	463b      	mov	r3, r7
    b7cc:	4628      	mov	r0, r5
    b7ce:	e8bd 41f0 	ldmia.w	sp!, {r4, r5, r6, r7, r8, lr}
    b7d2:	f000 b817 	b.w	b804 <_write_r>

0000b7d6 <__sseek>:
    b7d6:	b510      	push	{r4, lr}
    b7d8:	460c      	mov	r4, r1
    b7da:	f9b1 100e 	ldrsh.w	r1, [r1, #14]
    b7de:	f000 f855 	bl	b88c <_lseek_r>
    b7e2:	1c43      	adds	r3, r0, #1
    b7e4:	89a3      	ldrh	r3, [r4, #12]
    b7e6:	bf15      	itete	ne
    b7e8:	6560      	strne	r0, [r4, #84]	; 0x54
    b7ea:	f423 5380 	biceq.w	r3, r3, #4096	; 0x1000
    b7ee:	f443 5380 	orrne.w	r3, r3, #4096	; 0x1000
    b7f2:	81a3      	strheq	r3, [r4, #12]
    b7f4:	bf18      	it	ne
    b7f6:	81a3      	strhne	r3, [r4, #12]
    b7f8:	bd10      	pop	{r4, pc}

0000b7fa <__sclose>:
    b7fa:	f9b1 100e 	ldrsh.w	r1, [r1, #14]
    b7fe:	f000 b813 	b.w	b828 <_close_r>
	...

0000b804 <_write_r>:
    b804:	b538      	push	{r3, r4, r5, lr}
    b806:	4c07      	ldr	r4, [pc, #28]	; (b824 <_write_r+0x20>)
    b808:	4605      	mov	r5, r0
    b80a:	4608      	mov	r0, r1
    b80c:	4611      	mov	r1, r2
    b80e:	2200      	movs	r2, #0
    b810:	6022      	str	r2, [r4, #0]
    b812:	461a      	mov	r2, r3
    b814:	f7fc fd8a 	bl	832c <_write>
    b818:	1c43      	adds	r3, r0, #1
    b81a:	d102      	bne.n	b822 <_write_r+0x1e>
    b81c:	6823      	ldr	r3, [r4, #0]
    b81e:	b103      	cbz	r3, b822 <_write_r+0x1e>
    b820:	602b      	str	r3, [r5, #0]
    b822:	bd38      	pop	{r3, r4, r5, pc}
    b824:	200161fc 	.word	0x200161fc

0000b828 <_close_r>:
    b828:	b538      	push	{r3, r4, r5, lr}
    b82a:	4c06      	ldr	r4, [pc, #24]	; (b844 <_close_r+0x1c>)
    b82c:	2300      	movs	r3, #0
    b82e:	4605      	mov	r5, r0
    b830:	4608      	mov	r0, r1
    b832:	6023      	str	r3, [r4, #0]
    b834:	f7f5 fc8e 	bl	1154 <_close>
    b838:	1c43      	adds	r3, r0, #1
    b83a:	d102      	bne.n	b842 <_close_r+0x1a>
    b83c:	6823      	ldr	r3, [r4, #0]
    b83e:	b103      	cbz	r3, b842 <_close_r+0x1a>
    b840:	602b      	str	r3, [r5, #0]
    b842:	bd38      	pop	{r3, r4, r5, pc}
    b844:	200161fc 	.word	0x200161fc

0000b848 <_fstat_r>:
    b848:	b538      	push	{r3, r4, r5, lr}
    b84a:	4c07      	ldr	r4, [pc, #28]	; (b868 <_fstat_r+0x20>)
    b84c:	2300      	movs	r3, #0
    b84e:	4605      	mov	r5, r0
    b850:	4608      	mov	r0, r1
    b852:	4611      	mov	r1, r2
    b854:	6023      	str	r3, [r4, #0]
    b856:	f7f5 fc80 	bl	115a <_fstat>
    b85a:	1c43      	adds	r3, r0, #1
    b85c:	d102      	bne.n	b864 <_fstat_r+0x1c>
    b85e:	6823      	ldr	r3, [r4, #0]
    b860:	b103      	cbz	r3, b864 <_fstat_r+0x1c>
    b862:	602b      	str	r3, [r5, #0]
    b864:	bd38      	pop	{r3, r4, r5, pc}
    b866:	bf00      	nop
    b868:	200161fc 	.word	0x200161fc

0000b86c <_isatty_r>:
    b86c:	b538      	push	{r3, r4, r5, lr}
    b86e:	4c06      	ldr	r4, [pc, #24]	; (b888 <_isatty_r+0x1c>)
    b870:	2300      	movs	r3, #0
    b872:	4605      	mov	r5, r0
    b874:	4608      	mov	r0, r1
    b876:	6023      	str	r3, [r4, #0]
    b878:	f7f5 fc74 	bl	1164 <_isatty>
    b87c:	1c43      	adds	r3, r0, #1
    b87e:	d102      	bne.n	b886 <_isatty_r+0x1a>
    b880:	6823      	ldr	r3, [r4, #0]
    b882:	b103      	cbz	r3, b886 <_isatty_r+0x1a>
    b884:	602b      	str	r3, [r5, #0]
    b886:	bd38      	pop	{r3, r4, r5, pc}
    b888:	200161fc 	.word	0x200161fc

0000b88c <_lseek_r>:
    b88c:	b538      	push	{r3, r4, r5, lr}
    b88e:	4c07      	ldr	r4, [pc, #28]	; (b8ac <_lseek_r+0x20>)
    b890:	4605      	mov	r5, r0
    b892:	4608      	mov	r0, r1
    b894:	4611      	mov	r1, r2
    b896:	2200      	movs	r2, #0
    b898:	6022      	str	r2, [r4, #0]
    b89a:	461a      	mov	r2, r3
    b89c:	f7f5 fc64 	bl	1168 <_lseek>
    b8a0:	1c43      	adds	r3, r0, #1
    b8a2:	d102      	bne.n	b8aa <_lseek_r+0x1e>
    b8a4:	6823      	ldr	r3, [r4, #0]
    b8a6:	b103      	cbz	r3, b8aa <_lseek_r+0x1e>
    b8a8:	602b      	str	r3, [r5, #0]
    b8aa:	bd38      	pop	{r3, r4, r5, pc}
    b8ac:	200161fc 	.word	0x200161fc

0000b8b0 <memchr>:
    b8b0:	f001 01ff 	and.w	r1, r1, #255	; 0xff
    b8b4:	2a10      	cmp	r2, #16
    b8b6:	db2b      	blt.n	b910 <memchr+0x60>
    b8b8:	f010 0f07 	tst.w	r0, #7
    b8bc:	d008      	beq.n	b8d0 <memchr+0x20>
    b8be:	f810 3b01 	ldrb.w	r3, [r0], #1
    b8c2:	3a01      	subs	r2, #1
    b8c4:	428b      	cmp	r3, r1
    b8c6:	d02d      	beq.n	b924 <memchr+0x74>
    b8c8:	f010 0f07 	tst.w	r0, #7
    b8cc:	b342      	cbz	r2, b920 <memchr+0x70>
    b8ce:	d1f6      	bne.n	b8be <memchr+0xe>
    b8d0:	b4f0      	push	{r4, r5, r6, r7}
    b8d2:	ea41 2101 	orr.w	r1, r1, r1, lsl #8
    b8d6:	ea41 4101 	orr.w	r1, r1, r1, lsl #16
    b8da:	f022 0407 	bic.w	r4, r2, #7
    b8de:	f07f 0700 	mvns.w	r7, #0
    b8e2:	2300      	movs	r3, #0
    b8e4:	e8f0 5602 	ldrd	r5, r6, [r0], #8
    b8e8:	3c08      	subs	r4, #8
    b8ea:	ea85 0501 	eor.w	r5, r5, r1
    b8ee:	ea86 0601 	eor.w	r6, r6, r1
    b8f2:	fa85 f547 	uadd8	r5, r5, r7
    b8f6:	faa3 f587 	sel	r5, r3, r7
    b8fa:	fa86 f647 	uadd8	r6, r6, r7
    b8fe:	faa5 f687 	sel	r6, r5, r7
    b902:	b98e      	cbnz	r6, b928 <memchr+0x78>
    b904:	d1ee      	bne.n	b8e4 <memchr+0x34>
    b906:	bcf0      	pop	{r4, r5, r6, r7}
    b908:	f001 01ff 	and.w	r1, r1, #255	; 0xff
    b90c:	f002 0207 	and.w	r2, r2, #7
    b910:	b132      	cbz	r2, b920 <memchr+0x70>
    b912:	f810 3b01 	ldrb.w	r3, [r0], #1
    b916:	3a01      	subs	r2, #1
    b918:	ea83 0301 	eor.w	r3, r3, r1
    b91c:	b113      	cbz	r3, b924 <memchr+0x74>
    b91e:	d1f8      	bne.n	b912 <memchr+0x62>
    b920:	2000      	movs	r0, #0
    b922:	4770      	bx	lr
    b924:	3801      	subs	r0, #1
    b926:	4770      	bx	lr
    b928:	2d00      	cmp	r5, #0
    b92a:	bf06      	itte	eq
    b92c:	4635      	moveq	r5, r6
    b92e:	3803      	subeq	r0, #3
    b930:	3807      	subne	r0, #7
    b932:	f015 0f01 	tst.w	r5, #1
    b936:	d107      	bne.n	b948 <memchr+0x98>
    b938:	3001      	adds	r0, #1
    b93a:	f415 7f80 	tst.w	r5, #256	; 0x100
    b93e:	bf02      	ittt	eq
    b940:	3001      	addeq	r0, #1
    b942:	f415 3fc0 	tsteq.w	r5, #98304	; 0x18000
    b946:	3001      	addeq	r0, #1
    b948:	bcf0      	pop	{r4, r5, r6, r7}
    b94a:	3801      	subs	r0, #1
    b94c:	4770      	bx	lr
    b94e:	bf00      	nop

0000b950 <_read_r>:
    b950:	b538      	push	{r3, r4, r5, lr}
    b952:	4c07      	ldr	r4, [pc, #28]	; (b970 <_read_r+0x20>)
    b954:	4605      	mov	r5, r0
    b956:	4608      	mov	r0, r1
    b958:	4611      	mov	r1, r2
    b95a:	2200      	movs	r2, #0
    b95c:	6022      	str	r2, [r4, #0]
    b95e:	461a      	mov	r2, r3
    b960:	f7fc fcd4 	bl	830c <_read>
    b964:	1c43      	adds	r3, r0, #1
    b966:	d102      	bne.n	b96e <_read_r+0x1e>
    b968:	6823      	ldr	r3, [r4, #0]
    b96a:	b103      	cbz	r3, b96e <_read_r+0x1e>
    b96c:	602b      	str	r3, [r5, #0]
    b96e:	bd38      	pop	{r3, r4, r5, pc}
    b970:	200161fc 	.word	0x200161fc
    b974:	2e323931 	.word	0x2e323931
    b978:	2e383631 	.word	0x2e383631
    b97c:	30312e31 	.word	0x30312e31
    b980:	35320030 	.word	0x35320030
    b984:	35322e35 	.word	0x35322e35
    b988:	35322e35 	.word	0x35322e35
    b98c:	00302e35 	.word	0x00302e35
    b990:	2e323931 	.word	0x2e323931
    b994:	2e383631 	.word	0x2e383631
    b998:	00312e31 	.word	0x00312e31

0000b99c <_map>:
    b99c:	00000000 00000060 00000007 00000027     ....`.......'...
    b9ac:	40003800 40003c00 4101a000 4101c000     .8.@.<.@...A...A
    b9bc:	42001400 42001800 43001400 43001800     ...B...B...C...C

0000b9cc <err_to_errno_table>:
    b9cc:	00000000 0000000c 00000069 0000000b     ........i.......
    b9dc:	00000071 00000073 00000016 0000000b     q...s...........
    b9ec:	00000062 00000072 00000067 00000068     b...r...g...h...
    b9fc:	0000006b 0000006b 00000005 ffffffff     k...k...........
    ba0c:	69706374 68745f70 64616572 00040000              tcpip_thread..

0000ba1a <memp_num>:
    ba1a:	00050004 00100008 000f0005 00040002     ................
    ba2a:	00080008 00100003 00200010                       ..........

0000ba34 <memp_sizes>:
    ba34:	00980020 0010001c 00180020 002c0010      ....... .....,.
    ba44:	00140014 00100010 000005fc              ............

0000ba50 <tcp_pcb_lists>:
    ba50:	200161cc 200161d4 200161c4 200161d8     .a. .a. .a. .a. 

0000ba60 <tcp_persist_backoff>:
    ba60:	180c0603 01786030                                ....0`x

0000ba67 <tcp_backoff>:
    ba67:	04030201 07070605 07070707 00baa007              .............

0000ba74 <tcp_state_str>:
    ba74:	0000baa0 0000baa7 0000baae 0000bab7     ................
    ba84:	0000bac0 0000bacc 0000bad7 0000bae2     ................
    ba94:	0000baed 0000baf5 0000bafe 534f4c43     ............CLOS
    baa4:	4c004445 45545349 5953004e 45535f4e     ED.LISTEN.SYN_SE
    bab4:	5300544e 525f4e59 00445643 41545345     NT.SYN_RCVD.ESTA
    bac4:	53494c42 00444548 5f4e4946 54494157     BLISHED.FIN_WAIT
    bad4:	4600315f 575f4e49 5f544941 4c430032     _1.FIN_WAIT_2.CL
    bae4:	5f45534f 54494157 4f4c4300 474e4953     OSE_WAIT.CLOSING
    baf4:	53414c00 43415f54 4954004b 575f454d     .LAST_ACK.TIME_W
    bb04:	00544941                                AIT.

0000bb08 <ethzero>:
    bb08:	00000000 ffff0000                                ......

0000bb0e <ethbroadcast>:
    bb0e:	ffffffff 6425ffff 50490020 4444415f     ......%d .IP_ADD
    bb1e:	20202052 25203a20 000a0d73 5f54454e     R    : %s...NET_
    bb2e:	4b53414d 3a202020 0d732520 4147000a     MASK   : %s...GA
    bb3e:	41574554 50495f59 25203a20 000a0d73     TEWAY_IP : %s...
    bb4e:	6c696146 74206465 6174206f 4920656b     Failed to take I
    bb5e:	6573204f 6870616d 2165726f 68744500     O semaphore!.Eth
    bb6e:	656e7265 61545f74 4d006b73 5f6e6961     ernet_Task.Main_
    bb7e:	6b736154 736e4900 69666675 6e656963     Task.Insufficien
    bb8e:	54522074 6820534f 20706165 69617661     t RTOS heap avai
    bb9e:	6c62616c 6f742065 65726320 20657461     lable to create 
    bbae:	20656874 656c6469 20726f20 656d6974     the idle or time
    bbbe:	61642072 6e6f6d65 73617420 4900736b     r daemon tasks.I
    bbce:	00454c44 09632509 25097525 75250975     DLE..%c.%u.%u.%u
    bbde:	54000a0d 5320726d 00006376 20000000     ...Tmr Svc..... 
    bbee:	450a0d76 72656874 2074656e 6b6e696c     v..Ethernet link
    bbfe:	0d707520 47000d0a 0043414d 0064654c      up....GMAC.Led.
	...

0000bc10 <_global_impure_ptr>:
    bc10:	20000054                                T.. 

0000bc14 <__sf_fake_stderr>:
	...

0000bc34 <__sf_fake_stdin>:
	...

0000bc54 <__sf_fake_stdout>:
	...
    bc74:	2b302d23 6c680020 6665004c 47464567     #-0+ .hlL.efgEFG
    bc84:	32313000 36353433 41393837 45444342     .0123456789ABCDE
    bc94:	31300046 35343332 39383736 64636261     F.0123456789abcd
    bca4:	00006665                                ef..

0000bca8 <_init>:
    bca8:	b5f8      	push	{r3, r4, r5, r6, r7, lr}
    bcaa:	bf00      	nop
    bcac:	bcf8      	pop	{r3, r4, r5, r6, r7}
    bcae:	bc08      	pop	{r3}
    bcb0:	469e      	mov	lr, r3
    bcb2:	4770      	bx	lr

0000bcb4 <__init_array_start>:
    bcb4:	00000289 	.word	0x00000289

0000bcb8 <_fini>:
    bcb8:	b5f8      	push	{r3, r4, r5, r6, r7, lr}
    bcba:	bf00      	nop
    bcbc:	bcf8      	pop	{r3, r4, r5, r6, r7}
    bcbe:	bc08      	pop	{r3}
    bcc0:	469e      	mov	lr, r3
    bcc2:	4770      	bx	lr

0000bcc4 <__fini_array_start>:
    bcc4:	00000265 	.word	0x00000265
